EXPORTS
    _ZN19cStdListUMapWatcherItNSt7__cxx114listIPN9CoRE4INET6BufferESaIS4_EEEED0Ev @1
    _ZN29cStdCollectionUMapWatcherBaseItNSt7__cxx114listIPN9CoRE4INET6BufferESaIS4_EEEEC2EPKcRSt13unordered_mapItS6_St4hashItESt8equal_toItESaISt4pairIKtS6_EEE @2
    _ZN29cStdCollectionUMapWatcherBaseItNSt7__cxx114listIPN9CoRE4INET6BufferESaIS4_EEEED0Ev @3
    _ZN29cStdCollectionUMapWatcherBaseItNSt7__cxx114listIPN9CoRE4INET6BufferESaIS4_EEEED2Ev @4
    _ZN7CAN4CQF11PoolMessage12parsimUnpackEPN7omnetpp11cCommBufferE @5
    _ZN7CAN4CQF11PoolMessage16getPoolForUpdateB5cxx11Ev @6
    _ZN7CAN4CQF11PoolMessage4copyERKS0_ @7
    _ZN7CAN4CQF11PoolMessage7setPoolERKNSt7__cxx114listIPN7omnetpp8cMessageESaIS5_EEE @8
    _ZN7CAN4CQF11PoolMessageC1EPKcs @9
    _ZN7CAN4CQF11PoolMessageC1ERKS0_ @10
    _ZN7CAN4CQF11PoolMessageC2EPKcs @11
    _ZN7CAN4CQF11PoolMessageC2ERKS0_ @12
    _ZN7CAN4CQF11PoolMessageD0Ev @13
    _ZN7CAN4CQF11PoolMessageD1Ev @14
    _ZN7CAN4CQF11PoolMessageD2Ev @15
    _ZN7CAN4CQF11PoolMessageaSERKS0_ @16
    _ZN7CAN4CQF12AVBInControlINS_20IEEE8021QchInControlIN9CoRE4INET13BaseInControlEEEE13handleMessageEPN7omnetpp8cMessageE @17
    _ZN7CAN4CQF12AVBInControlINS_20IEEE8021QchInControlIN9CoRE4INET13BaseInControlEEEED0Ev @18
    _ZN7CAN4CQF12AVBInControlINS_20IEEE8021QchInControlIN9CoRE4INET13BaseInControlEEEED1Ev @19
    _ZN7CAN4CQF12BE_InControlD0Ev @20
    _ZN7CAN4CQF12BE_InControlD1Ev @21
    _ZN7CAN4CQF12BE_InControlD2Ev @22
    _ZN7CAN4CQF14ARTFDescriptorC1Ev @23
    _ZN7CAN4CQF14ARTFDescriptorC2Ev @24
    _ZN7CAN4CQF14ARTFDescriptorD0Ev @25
    _ZN7CAN4CQF14ARTFDescriptorD1Ev @26
    _ZN7CAN4CQF14ARTFDescriptorD2Ev @27
    _ZN7CAN4CQF14HRTFDescriptorC1Ev @28
    _ZN7CAN4CQF14HRTFDescriptorC2Ev @29
    _ZN7CAN4CQF14HRTFDescriptorD0Ev @30
    _ZN7CAN4CQF14HRTFDescriptorD1Ev @31
    _ZN7CAN4CQF14HRTFDescriptorD2Ev @32
    _ZN7CAN4CQF17BaseGatewayRouter10initializeEv @33
    _ZN7CAN4CQF17BaseGatewayRouter13handleMessageEPN7omnetpp8cMessageE @34
    _ZN7CAN4CQF17BaseGatewayRouter13readConfigXMLEv @35
    _ZN7CAN4CQF17BaseGatewayRouter21handleParameterChangeEPKc @36
    _ZN7CAN4CQF17BaseGatewayRouter25getDestinationGateIndicesEiNSt7__cxx1112basic_stringIcSt11char_traitsIcESaIcEEE @37
    _ZN7CAN4CQF17BaseGatewayRouter9AVBPREFIXB5cxx11E @38 DATA
    _ZN7CAN4CQF17BaseGatewayRouter9CANPREFIXB5cxx11E @39 DATA
    _ZN7CAN4CQF17BaseGatewayRouter9ETHPREFIXB5cxx11E @40 DATA
    _ZN7CAN4CQF17BaseGatewayRouter9RAWPREFIXB5cxx11E @41 DATA
    _ZN7CAN4CQF17BaseGatewayRouter9TTEPREFIXB5cxx11E @42 DATA
    _ZN7CAN4CQF17BaseGatewayRouter9VIDPREFIXB5cxx11E @43 DATA
    _ZN7CAN4CQF17BaseGatewayRouterD0Ev @44
    _ZN7CAN4CQF17BaseGatewayRouterD2Ev @45
    _ZN7CAN4CQF17IEEE8021QchBEFlow12parsimUnpackEPN7omnetpp11cCommBufferE @46
    _ZN7CAN4CQF17IEEE8021QchBEFlow16setDisplayStringEPKc @47
    _ZN7CAN4CQF17IEEE8021QchBEFlow4copyERKS0_ @48
    _ZN7CAN4CQF17IEEE8021QchBEFlow5setDeEb @49
    _ZN7CAN4CQF17IEEE8021QchBEFlow6setPcpEh @50
    _ZN7CAN4CQF17IEEE8021QchBEFlow6setVIDEt @51
    _ZN7CAN4CQF17IEEE8021QchBEFlowC1EPKcs @52
    _ZN7CAN4CQF17IEEE8021QchBEFlowC1ERKS0_ @53
    _ZN7CAN4CQF17IEEE8021QchBEFlowC2EPKcs @54
    _ZN7CAN4CQF17IEEE8021QchBEFlowC2ERKS0_ @55
    _ZN7CAN4CQF17IEEE8021QchBEFlowD0Ev @56
    _ZN7CAN4CQF17IEEE8021QchBEFlowD1Ev @57
    _ZN7CAN4CQF17IEEE8021QchBEFlowD2Ev @58
    _ZN7CAN4CQF17IEEE8021QchBEFlowaSERKS0_ @59
    _ZN7CAN4CQF17IEEE8021QchTTFlow12parsimUnpackEPN7omnetpp11cCommBufferE @60
    _ZN7CAN4CQF17IEEE8021QchTTFlow16setDisplayStringEPKc @61
    _ZN7CAN4CQF17IEEE8021QchTTFlow4copyERKS0_ @62
    _ZN7CAN4CQF17IEEE8021QchTTFlow5setDeEb @63
    _ZN7CAN4CQF17IEEE8021QchTTFlow6setPcpEh @64
    _ZN7CAN4CQF17IEEE8021QchTTFlow6setVIDEt @65
    _ZN7CAN4CQF17IEEE8021QchTTFlowC1EPKcs @66
    _ZN7CAN4CQF17IEEE8021QchTTFlowC1ERKS0_ @67
    _ZN7CAN4CQF17IEEE8021QchTTFlowC2EPKcs @68
    _ZN7CAN4CQF17IEEE8021QchTTFlowC2ERKS0_ @69
    _ZN7CAN4CQF17IEEE8021QchTTFlowD0Ev @70
    _ZN7CAN4CQF17IEEE8021QchTTFlowD1Ev @71
    _ZN7CAN4CQF17IEEE8021QchTTFlowD2Ev @72
    _ZN7CAN4CQF17IEEE8021QchTTFlowaSERKS0_ @73
    _ZN7CAN4CQF17TTApplicationBase10initializeEv @74
    _ZN7CAN4CQF17TTApplicationBase13handleMessageEPN7omnetpp8cMessageE @75
    _ZN7CAN4CQF17TTApplicationBase21handleParameterChangeEPKc @76
    _ZN7CAN4CQF17TTApplicationBaseC1Ev @77
    _ZN7CAN4CQF17TTApplicationBaseC2Ev @78
    _ZN7CAN4CQF17TTApplicationBaseD0Ev @79
    _ZN7CAN4CQF17TTApplicationBaseD1Ev @80
    _ZN7CAN4CQF17TTApplicationBaseD2Ev @81
    _ZN7CAN4CQF18NoGatewayBuffering10initializeEv @82
    _ZN7CAN4CQF18NoGatewayBuffering13handleMessageEPN7omnetpp8cMessageE @83
    _ZN7CAN4CQF18NoGatewayBufferingD0Ev @84
    _ZN7CAN4CQF19AVB_8021Q_InControlD0Ev @85
    _ZN7CAN4CQF19AVB_8021Q_InControlD1Ev @86
    _ZN7CAN4CQF19AVB_8021Q_InControlD2Ev @87
    _ZN7CAN4CQF19IEEE8021QchQueueing10initializeEv @88
    _ZN7CAN4CQF19IEEE8021QchQueueing13handleMessageEPN7omnetpp8cMessageE @89
    _ZN7CAN4CQF19IEEE8021QchQueueing21handleParameterChangeEPKc @90
    _ZN7CAN4CQF19IEEE8021QchQueueingD0Ev @91
    _ZN7CAN4CQF19IEEE8021QchQueueingD2Ev @92
    _ZN7CAN4CQF20IEEE8021QchInControlIN9CoRE4INET13BaseInControlEE13handleMessageEPN7omnetpp8cMessageE @93
    _ZN7CAN4CQF20IEEE8021QchInControlIN9CoRE4INET13BaseInControlEE21handleParameterChangeEPKc @94
    _ZN7CAN4CQF20IEEE8021QchInControlIN9CoRE4INET13BaseInControlEED0Ev @95
    _ZN7CAN4CQF20IEEE8021QchInControlIN9CoRE4INET13BaseInControlEED1Ev @96
    _ZN7CAN4CQF21GatewayTransformation10initializeEv @97
    _ZN7CAN4CQF21GatewayTransformation13handleMessageEPN7omnetpp8cMessageE @98
    _ZN7CAN4CQF21GatewayTransformation13readConfigXMLEv @99
    _ZN7CAN4CQF21GatewayTransformation15CANCRCBITLENGTHE @100 DATA
    _ZN7CAN4CQF21GatewayTransformation17createMessageNameB5cxx11EPKc @101
    _ZN7CAN4CQF21GatewayTransformation21handleParameterChangeEPKc @102
    _ZN7CAN4CQF21GatewayTransformation21transformartfToTTFlowEPNS_4ARTFE @103
    _ZN7CAN4CQF21GatewayTransformation21transformhrtfToTTFlowEPNS_4HRTFE @104
    _ZN7CAN4CQF21GatewayTransformation25ARTFDecapsulateToARTFListB5cxx11EPNS_4ARTFE @105
    _ZN7CAN4CQF21GatewayTransformation29transformTTFlowToCanDataFrameEPNS_17IEEE8021QchTTFlowE @106
    _ZN7CAN4CQF21GatewayTransformationD0Ev @107
    _ZN7CAN4CQF21GatewayTransformationD2Ev @108
    _ZN7CAN4CQF21IEEE8021Qch_InControlD0Ev @109
    _ZN7CAN4CQF21IEEE8021Qch_InControlD1Ev @110
    _ZN7CAN4CQF21IEEE8021Qch_InControlD2Ev @111
    _ZN7CAN4CQF21PoolMessageDescriptorC1Ev @112
    _ZN7CAN4CQF21PoolMessageDescriptorC2Ev @113
    _ZN7CAN4CQF21PoolMessageDescriptorD0Ev @114
    _ZN7CAN4CQF21PoolMessageDescriptorD1Ev @115
    _ZN7CAN4CQF21PoolMessageDescriptorD2Ev @116
    _ZN7CAN4CQF22CircularRotationBuffer10initializeEv @117
    _ZN7CAN4CQF22CircularRotationBuffer13calculateWCRTEdidd @118
    _ZN7CAN4CQF22CircularRotationBuffer13handleMessageEPN7omnetpp8cMessageE @119
    _ZN7CAN4CQF22CircularRotationBuffer13logToJsonFileEv @120
    _ZN7CAN4CQF22CircularRotationBuffer15ChecktimeinTCQFEv @121
    _ZN7CAN4CQF22CircularRotationBuffer19EncapsulateTSNFrameEv @122
    _ZN7CAN4CQF22CircularRotationBuffer20getCanfdArrivingInfoEPN10FiCo4OMNeT12CanDataFrameE @123
    _ZN7CAN4CQF22CircularRotationBuffer21checkAndAppendBracketERKNSt7__cxx1112basic_stringIcSt11char_traitsIcESaIcEEE @124
    _ZN7CAN4CQF22CircularRotationBuffer21handleParameterChangeEPKc @125
    _ZN7CAN4CQF22CircularRotationBuffer23caluculateEndToEndDelayEv @126
    _ZN7CAN4CQF22CircularRotationBuffer6finishEv @127
    _ZN7CAN4CQF22CircularRotationBufferC1Ev @128
    _ZN7CAN4CQF22CircularRotationBufferC2Ev @129
    _ZN7CAN4CQF22CircularRotationBufferD0Ev @130
    _ZN7CAN4CQF22CircularRotationBufferD1Ev @131
    _ZN7CAN4CQF22CircularRotationBufferD2Ev @132
    _ZN7CAN4CQF23CircularRotationMessage18encapsulationCountEv @133
    _ZN7CAN4CQF23CircularRotationMessage19getCanDataFrameListB5cxx11Ev @134
    _ZN7CAN4CQF23CircularRotationMessage29setAllCanDataFrameAndHoldTimeESt3mapIPN10FiCo4OMNeT12CanDataFrameEdSt4lessIS4_ESaISt4pairIKS4_dEEE @135
    _ZN7CAN4CQF23CircularRotationMessage33encasulateCanDataFrameAndHoldTimeEPN10FiCo4OMNeT12CanDataFrameEd @136
    _ZN7CAN4CQF23CircularRotationMessage34decapsulateCanDataFrameAndHoldTimeEv @137
    _ZN7CAN4CQF23CircularRotationMessage4copyERKS0_ @138
    _ZN7CAN4CQF23CircularRotationMessageD0Ev @139
    _ZN7CAN4CQF23CircularRotationMessageD2Ev @140
    _ZN7CAN4CQF23NoGatewayTransformation10initializeEv @141
    _ZN7CAN4CQF23NoGatewayTransformation13handleMessageEPN7omnetpp8cMessageE @142
    _ZN7CAN4CQF23NoGatewayTransformationD0Ev @143
    _ZN7CAN4CQF24EDFGatewayTransformation10initializeEv @144
    _ZN7CAN4CQF24EDFGatewayTransformation13handleMessageEPN7omnetpp8cMessageE @145
    _ZN7CAN4CQF24EDFGatewayTransformation13readConfigXMLEv @146
    _ZN7CAN4CQF24EDFGatewayTransformation15CANCRCBITLENGTHE @147 DATA
    _ZN7CAN4CQF24EDFGatewayTransformation17createMessageNameB5cxx11EPKc @148
    _ZN7CAN4CQF24EDFGatewayTransformation21handleParameterChangeEPKc @149
    _ZN7CAN4CQF24EDFGatewayTransformation21transformartfToTTFlowEPNS_4ARTFE @150
    _ZN7CAN4CQF24EDFGatewayTransformation29transformTTFlowToCanDataFrameEPNS_17IEEE8021QchTTFlowE @151
    _ZN7CAN4CQF24EDFGatewayTransformationC1Ev @152
    _ZN7CAN4CQF24EDFGatewayTransformationC2Ev @153
    _ZN7CAN4CQF24EDFGatewayTransformationD0Ev @154
    _ZN7CAN4CQF24EDFGatewayTransformationD2Ev @155
    _ZN7CAN4CQF24RAEGatewayTransformation10initializeEv @156
    _ZN7CAN4CQF24RAEGatewayTransformation12Resort_orderESt3mapIPN10FiCo4OMNeT12CanDataFrameEN7omnetpp7SimTimeESt4lessIS4_ESaISt4pairIKS4_S6_EEEdi @157
    _ZN7CAN4CQF24RAEGatewayTransformation13handleMessageEPN7omnetpp8cMessageE @158
    _ZN7CAN4CQF24RAEGatewayTransformation13readConfigXMLEv @159
    _ZN7CAN4CQF24RAEGatewayTransformation15CANCRCBITLENGTHE @160 DATA
    _ZN7CAN4CQF24RAEGatewayTransformation17createMessageNameB5cxx11EPKc @161
    _ZN7CAN4CQF24RAEGatewayTransformation20Decap_orderfromeARTFEPNS_4ARTFE @162
    _ZN7CAN4CQF24RAEGatewayTransformation21handleParameterChangeEPKc @163
    _ZN7CAN4CQF24RAEGatewayTransformation21transformartfToTTFlowEPNS_4ARTFE @164
    _ZN7CAN4CQF24RAEGatewayTransformation21transformhrtfToTTFlowEPNS_4HRTFE @165
    _ZN7CAN4CQF24RAEGatewayTransformation29transformTTFlowToCanDataFrameEPNS_17IEEE8021QchTTFlowE @166
    _ZN7CAN4CQF24RAEGatewayTransformationC1Ev @167
    _ZN7CAN4CQF24RAEGatewayTransformationC2Ev @168
    _ZN7CAN4CQF24RAEGatewayTransformationD0Ev @169
    _ZN7CAN4CQF24RAEGatewayTransformationD2Ev @170
    _ZN7CAN4CQF24VarGatewayTransformation10initializeEv @171
    _ZN7CAN4CQF24VarGatewayTransformation13handleMessageEPN7omnetpp8cMessageE @172
    _ZN7CAN4CQF24VarGatewayTransformation13readConfigXMLEv @173
    _ZN7CAN4CQF24VarGatewayTransformation15CANCRCBITLENGTHE @174 DATA
    _ZN7CAN4CQF24VarGatewayTransformation17createMessageNameB5cxx11EPKc @175
    _ZN7CAN4CQF24VarGatewayTransformation20transformTTFlowToCanEPNS_17IEEE8021QchTTFlowE @176
    _ZN7CAN4CQF24VarGatewayTransformation21handleParameterChangeEPKc @177
    _ZN7CAN4CQF24VarGatewayTransformation24transformcrclmsgToTTFlowEPNS_23CircularRotationMessageE @178
    _ZN7CAN4CQF24VarGatewayTransformationC1Ev @179
    _ZN7CAN4CQF24VarGatewayTransformationC2Ev @180
    _ZN7CAN4CQF24VarGatewayTransformationD0Ev @181
    _ZN7CAN4CQF24VarGatewayTransformationD1Ev @182
    _ZN7CAN4CQF24VarGatewayTransformationD2Ev @183
    _ZN7CAN4CQF26EthernetGatewayApplication10initializeEv @184
    _ZN7CAN4CQF26EthernetGatewayApplication13handleMessageEPN7omnetpp8cMessageE @185
    _ZN7CAN4CQF26EthernetGatewayApplicationC1Ev @186
    _ZN7CAN4CQF26EthernetGatewayApplicationC2Ev @187
    _ZN7CAN4CQF26EthernetGatewayApplicationD0Ev @188
    _ZN7CAN4CQF26EthernetGatewayApplicationD1Ev @189
    _ZN7CAN4CQF26EthernetGatewayApplicationD2Ev @190
    _ZN7CAN4CQF26IEEE8021QchGateControlList10initializeEi @191
    _ZN7CAN4CQF26IEEE8021QchGateControlList13handleMessageEPN7omnetpp8cMessageE @192
    _ZN7CAN4CQF26IEEE8021QchGateControlList18setGateControlListENSt7__cxx1112basic_stringIcSt11char_traitsIcESaIcEEE @193
    _ZN7CAN4CQF26IEEE8021QchGateControlList21handleParameterChangeEPKc @194
    _ZN7CAN4CQF26IEEE8021QchGateControlList27propagateGateControlElementESt6vectorINSt7__cxx1112basic_stringIcSt11char_traitsIcESaIcEEESaIS7_EE @195
    _ZN7CAN4CQF26IEEE8021QchGateControlList30switchToNextGateControlElementEv @196
    _ZN7CAN4CQF26IEEE8021QchGateControlList31switchToFirstGateControlElementEv @197
    _ZN7CAN4CQF26IEEE8021QchGateControlList37scheduleCurrentGateControlElementTimeEb @198
    _ZN7CAN4CQF26IEEE8021QchGateControlListC1Ev @199
    _ZN7CAN4CQF26IEEE8021QchGateControlListC2Ev @200
    _ZN7CAN4CQF26IEEE8021QchGateControlListD0Ev @201
    _ZN7CAN4CQF26IEEE8021QchGateControlListD1Ev @202
    _ZN7CAN4CQF26IEEE8021QchGateControlListD2Ev @203
    _ZN7CAN4CQF27AggregationGatewayBuffering10initializeEv @204
    _ZN7CAN4CQF27AggregationGatewayBuffering11emitSignalsEPNSt7__cxx114listIPN7omnetpp8cMessageESaIS5_EEE @205
    _ZN7CAN4CQF27AggregationGatewayBuffering11getPoolListB5cxx11EPN7omnetpp8cMessageE @206
    _ZN7CAN4CQF27AggregationGatewayBuffering11getPoolListB5cxx11Ej @207
    _ZN7CAN4CQF27AggregationGatewayBuffering12SortSequenceENSt7__cxx114listIPN10FiCo4OMNeT12CanDataFrameESaIS5_EEE @208
    _ZN7CAN4CQF27AggregationGatewayBuffering13handleMessageEPN7omnetpp8cMessageE @209
    _ZN7CAN4CQF27AggregationGatewayBuffering13readConfigXMLEv @210
    _ZN7CAN4CQF27AggregationGatewayBuffering14GetArrivalTimeEPN10FiCo4OMNeT12CanDataFrameE @211
    _ZN7CAN4CQF27AggregationGatewayBuffering15getIDHoldUpTimeEj @212
    _ZN7CAN4CQF27AggregationGatewayBuffering19divisionTrafficFlowEPN7omnetpp8cMessageE @213
    _ZN7CAN4CQF27AggregationGatewayBuffering21handleParameterChangeEPKc @214
    _ZN7CAN4CQF27AggregationGatewayBuffering22getPoolHoldUpTimeEventEPNSt7__cxx114listIPN7omnetpp8cMessageESaIS5_EEE @215
    _ZN7CAN4CQF27AggregationGatewayBuffering24getCurrentPoolHoldUpTimeEPN7omnetpp8cMessageE @216
    _ZN7CAN4CQF27AggregationGatewayBuffering27AdjustEncapsulationCanFrameEPN7omnetpp8cMessageE @217
    _ZN7CAN4CQF27AggregationGatewayBuffering28CalculateReservationDeadlineENSt7__cxx114listIPN10FiCo4OMNeT12CanDataFrameESaIS5_EEE @218
    _ZN7CAN4CQF27AggregationGatewayBuffering9getPoolIDEPNSt7__cxx114listIPN7omnetpp8cMessageESaIS5_EEE @219
    _ZN7CAN4CQF27AggregationGatewayBufferingC1Ev @220
    _ZN7CAN4CQF27AggregationGatewayBufferingC2Ev @221
    _ZN7CAN4CQF27AggregationGatewayBufferingD0Ev @222
    _ZN7CAN4CQF27AggregationGatewayBufferingD1Ev @223
    _ZN7CAN4CQF27AggregationGatewayBufferingD2Ev @224
    _ZN7CAN4CQF27IEEE8021QchBEFlowDescriptorC1Ev @225
    _ZN7CAN4CQF27IEEE8021QchBEFlowDescriptorC2Ev @226
    _ZN7CAN4CQF27IEEE8021QchBEFlowDescriptorD0Ev @227
    _ZN7CAN4CQF27IEEE8021QchBEFlowDescriptorD1Ev @228
    _ZN7CAN4CQF27IEEE8021QchBEFlowDescriptorD2Ev @229
    _ZN7CAN4CQF27IEEE8021QchTTFlowDescriptorC1Ev @230
    _ZN7CAN4CQF27IEEE8021QchTTFlowDescriptorC2Ev @231
    _ZN7CAN4CQF27IEEE8021QchTTFlowDescriptorD0Ev @232
    _ZN7CAN4CQF27IEEE8021QchTTFlowDescriptorD1Ev @233
    _ZN7CAN4CQF27IEEE8021QchTTFlowDescriptorD2Ev @234
    _ZN7CAN4CQF28CircularRotationMessage_Base12parsimUnpackEPN7omnetpp11cCommBufferE @235
    _ZN7CAN4CQF28CircularRotationMessage_Base4copyERKS0_ @236
    _ZN7CAN4CQF28CircularRotationMessage_BaseC1EPKcs @237
    _ZN7CAN4CQF28CircularRotationMessage_BaseC1ERKS0_ @238
    _ZN7CAN4CQF28CircularRotationMessage_BaseC2EPKcs @239
    _ZN7CAN4CQF28CircularRotationMessage_BaseC2ERKS0_ @240
    _ZN7CAN4CQF28CircularRotationMessage_BaseD0Ev @241
    _ZN7CAN4CQF28CircularRotationMessage_BaseD1Ev @242
    _ZN7CAN4CQF28CircularRotationMessage_BaseD2Ev @243
    _ZN7CAN4CQF28CircularRotationMessage_BaseaSERKS0_ @244
    _ZN7CAN4CQF28TimeoutGatewayTransformation10initializeEv @245
    _ZN7CAN4CQF28TimeoutGatewayTransformation13handleMessageEPN7omnetpp8cMessageE @246
    _ZN7CAN4CQF28TimeoutGatewayTransformation13readConfigXMLEv @247
    _ZN7CAN4CQF28TimeoutGatewayTransformation15CANCRCBITLENGTHE @248 DATA
    _ZN7CAN4CQF28TimeoutGatewayTransformation17createMessageNameB5cxx11EPKc @249
    _ZN7CAN4CQF28TimeoutGatewayTransformation21handleParameterChangeEPKc @250
    _ZN7CAN4CQF28TimeoutGatewayTransformation21transformartfToTTFlowEPNS_4ARTFE @251
    _ZN7CAN4CQF28TimeoutGatewayTransformation29transformTTFlowToCanDataFrameEPNS_17IEEE8021QchTTFlowE @252
    _ZN7CAN4CQF28TimeoutGatewayTransformationC1Ev @253
    _ZN7CAN4CQF28TimeoutGatewayTransformationC2Ev @254
    _ZN7CAN4CQF28TimeoutGatewayTransformationD0Ev @255
    _ZN7CAN4CQF28TimeoutGatewayTransformationD2Ev @256
    _ZN7CAN4CQF33CircularRotationMessageDescriptorC1Ev @257
    _ZN7CAN4CQF33CircularRotationMessageDescriptorC2Ev @258
    _ZN7CAN4CQF33CircularRotationMessageDescriptorD0Ev @259
    _ZN7CAN4CQF33CircularRotationMessageDescriptorD1Ev @260
    _ZN7CAN4CQF33CircularRotationMessageDescriptorD2Ev @261
    _ZN7CAN4CQF33ResortAggregationGatewayBuffering10initializeEv @262
    _ZN7CAN4CQF33ResortAggregationGatewayBuffering13handleMessageEPN7omnetpp8cMessageE @263
    _ZN7CAN4CQF33ResortAggregationGatewayBuffering14GetArrivalTimeEPN10FiCo4OMNeT12CanDataFrameE @264
    _ZN7CAN4CQF33ResortAggregationGatewayBuffering15ChecktimeinTCQFEv @265
    _ZN7CAN4CQF33ResortAggregationGatewayBuffering17Encap_orderinARTFESt3mapIPN10FiCo4OMNeT12CanDataFrameEN7omnetpp7SimTimeESt4lessIS4_ESaISt4pairIKS4_S6_EEE @266
    _ZN7CAN4CQF33ResortAggregationGatewayBuffering21handleParameterChangeEPKc @267
    _ZN7CAN4CQF33ResortAggregationGatewayBufferingC1Ev @268
    _ZN7CAN4CQF33ResortAggregationGatewayBufferingC2Ev @269
    _ZN7CAN4CQF33ResortAggregationGatewayBufferingD0Ev @270
    _ZN7CAN4CQF33ResortAggregationGatewayBufferingD1Ev @271
    _ZN7CAN4CQF33ResortAggregationGatewayBufferingD2Ev @272
    _ZN7CAN4CQF4ARTF11encap_orderEPN10FiCo4OMNeT12CanDataFrameEN7omnetpp7SimTimeE @273
    _ZN7CAN4CQF4ARTF11getEncapCntEv @274
    _ZN7CAN4CQF4ARTF11getordernumEv @275
    _ZN7CAN4CQF4ARTF17encapCanDataFrameEPN10FiCo4OMNeT12CanDataFrameE @276
    _ZN7CAN4CQF4ARTF19decap_order_arrtimeEPN10FiCo4OMNeT12CanDataFrameE @277
    _ZN7CAN4CQF4ARTF4copyERKS0_ @278
    _ZN7CAN4CQF4ARTF9decapARTFEv @279
    _ZN7CAN4CQF4ARTFC2ERKS0_ @280
    _ZN7CAN4CQF4ARTFD0Ev @281
    _ZN7CAN4CQF4ARTFD2Ev @282
    _ZN7CAN4CQF4HRTF11setEncapnumEt @283
    _ZN7CAN4CQF4HRTF12parsimUnpackEPN7omnetpp11cCommBufferE @284
    _ZN7CAN4CQF4HRTF14setDestinationEt @285
    _ZN7CAN4CQF4HRTF4copyERKS0_ @286
    _ZN7CAN4CQF4HRTF9setSourceEt @287
    _ZN7CAN4CQF4HRTFC1EPKcs @288
    _ZN7CAN4CQF4HRTFC1ERKS0_ @289
    _ZN7CAN4CQF4HRTFC2EPKcs @290
    _ZN7CAN4CQF4HRTFC2ERKS0_ @291
    _ZN7CAN4CQF4HRTFD0Ev @292
    _ZN7CAN4CQF4HRTFD1Ev @293
    _ZN7CAN4CQF4HRTFD2Ev @294
    _ZN7CAN4CQF4HRTFaSERKS0_ @295
    _ZN7CAN4CQF6Rxgate10initializeEi @296
    _ZN7CAN4CQF6Rxgate13handleMessageEPN7omnetpp8cMessageE @297
    _ZN7CAN4CQF6Rxgate18setGateControlListENSt7__cxx1112basic_stringIcSt11char_traitsIcESaIcEEE @298
    _ZN7CAN4CQF6Rxgate20ForwardTTFlowToQueueEPNS_17IEEE8021QchTTFlowE @299
    _ZN7CAN4CQF6Rxgate21handleParameterChangeEPKc @300
    _ZN7CAN4CQF6Rxgate30switchToNextGateControlElementEv @301
    _ZN7CAN4CQF6Rxgate31switchToFirstGateControlElementEv @302
    _ZN7CAN4CQF6Rxgate37scheduleCurrentGateControlElementTimeEb @303
    _ZN7CAN4CQF6RxgateC1Ev @304
    _ZN7CAN4CQF6RxgateC2Ev @305
    _ZN7CAN4CQF6RxgateD0Ev @306
    _ZN7CAN4CQF6RxgateD1Ev @307
    _ZN7CAN4CQF6RxgateD2Ev @308
    _ZN7CAN4CQF9ARTF_Base12parsimUnpackEPN7omnetpp11cCommBufferE @309
    _ZN7CAN4CQF9ARTF_Base14setDestinationEt @310
    _ZN7CAN4CQF9ARTF_Base4copyERKS0_ @311
    _ZN7CAN4CQF9ARTF_Base9setSourceEt @312
    _ZN7CAN4CQF9ARTF_BaseC1EPKcs @313
    _ZN7CAN4CQF9ARTF_BaseC1ERKS0_ @314
    _ZN7CAN4CQF9ARTF_BaseC2EPKcs @315
    _ZN7CAN4CQF9ARTF_BaseC2ERKS0_ @316
    _ZN7CAN4CQF9ARTF_BaseD0Ev @317
    _ZN7CAN4CQF9ARTF_BaseD1Ev @318
    _ZN7CAN4CQF9ARTF_BaseD2Ev @319
    _ZN7CAN4CQF9ARTF_BaseaSERKS0_ @320
    _ZN7omnetpp10fromAnyPtrIN7CAN4CQF11PoolMessageEEEPT_NS_7any_ptrE @321
    _ZN7omnetpp10fromAnyPtrIN7CAN4CQF17IEEE8021QchBEFlowEEEPT_NS_7any_ptrE @322
    _ZN7omnetpp10fromAnyPtrIN7CAN4CQF17IEEE8021QchTTFlowEEEPT_NS_7any_ptrE @323
    _ZN7omnetpp10fromAnyPtrIN7CAN4CQF28CircularRotationMessage_BaseEEEPT_NS_7any_ptrE @324
    _ZN7omnetpp10fromAnyPtrIN7CAN4CQF4HRTFEEEPT_NS_7any_ptrE @325
    _ZN7omnetpp10fromAnyPtrIN7CAN4CQF9ARTF_BaseEEEPT_NS_7any_ptrE @326
    _ZN7omnetpp14check_and_castIPN7CAN4CQF11PoolMessageENS_7cObjectEEET_PT0_ @327
    _ZN7omnetpp14check_and_castIPN7CAN4CQF17IEEE8021QchBEFlowENS_7cObjectEEET_PT0_ @328
    _ZN7omnetpp14check_and_castIPN7CAN4CQF17IEEE8021QchTTFlowENS_7cObjectEEET_PT0_ @329
    _ZN7omnetpp14check_and_castIPN7CAN4CQF28CircularRotationMessage_BaseENS_7cObjectEEET_PT0_ @330
    _ZN7omnetpp14check_and_castIPN7CAN4CQF4HRTFENS_7cObjectEEET_PT0_ @331
    _ZN7omnetpp14check_and_castIPN7CAN4CQF9ARTF_BaseENS_7cObjectEEET_PT0_ @332
    _ZN7omnetpp22check_and_cast_failureIPN7CAN4CQF11PoolMessageENS_7cObjectEEEvPT0_T_ @333
    _ZN7omnetpp22check_and_cast_failureIPN7CAN4CQF17IEEE8021QchBEFlowENS_7cObjectEEEvPT0_T_ @334
    _ZN7omnetpp22check_and_cast_failureIPN7CAN4CQF17IEEE8021QchTTFlowENS_7cObjectEEEvPT0_T_ @335
    _ZN7omnetpp22check_and_cast_failureIPN7CAN4CQF28CircularRotationMessage_BaseENS_7cObjectEEEvPT0_T_ @336
    _ZN7omnetpp22check_and_cast_failureIPN7CAN4CQF4HRTFENS_7cObjectEEEvPT0_T_ @337
    _ZN7omnetpp22check_and_cast_failureIPN7CAN4CQF9ARTF_BaseENS_7cObjectEEEvPT0_T_ @338
    _ZN8nlohmann16json_abi_v3_11_310basic_jsonISt3mapSt6vectorNSt7__cxx1112basic_stringIcSt11char_traitsIcESaIcEEEbxydSaNS0_14adl_serializerES3_IhSaIhEEvE10json_value7destroyENS0_6detail7value_tE @339
    _ZN8nlohmann16json_abi_v3_11_310basic_jsonISt3mapSt6vectorNSt7__cxx1112basic_stringIcSt11char_traitsIcESaIcEEEbxydSaNS0_14adl_serializerES3_IhSaIhEEvE4dataD2Ev @340
    _ZN8nlohmann16json_abi_v3_11_310basic_jsonISt3mapSt6vectorNSt7__cxx1112basic_stringIcSt11char_traitsIcESaIcEEEbxydSaNS0_14adl_serializerES3_IhSaIhEEvE6createIS3_ISD_SaISD_EEJPKNS0_6detail8json_refISD_EESL_EEEPT_DpOT0_ @341
    _ZN8nlohmann16json_abi_v3_11_310basic_jsonISt3mapSt6vectorNSt7__cxx1112basic_stringIcSt11char_traitsIcESaIcEEEbxydSaNS0_14adl_serializerES3_IhSaIhEEvE9push_backERKSD_ @342
    _ZN8nlohmann16json_abi_v3_11_310basic_jsonISt3mapSt6vectorNSt7__cxx1112basic_stringIcSt11char_traitsIcESaIcEEEbxydSaNS0_14adl_serializerES3_IhSaIhEEvEC2ERKSD_ @343
    _ZN8nlohmann16json_abi_v3_11_310basic_jsonISt3mapSt6vectorNSt7__cxx1112basic_stringIcSt11char_traitsIcESaIcEEEbxydSaNS0_14adl_serializerES3_IhSaIhEEvED2Ev @344
    _ZN8nlohmann16json_abi_v3_11_310basic_jsonISt3mapSt6vectorNSt7__cxx1112basic_stringIcSt11char_traitsIcESaIcEEEbxydSaNS0_14adl_serializerES3_IhSaIhEEvEixES9_ @345
    _ZN8nlohmann16json_abi_v3_11_310basic_jsonISt3mapSt6vectorNSt7__cxx1112basic_stringIcSt11char_traitsIcESaIcEEEbxydSaNS0_14adl_serializerES3_IhSaIhEEvEixIKcEERSD_PT_ @346
    _ZN8nlohmann16json_abi_v3_11_36detail10serializerINS0_10basic_jsonISt3mapSt6vectorNSt7__cxx1112basic_stringIcSt11char_traitsIcESaIcEEEbxydSaNS0_14adl_serializerES5_IhSaIhEEvEEE12dump_escapedERKSB_b @347
    _ZN8nlohmann16json_abi_v3_11_36detail10serializerINS0_10basic_jsonISt3mapSt6vectorNSt7__cxx1112basic_stringIcSt11char_traitsIcESaIcEEEbxydSaNS0_14adl_serializerES5_IhSaIhEEvEEE12dump_integerIxLi0EEEvT_ @348
    _ZN8nlohmann16json_abi_v3_11_36detail10serializerINS0_10basic_jsonISt3mapSt6vectorNSt7__cxx1112basic_stringIcSt11char_traitsIcESaIcEEEbxydSaNS0_14adl_serializerES5_IhSaIhEEvEEE4dumpERKSF_bbjj @349
    _ZN8nlohmann16json_abi_v3_11_36detail10serializerINS0_10basic_jsonISt3mapSt6vectorNSt7__cxx1112basic_stringIcSt11char_traitsIcESaIcEEEbxydSaNS0_14adl_serializerES5_IhSaIhEEvEEED2Ev @350
    _ZN8nlohmann16json_abi_v3_11_36detail10type_error6createIDnLi0EEES2_iRKNSt7__cxx1112basic_stringIcSt11char_traitsIcESaIcEEET_ @351
    _ZN8nlohmann16json_abi_v3_11_36detail10type_error6createIPKNS0_10basic_jsonISt3mapSt6vectorNSt7__cxx1112basic_stringIcSt11char_traitsIcESaIcEEEbxydSaNS0_14adl_serializerES6_IhSaIhEEvEELi0EEES2_iRKSC_T_ @352
    _ZN8nlohmann16json_abi_v3_11_36detail10type_error6createIPNS0_10basic_jsonISt3mapSt6vectorNSt7__cxx1112basic_stringIcSt11char_traitsIcESaIcEEEbxydSaNS0_14adl_serializerES6_IhSaIhEEvEELi0EEES2_iRKSC_T_ @353
    _ZN8nlohmann16json_abi_v3_11_36detail10type_errorD0Ev @354
    _ZN8nlohmann16json_abi_v3_11_36detail11concat_intoINSt7__cxx1112basic_stringIcSt11char_traitsIcESaIcEEERA29_KcJS8_RA5_S9_S8_ELi0EEEvRT_OT0_DpOT1_ @355
    _ZN8nlohmann16json_abi_v3_11_36detail11concat_intoINSt7__cxx1112basic_stringIcSt11char_traitsIcESaIcEEERKS8_JcS8_RA3_KcELi0EEEvRT_OT0_DpOT1_ @356
    _ZN8nlohmann16json_abi_v3_11_36detail14output_adapterIcNSt7__cxx1112basic_stringIcSt11char_traitsIcESaIcEEEED2Ev @357
    _ZN8nlohmann16json_abi_v3_11_36detail21output_string_adapterIcNSt7__cxx1112basic_stringIcSt11char_traitsIcESaIcEEEE15write_characterEc @358
    _ZN8nlohmann16json_abi_v3_11_36detail21output_string_adapterIcNSt7__cxx1112basic_stringIcSt11char_traitsIcESaIcEEEE16write_charactersEPKcy @359
    _ZN8nlohmann16json_abi_v3_11_36detail21output_string_adapterIcNSt7__cxx1112basic_stringIcSt11char_traitsIcESaIcEEEED0Ev @360
    _ZN8nlohmann16json_abi_v3_11_36detail23output_adapter_protocolIcED2Ev @361
    _ZN8nlohmann16json_abi_v3_11_36detail6concatINSt7__cxx1112basic_stringIcSt11char_traitsIcESaIcEEEJRA17_KcRKS8_cS8_RA3_S9_EEET_DpOT0_ @362
    _ZN8nlohmann16json_abi_v3_11_36detail6concatINSt7__cxx1112basic_stringIcSt11char_traitsIcESaIcEEEJRA29_KcPS9_EEET_DpOT0_ @363
    _ZN8nlohmann16json_abi_v3_11_36detail6concatINSt7__cxx1112basic_stringIcSt11char_traitsIcESaIcEEEJRA29_KcS8_RA5_S9_S8_EEET_DpOT0_ @364
    _ZN8nlohmann16json_abi_v3_11_36detail6concatINSt7__cxx1112basic_stringIcSt11char_traitsIcESaIcEEEJRA39_KcS8_EEET_DpOT0_ @365
    _ZN8nlohmann16json_abi_v3_11_36detail6concatINSt7__cxx1112basic_stringIcSt11char_traitsIcESaIcEEEJRA51_KcPS9_EEET_DpOT0_ @366
    _ZN8nlohmann16json_abi_v3_11_36detail6concatINSt7__cxx1112basic_stringIcSt11char_traitsIcESaIcEEEJRA52_KcPS9_EEET_DpOT0_ @367
    _ZN8nlohmann16json_abi_v3_11_36detail6concatINSt7__cxx1112basic_stringIcSt11char_traitsIcESaIcEEEJS8_S8_RKS8_EEET_DpOT0_ @368
    _ZN8nlohmann16json_abi_v3_11_36detail8to_charsIdEEPcS3_PKcT_ @369
    _ZN8nlohmann16json_abi_v3_11_36detail9dtoa_impl16grisu2_digit_genEPcRiS4_NS2_5diyfpES5_S5_ @370
    _ZN8nlohmann16json_abi_v3_11_36detail9dtoa_impl6grisu2IdEEvPcRiS5_T_ @371
    _ZN8nlohmann16json_abi_v3_11_36detail9exception4nameERKNSt7__cxx1112basic_stringIcSt11char_traitsIcESaIcEEEi @372
    _ZN8nlohmann16json_abi_v3_11_36detail9exceptionD0Ev @373
    _ZN8nlohmann16json_abi_v3_11_36detail9exceptionD2Ev @374
    _ZNK19cStdListUMapWatcherItNSt7__cxx114listIPN9CoRE4INET6BufferESaIS4_EEEE15getElemTypeNameEv @375
    _ZNK19cStdListUMapWatcherItNSt7__cxx114listIPN9CoRE4INET6BufferESaIS4_EEEE5atIt2Ev @376
    _ZNK29cStdCollectionUMapWatcherBaseItNSt7__cxx114listIPN9CoRE4INET6BufferESaIS4_EEEE12getClassNameEv @377
    _ZNK29cStdCollectionUMapWatcherBaseItNSt7__cxx114listIPN9CoRE4INET6BufferESaIS4_EEEE2atEi @378
    _ZNK29cStdCollectionUMapWatcherBaseItNSt7__cxx114listIPN9CoRE4INET6BufferESaIS4_EEEE4atItEv @379
    _ZNK29cStdCollectionUMapWatcherBaseItNSt7__cxx114listIPN9CoRE4INET6BufferESaIS4_EEEE4sizeEv @380
    _ZNK7CAN4CQF11PoolMessage10parsimPackEPN7omnetpp11cCommBufferE @381
    _ZNK7CAN4CQF11PoolMessage3dupEv @382
    _ZNK7CAN4CQF11PoolMessage7getPoolB5cxx11Ev @383
    _ZNK7CAN4CQF12AVBInControlINS_20IEEE8021QchInControlIN9CoRE4INET13BaseInControlEEEE5isAVBEPKN4inet10EtherFrameE @384
    _ZNK7CAN4CQF14ARTFDescriptor11doesSupportEPN7omnetpp7cObjectE @385
    _ZNK7CAN4CQF14ARTFDescriptor11getPropertyEPKc @386
    _ZNK7CAN4CQF14ARTFDescriptor12getFieldNameEi @387
    _ZNK7CAN4CQF14ARTFDescriptor13getFieldCountEv @388
    _ZNK7CAN4CQF14ARTFDescriptor13getFieldValueEN7omnetpp7any_ptrEii @389
    _ZNK7CAN4CQF14ARTFDescriptor13setFieldValueEN7omnetpp7any_ptrEiiRKNS1_6cValueE @390
    _ZNK7CAN4CQF14ARTFDescriptor16getFieldPropertyEiPKc @391
    _ZNK7CAN4CQF14ARTFDescriptor16getPropertyNamesEv @392
    _ZNK7CAN4CQF14ARTFDescriptor17getFieldArraySizeEN7omnetpp7any_ptrEi @393
    _ZNK7CAN4CQF14ARTFDescriptor17getFieldTypeFlagsEi @394
    _ZNK7CAN4CQF14ARTFDescriptor17setFieldArraySizeEN7omnetpp7any_ptrEii @395
    _ZNK7CAN4CQF14ARTFDescriptor18getFieldStructNameEi @396
    _ZNK7CAN4CQF14ARTFDescriptor18getFieldTypeStringEi @397
    _ZNK7CAN4CQF14ARTFDescriptor21getFieldPropertyNamesEi @398
    _ZNK7CAN4CQF14ARTFDescriptor21getFieldValueAsStringB5cxx11EN7omnetpp7any_ptrEii @399
    _ZNK7CAN4CQF14ARTFDescriptor21setFieldValueAsStringEN7omnetpp7any_ptrEiiPKc @400
    _ZNK7CAN4CQF14ARTFDescriptor25getFieldDynamicTypeStringEN7omnetpp7any_ptrEii @401
    _ZNK7CAN4CQF14ARTFDescriptor26getFieldStructValuePointerEN7omnetpp7any_ptrEii @402
    _ZNK7CAN4CQF14ARTFDescriptor26setFieldStructValuePointerEN7omnetpp7any_ptrEiiS2_ @403
    _ZNK7CAN4CQF14ARTFDescriptor9findFieldEPKc @404
    _ZNK7CAN4CQF14HRTFDescriptor11doesSupportEPN7omnetpp7cObjectE @405
    _ZNK7CAN4CQF14HRTFDescriptor11getPropertyEPKc @406
    _ZNK7CAN4CQF14HRTFDescriptor12getFieldNameEi @407
    _ZNK7CAN4CQF14HRTFDescriptor13getFieldCountEv @408
    _ZNK7CAN4CQF14HRTFDescriptor13getFieldValueEN7omnetpp7any_ptrEii @409
    _ZNK7CAN4CQF14HRTFDescriptor13setFieldValueEN7omnetpp7any_ptrEiiRKNS1_6cValueE @410
    _ZNK7CAN4CQF14HRTFDescriptor16getFieldPropertyEiPKc @411
    _ZNK7CAN4CQF14HRTFDescriptor16getPropertyNamesEv @412
    _ZNK7CAN4CQF14HRTFDescriptor17getFieldArraySizeEN7omnetpp7any_ptrEi @413
    _ZNK7CAN4CQF14HRTFDescriptor17getFieldTypeFlagsEi @414
    _ZNK7CAN4CQF14HRTFDescriptor17setFieldArraySizeEN7omnetpp7any_ptrEii @415
    _ZNK7CAN4CQF14HRTFDescriptor18getFieldStructNameEi @416
    _ZNK7CAN4CQF14HRTFDescriptor18getFieldTypeStringEi @417
    _ZNK7CAN4CQF14HRTFDescriptor21getFieldPropertyNamesEi @418
    _ZNK7CAN4CQF14HRTFDescriptor21getFieldValueAsStringB5cxx11EN7omnetpp7any_ptrEii @419
    _ZNK7CAN4CQF14HRTFDescriptor21setFieldValueAsStringEN7omnetpp7any_ptrEiiPKc @420
    _ZNK7CAN4CQF14HRTFDescriptor25getFieldDynamicTypeStringEN7omnetpp7any_ptrEii @421
    _ZNK7CAN4CQF14HRTFDescriptor26getFieldStructValuePointerEN7omnetpp7any_ptrEii @422
    _ZNK7CAN4CQF14HRTFDescriptor26setFieldStructValuePointerEN7omnetpp7any_ptrEiiS2_ @423
    _ZNK7CAN4CQF14HRTFDescriptor9findFieldEPKc @424
    _ZNK7CAN4CQF17IEEE8021QchBEFlow10parsimPackEPN7omnetpp11cCommBufferE @425
    _ZNK7CAN4CQF17IEEE8021QchBEFlow16getDisplayStringEv @426
    _ZNK7CAN4CQF17IEEE8021QchBEFlow3dupEv @427
    _ZNK7CAN4CQF17IEEE8021QchBEFlow5getDeEv @428
    _ZNK7CAN4CQF17IEEE8021QchBEFlow6getPcpEv @429
    _ZNK7CAN4CQF17IEEE8021QchBEFlow6getVIDEv @430
    _ZNK7CAN4CQF17IEEE8021QchTTFlow10parsimPackEPN7omnetpp11cCommBufferE @431
    _ZNK7CAN4CQF17IEEE8021QchTTFlow16getDisplayStringEv @432
    _ZNK7CAN4CQF17IEEE8021QchTTFlow3dupEv @433
    _ZNK7CAN4CQF17IEEE8021QchTTFlow5getDeEv @434
    _ZNK7CAN4CQF17IEEE8021QchTTFlow6getPcpEv @435
    _ZNK7CAN4CQF17IEEE8021QchTTFlow6getVIDEv @436
    _ZNK7CAN4CQF21PoolMessageDescriptor11doesSupportEPN7omnetpp7cObjectE @437
    _ZNK7CAN4CQF21PoolMessageDescriptor11getPropertyEPKc @438
    _ZNK7CAN4CQF21PoolMessageDescriptor12getFieldNameEi @439
    _ZNK7CAN4CQF21PoolMessageDescriptor13getFieldCountEv @440
    _ZNK7CAN4CQF21PoolMessageDescriptor13getFieldValueEN7omnetpp7any_ptrEii @441
    _ZNK7CAN4CQF21PoolMessageDescriptor13setFieldValueEN7omnetpp7any_ptrEiiRKNS1_6cValueE @442
    _ZNK7CAN4CQF21PoolMessageDescriptor16getFieldPropertyEiPKc @443
    _ZNK7CAN4CQF21PoolMessageDescriptor16getPropertyNamesEv @444
    _ZNK7CAN4CQF21PoolMessageDescriptor17getFieldArraySizeEN7omnetpp7any_ptrEi @445
    _ZNK7CAN4CQF21PoolMessageDescriptor17getFieldTypeFlagsEi @446
    _ZNK7CAN4CQF21PoolMessageDescriptor17setFieldArraySizeEN7omnetpp7any_ptrEii @447
    _ZNK7CAN4CQF21PoolMessageDescriptor18getFieldStructNameEi @448
    _ZNK7CAN4CQF21PoolMessageDescriptor18getFieldTypeStringEi @449
    _ZNK7CAN4CQF21PoolMessageDescriptor21getFieldPropertyNamesEi @450
    _ZNK7CAN4CQF21PoolMessageDescriptor21getFieldValueAsStringB5cxx11EN7omnetpp7any_ptrEii @451
    _ZNK7CAN4CQF21PoolMessageDescriptor21setFieldValueAsStringEN7omnetpp7any_ptrEiiPKc @452
    _ZNK7CAN4CQF21PoolMessageDescriptor25getFieldDynamicTypeStringEN7omnetpp7any_ptrEii @453
    _ZNK7CAN4CQF21PoolMessageDescriptor26getFieldStructValuePointerEN7omnetpp7any_ptrEii @454
    _ZNK7CAN4CQF21PoolMessageDescriptor26setFieldStructValuePointerEN7omnetpp7any_ptrEiiS2_ @455
    _ZNK7CAN4CQF21PoolMessageDescriptor9findFieldEPKc @456
    _ZNK7CAN4CQF23CircularRotationMessage3dupEv @457
    _ZNK7CAN4CQF26IEEE8021QchGateControlList13numInitStagesEv @458
    _ZNK7CAN4CQF27IEEE8021QchBEFlowDescriptor11doesSupportEPN7omnetpp7cObjectE @459
    _ZNK7CAN4CQF27IEEE8021QchBEFlowDescriptor11getPropertyEPKc @460
    _ZNK7CAN4CQF27IEEE8021QchBEFlowDescriptor12getFieldNameEi @461
    _ZNK7CAN4CQF27IEEE8021QchBEFlowDescriptor13getFieldCountEv @462
    _ZNK7CAN4CQF27IEEE8021QchBEFlowDescriptor13getFieldValueEN7omnetpp7any_ptrEii @463
    _ZNK7CAN4CQF27IEEE8021QchBEFlowDescriptor13setFieldValueEN7omnetpp7any_ptrEiiRKNS1_6cValueE @464
    _ZNK7CAN4CQF27IEEE8021QchBEFlowDescriptor16getFieldPropertyEiPKc @465
    _ZNK7CAN4CQF27IEEE8021QchBEFlowDescriptor16getPropertyNamesEv @466
    _ZNK7CAN4CQF27IEEE8021QchBEFlowDescriptor17getFieldArraySizeEN7omnetpp7any_ptrEi @467
    _ZNK7CAN4CQF27IEEE8021QchBEFlowDescriptor17getFieldTypeFlagsEi @468
    _ZNK7CAN4CQF27IEEE8021QchBEFlowDescriptor17setFieldArraySizeEN7omnetpp7any_ptrEii @469
    _ZNK7CAN4CQF27IEEE8021QchBEFlowDescriptor18getFieldStructNameEi @470
    _ZNK7CAN4CQF27IEEE8021QchBEFlowDescriptor18getFieldTypeStringEi @471
    _ZNK7CAN4CQF27IEEE8021QchBEFlowDescriptor21getFieldPropertyNamesEi @472
    _ZNK7CAN4CQF27IEEE8021QchBEFlowDescriptor21getFieldValueAsStringB5cxx11EN7omnetpp7any_ptrEii @473
    _ZNK7CAN4CQF27IEEE8021QchBEFlowDescriptor21setFieldValueAsStringEN7omnetpp7any_ptrEiiPKc @474
    _ZNK7CAN4CQF27IEEE8021QchBEFlowDescriptor25getFieldDynamicTypeStringEN7omnetpp7any_ptrEii @475
    _ZNK7CAN4CQF27IEEE8021QchBEFlowDescriptor26getFieldStructValuePointerEN7omnetpp7any_ptrEii @476
    _ZNK7CAN4CQF27IEEE8021QchBEFlowDescriptor26setFieldStructValuePointerEN7omnetpp7any_ptrEiiS2_ @477
    _ZNK7CAN4CQF27IEEE8021QchBEFlowDescriptor9findFieldEPKc @478
    _ZNK7CAN4CQF27IEEE8021QchTTFlowDescriptor11doesSupportEPN7omnetpp7cObjectE @479
    _ZNK7CAN4CQF27IEEE8021QchTTFlowDescriptor11getPropertyEPKc @480
    _ZNK7CAN4CQF27IEEE8021QchTTFlowDescriptor12getFieldNameEi @481
    _ZNK7CAN4CQF27IEEE8021QchTTFlowDescriptor13getFieldCountEv @482
    _ZNK7CAN4CQF27IEEE8021QchTTFlowDescriptor13getFieldValueEN7omnetpp7any_ptrEii @483
    _ZNK7CAN4CQF27IEEE8021QchTTFlowDescriptor13setFieldValueEN7omnetpp7any_ptrEiiRKNS1_6cValueE @484
    _ZNK7CAN4CQF27IEEE8021QchTTFlowDescriptor16getFieldPropertyEiPKc @485
    _ZNK7CAN4CQF27IEEE8021QchTTFlowDescriptor16getPropertyNamesEv @486
    _ZNK7CAN4CQF27IEEE8021QchTTFlowDescriptor17getFieldArraySizeEN7omnetpp7any_ptrEi @487
    _ZNK7CAN4CQF27IEEE8021QchTTFlowDescriptor17getFieldTypeFlagsEi @488
    _ZNK7CAN4CQF27IEEE8021QchTTFlowDescriptor17setFieldArraySizeEN7omnetpp7any_ptrEii @489
    _ZNK7CAN4CQF27IEEE8021QchTTFlowDescriptor18getFieldStructNameEi @490
    _ZNK7CAN4CQF27IEEE8021QchTTFlowDescriptor18getFieldTypeStringEi @491
    _ZNK7CAN4CQF27IEEE8021QchTTFlowDescriptor21getFieldPropertyNamesEi @492
    _ZNK7CAN4CQF27IEEE8021QchTTFlowDescriptor21getFieldValueAsStringB5cxx11EN7omnetpp7any_ptrEii @493
    _ZNK7CAN4CQF27IEEE8021QchTTFlowDescriptor21setFieldValueAsStringEN7omnetpp7any_ptrEiiPKc @494
    _ZNK7CAN4CQF27IEEE8021QchTTFlowDescriptor25getFieldDynamicTypeStringEN7omnetpp7any_ptrEii @495
    _ZNK7CAN4CQF27IEEE8021QchTTFlowDescriptor26getFieldStructValuePointerEN7omnetpp7any_ptrEii @496
    _ZNK7CAN4CQF27IEEE8021QchTTFlowDescriptor26setFieldStructValuePointerEN7omnetpp7any_ptrEiiS2_ @497
    _ZNK7CAN4CQF27IEEE8021QchTTFlowDescriptor9findFieldEPKc @498
    _ZNK7CAN4CQF28CircularRotationMessage_Base10parsimPackEPN7omnetpp11cCommBufferE @499
    _ZNK7CAN4CQF28CircularRotationMessage_Base3dupEv @500
    _ZNK7CAN4CQF33CircularRotationMessageDescriptor11doesSupportEPN7omnetpp7cObjectE @501
    _ZNK7CAN4CQF33CircularRotationMessageDescriptor11getPropertyEPKc @502
    _ZNK7CAN4CQF33CircularRotationMessageDescriptor12getFieldNameEi @503
    _ZNK7CAN4CQF33CircularRotationMessageDescriptor13getFieldCountEv @504
    _ZNK7CAN4CQF33CircularRotationMessageDescriptor13getFieldValueEN7omnetpp7any_ptrEii @505
    _ZNK7CAN4CQF33CircularRotationMessageDescriptor13setFieldValueEN7omnetpp7any_ptrEiiRKNS1_6cValueE @506
    _ZNK7CAN4CQF33CircularRotationMessageDescriptor16getFieldPropertyEiPKc @507
    _ZNK7CAN4CQF33CircularRotationMessageDescriptor16getPropertyNamesEv @508
    _ZNK7CAN4CQF33CircularRotationMessageDescriptor17getFieldArraySizeEN7omnetpp7any_ptrEi @509
    _ZNK7CAN4CQF33CircularRotationMessageDescriptor17getFieldTypeFlagsEi @510
    _ZNK7CAN4CQF33CircularRotationMessageDescriptor17setFieldArraySizeEN7omnetpp7any_ptrEii @511
    _ZNK7CAN4CQF33CircularRotationMessageDescriptor18getFieldStructNameEi @512
    _ZNK7CAN4CQF33CircularRotationMessageDescriptor18getFieldTypeStringEi @513
    _ZNK7CAN4CQF33CircularRotationMessageDescriptor21getFieldPropertyNamesEi @514
    _ZNK7CAN4CQF33CircularRotationMessageDescriptor21getFieldValueAsStringB5cxx11EN7omnetpp7any_ptrEii @515
    _ZNK7CAN4CQF33CircularRotationMessageDescriptor21setFieldValueAsStringEN7omnetpp7any_ptrEiiPKc @516
    _ZNK7CAN4CQF33CircularRotationMessageDescriptor25getFieldDynamicTypeStringEN7omnetpp7any_ptrEii @517
    _ZNK7CAN4CQF33CircularRotationMessageDescriptor26getFieldStructValuePointerEN7omnetpp7any_ptrEii @518
    _ZNK7CAN4CQF33CircularRotationMessageDescriptor26setFieldStructValuePointerEN7omnetpp7any_ptrEiiS2_ @519
    _ZNK7CAN4CQF33CircularRotationMessageDescriptor9findFieldEPKc @520
    _ZNK7CAN4CQF4ARTF13getEncapUnitsB5cxx11Ev @521
    _ZNK7CAN4CQF4ARTF3dupEv @522
    _ZNK7CAN4CQF4HRTF10parsimPackEPN7omnetpp11cCommBufferE @523
    _ZNK7CAN4CQF4HRTF11getEncapnumEv @524
    _ZNK7CAN4CQF4HRTF14getDestinationEv @525
    _ZNK7CAN4CQF4HRTF3dupEv @526
    _ZNK7CAN4CQF4HRTF9getSourceEv @527
    _ZNK7CAN4CQF6Rxgate13numInitStagesEv @528
    _ZNK7CAN4CQF9ARTF_Base10parsimPackEPN7omnetpp11cCommBufferE @529
    _ZNK7CAN4CQF9ARTF_Base14getDestinationEv @530
    _ZNK7CAN4CQF9ARTF_Base3dupEv @531
    _ZNK7CAN4CQF9ARTF_Base9getSourceEv @532
    _ZNK8nlohmann16json_abi_v3_11_310basic_jsonISt3mapSt6vectorNSt7__cxx1112basic_stringIcSt11char_traitsIcESaIcEEEbxydSaNS0_14adl_serializerES3_IhSaIhEEvE4dumpEicbNS0_6detail15error_handler_tE @533
    _ZNK8nlohmann16json_abi_v3_11_310basic_jsonISt3mapSt6vectorNSt7__cxx1112basic_stringIcSt11char_traitsIcESaIcEEEbxydSaNS0_14adl_serializerES3_IhSaIhEEvE9type_nameEv @534
    _ZNK8nlohmann16json_abi_v3_11_310basic_jsonISt3mapSt6vectorNSt7__cxx1112basic_stringIcSt11char_traitsIcESaIcEEEbxydSaNS0_14adl_serializerES3_IhSaIhEEvEixEy @535
    _ZNK8nlohmann16json_abi_v3_11_36detail9exception4whatEv @536
    _ZNSt10_HashtableItSt4pairIKtNSt7__cxx114listIPN9CoRE4INET6BufferESaIS6_EEEESaIS9_ENSt8__detail10_Select1stESt8equal_toItESt4hashItENSB_18_Mod_range_hashingENSB_20_Default_ranged_hashENSB_20_Prime_rehash_policyENSB_17_Hashtable_traitsILb0ELb0ELb1EEEE13_M_rehash_auxEySt17integral_constantIbLb1EE @537
    _ZNSt10_HashtableItSt4pairIKtNSt7__cxx114listIPN9CoRE4INET6BufferESaIS6_EEEESaIS9_ENSt8__detail10_Select1stESt8equal_toItESt4hashItENSB_18_Mod_range_hashingENSB_20_Default_ranged_hashENSB_20_Prime_rehash_policyENSB_17_Hashtable_traitsILb0ELb0ELb1EEEE21_M_insert_unique_nodeEyyPNSB_10_Hash_nodeIS9_Lb0EEEy @538
    _ZNSt12__shared_ptrIN8nlohmann16json_abi_v3_11_36detail23output_adapter_protocolIcEELN9__gnu_cxx12_Lock_policyE2EED2Ev @539
    _ZNSt13unordered_mapItNSt7__cxx114listIPN9CoRE4INET6BufferESaIS4_EEESt4hashItESt8equal_toItESaISt4pairIKtS6_EEEixEOt @540
    _ZNSt15__new_allocatorISt6vectorIN8nlohmann16json_abi_v3_11_310basic_jsonISt3mapS0_NSt7__cxx1112basic_stringIcSt11char_traitsIcESaIcEEEbxydSaNS2_14adl_serializerES0_IhSaIhEEvEESaISE_EEE7destroyISG_EEvPT_ @541
    _ZNSt16_Sp_counted_baseILN9__gnu_cxx12_Lock_policyE2EED2Ev @542
    _ZNSt16allocator_traitsISaIN8nlohmann16json_abi_v3_11_310basic_jsonISt3mapSt6vectorNSt7__cxx1112basic_stringIcSt11char_traitsIcESaIcEEEbxydSaNS1_14adl_serializerES4_IhSaIhEEvEEEE7destroyISE_EEvRSF_PT_ @543
    _ZNSt20__uninitialized_copyILb0EE13__uninit_copyIPKN8nlohmann16json_abi_v3_11_36detail8json_refINS3_10basic_jsonISt3mapSt6vectorNSt7__cxx1112basic_stringIcSt11char_traitsIcESaIcEEEbxydSaNS3_14adl_serializerES8_IhSaIhEEvEEEEPSI_EET0_T_SO_SN_ @544
    _ZNSt23_Sp_counted_ptr_inplaceIN8nlohmann16json_abi_v3_11_36detail21output_string_adapterIcNSt7__cxx1112basic_stringIcSt11char_traitsIcESaIcEEEEESaIvELN9__gnu_cxx12_Lock_policyE2EE10_M_destroyEv @545
    _ZNSt23_Sp_counted_ptr_inplaceIN8nlohmann16json_abi_v3_11_36detail21output_string_adapterIcNSt7__cxx1112basic_stringIcSt11char_traitsIcESaIcEEEEESaIvELN9__gnu_cxx12_Lock_policyE2EE10_M_disposeEv @546
    _ZNSt23_Sp_counted_ptr_inplaceIN8nlohmann16json_abi_v3_11_36detail21output_string_adapterIcNSt7__cxx1112basic_stringIcSt11char_traitsIcESaIcEEEEESaIvELN9__gnu_cxx12_Lock_policyE2EE14_M_get_deleterERKSt9type_info @547
    _ZNSt23_Sp_counted_ptr_inplaceIN8nlohmann16json_abi_v3_11_36detail21output_string_adapterIcNSt7__cxx1112basic_stringIcSt11char_traitsIcESaIcEEEEESaIvELN9__gnu_cxx12_Lock_policyE2EED0Ev @548
    _ZNSt3mapIPN10FiCo4OMNeT12CanDataFrameEN7omnetpp7SimTimeESt4lessIS2_ESaISt4pairIKS2_S4_EEED2Ev @549
    _ZNSt3mapIPN10FiCo4OMNeT12CanDataFrameEdSt4lessIS2_ESaISt4pairIKS2_dEEED2Ev @550
    _ZNSt3mapIiN7CAN4CQF22CircularRotationBuffer14wcrt_data_infoESt4lessIiESaISt4pairIKiS2_EEED2Ev @551
    _ZNSt3mapIiPNSt7__cxx114listIPN7omnetpp8cMessageESaIS4_EEESt4lessIiESaISt4pairIKiS7_EEED2Ev @552
    _ZNSt6vectorIN7CAN4CQF22CircularRotationBuffer9canfdInfoESaIS2_EE17_M_realloc_insertIJRKS2_EEEvN9__gnu_cxx17__normal_iteratorIPS2_S4_EEDpOT_ @553
    _ZNSt6vectorIN7CAN4CQF22CircularRotationBuffer9canfdInfoESaIS2_EED2Ev @554
    _ZNSt6vectorIN7CAN4CQF24RAEGatewayTransformation10order_infoESaIS2_EE17_M_realloc_insertIJRKS2_EEEvN9__gnu_cxx17__normal_iteratorIPS2_S4_EEDpOT_ @555
    _ZNSt6vectorIN8nlohmann16json_abi_v3_11_310basic_jsonISt3mapS_NSt7__cxx1112basic_stringIcSt11char_traitsIcESaIcEEEbxydSaNS1_14adl_serializerES_IhSaIhEEvEESaISD_EE17_M_realloc_insertIJRKSD_EEEvN9__gnu_cxx17__normal_iteratorIPSD_SF_EEDpOT_ @556
    _ZNSt6vectorIN8nlohmann16json_abi_v3_11_310basic_jsonISt3mapS_NSt7__cxx1112basic_stringIcSt11char_traitsIcESaIcEEEbxydSaNS1_14adl_serializerES_IhSaIhEEvEESaISD_EE17_M_realloc_insertIJSD_EEEvN9__gnu_cxx17__normal_iteratorIPSD_SF_EEDpOT_ @557
    _ZNSt6vectorIN8nlohmann16json_abi_v3_11_310basic_jsonISt3mapS_NSt7__cxx1112basic_stringIcSt11char_traitsIcESaIcEEEbxydSaNS1_14adl_serializerES_IhSaIhEEvEESaISD_EE7reserveEy @558
    _ZNSt6vectorIN8nlohmann16json_abi_v3_11_310basic_jsonISt3mapS_NSt7__cxx1112basic_stringIcSt11char_traitsIcESaIcEEEbxydSaNS1_14adl_serializerES_IhSaIhEEvEESaISD_EEC2ERKSF_ @559
    _ZNSt6vectorIN8nlohmann16json_abi_v3_11_310basic_jsonISt3mapS_NSt7__cxx1112basic_stringIcSt11char_traitsIcESaIcEEEbxydSaNS1_14adl_serializerES_IhSaIhEEvEESaISD_EED2Ev @560
    _ZNSt7__cxx114stoiERKNS_12basic_stringIcSt11char_traitsIcESaIcEEEPyi @561
    _ZNSt8_Rb_treeINSt7__cxx1112basic_stringIcSt11char_traitsIcESaIcEEESt4pairIKS5_N8nlohmann16json_abi_v3_11_310basic_jsonISt3mapSt6vectorS5_bxydSaNS9_14adl_serializerESC_IhSaIhEEvEEESt10_Select1stISH_ESt4lessIvESaISH_EE10_Auto_nodeD2Ev @562
    _ZNSt8_Rb_treeINSt7__cxx1112basic_stringIcSt11char_traitsIcESaIcEEESt4pairIKS5_N8nlohmann16json_abi_v3_11_310basic_jsonISt3mapSt6vectorS5_bxydSaNS9_14adl_serializerESC_IhSaIhEEvEEESt10_Select1stISH_ESt4lessIvESaISH_EE17_M_construct_nodeIJRKSH_EEEvPSt13_Rb_tree_nodeISH_EDpOT_ @563
    _ZNSt8_Rb_treeINSt7__cxx1112basic_stringIcSt11char_traitsIcESaIcEEESt4pairIKS5_N8nlohmann16json_abi_v3_11_310basic_jsonISt3mapSt6vectorS5_bxydSaNS9_14adl_serializerESC_IhSaIhEEvEEESt10_Select1stISH_ESt4lessIvESaISH_EE17_M_emplace_uniqueIJS5_DnEEES6_ISt17_Rb_tree_iteratorISH_EbEDpOT_ @564
    _ZNSt8_Rb_treeINSt7__cxx1112basic_stringIcSt11char_traitsIcESaIcEEESt4pairIKS5_N8nlohmann16json_abi_v3_11_310basic_jsonISt3mapSt6vectorS5_bxydSaNS9_14adl_serializerESC_IhSaIhEEvEEESt10_Select1stISH_ESt4lessIvESaISH_EE24_M_get_insert_unique_posERS7_ @565
    _ZNSt8_Rb_treeINSt7__cxx1112basic_stringIcSt11char_traitsIcESaIcEEESt4pairIKS5_N8nlohmann16json_abi_v3_11_310basic_jsonISt3mapSt6vectorS5_bxydSaNS9_14adl_serializerESC_IhSaIhEEvEEESt10_Select1stISH_ESt4lessIvESaISH_EE7_M_copyILb0ENSN_11_Alloc_nodeEEEPSt13_Rb_tree_nodeISH_ESS_PSt18_Rb_tree_node_baseRT0_ @566
    _ZNSt8_Rb_treeINSt7__cxx1112basic_stringIcSt11char_traitsIcESaIcEEESt4pairIKS5_N8nlohmann16json_abi_v3_11_310basic_jsonISt3mapSt6vectorS5_bxydSaNS9_14adl_serializerESC_IhSaIhEEvEEESt10_Select1stISH_ESt4lessIvESaISH_EE8_M_eraseEPSt13_Rb_tree_nodeISH_E @567
    _ZNSt8_Rb_treeINSt7__cxx1112basic_stringIcSt11char_traitsIcESaIcEEESt4pairIKS5_N8nlohmann16json_abi_v3_11_310basic_jsonISt3mapSt6vectorS5_bxydSaNS9_14adl_serializerESC_IhSaIhEEvEEESt10_Select1stISH_ESt4lessIvESaISH_EED2Ev @568
    _ZNSt8_Rb_treeIPN10FiCo4OMNeT12CanDataFrameESt4pairIKS2_N7omnetpp7SimTimeEESt10_Select1stIS7_ESt4lessIS2_ESaIS7_EE22_M_emplace_hint_uniqueIJRKSt21piecewise_construct_tSt5tupleIJRS4_EESI_IJEEEEESt17_Rb_tree_iteratorIS7_ESt23_Rb_tree_const_iteratorIS7_EDpOT_ @569
    _ZNSt8_Rb_treeIPN10FiCo4OMNeT12CanDataFrameESt4pairIKS2_N7omnetpp7SimTimeEESt10_Select1stIS7_ESt4lessIS2_ESaIS7_EE29_M_get_insert_hint_unique_posESt23_Rb_tree_const_iteratorIS7_ERS4_ @570
    _ZNSt8_Rb_treeIPN10FiCo4OMNeT12CanDataFrameESt4pairIKS2_N7omnetpp7SimTimeEESt10_Select1stIS7_ESt4lessIS2_ESaIS7_EE5eraseERS4_ @571
    _ZNSt8_Rb_treeIPN10FiCo4OMNeT12CanDataFrameESt4pairIKS2_N7omnetpp7SimTimeEESt10_Select1stIS7_ESt4lessIS2_ESaIS7_EE7_M_copyILb0ENSD_11_Alloc_nodeEEEPSt13_Rb_tree_nodeIS7_ESI_PSt18_Rb_tree_node_baseRT0_ @572
    _ZNSt8_Rb_treeIPN10FiCo4OMNeT12CanDataFrameESt4pairIKS2_N7omnetpp7SimTimeEESt10_Select1stIS7_ESt4lessIS2_ESaIS7_EE8_M_eraseEPSt13_Rb_tree_nodeIS7_E @573
    _ZNSt8_Rb_treeIPN10FiCo4OMNeT12CanDataFrameESt4pairIKS2_dESt10_Select1stIS5_ESt4lessIS2_ESaIS5_EE20_Reuse_or_alloc_nodeD2Ev @574
    _ZNSt8_Rb_treeIPN10FiCo4OMNeT12CanDataFrameESt4pairIKS2_dESt10_Select1stIS5_ESt4lessIS2_ESaIS5_EE22_M_emplace_hint_uniqueIJRKSt21piecewise_construct_tSt5tupleIJRS4_EESG_IJEEEEESt17_Rb_tree_iteratorIS5_ESt23_Rb_tree_const_iteratorIS5_EDpOT_ @575
    _ZNSt8_Rb_treeIPN10FiCo4OMNeT12CanDataFrameESt4pairIKS2_dESt10_Select1stIS5_ESt4lessIS2_ESaIS5_EE29_M_get_insert_hint_unique_posESt23_Rb_tree_const_iteratorIS5_ERS4_ @576
    _ZNSt8_Rb_treeIPN10FiCo4OMNeT12CanDataFrameESt4pairIKS2_dESt10_Select1stIS5_ESt4lessIS2_ESaIS5_EE7_M_copyILb0ENSB_11_Alloc_nodeEEEPSt13_Rb_tree_nodeIS5_ESG_PSt18_Rb_tree_node_baseRT0_ @577
    _ZNSt8_Rb_treeIPN10FiCo4OMNeT12CanDataFrameESt4pairIKS2_dESt10_Select1stIS5_ESt4lessIS2_ESaIS5_EE7_M_copyILb0ENSB_20_Reuse_or_alloc_nodeEEEPSt13_Rb_tree_nodeIS5_ESG_PSt18_Rb_tree_node_baseRT0_ @578
    _ZNSt8_Rb_treeIPN10FiCo4OMNeT12CanDataFrameESt4pairIKS2_dESt10_Select1stIS5_ESt4lessIS2_ESaIS5_EE8_M_eraseEPSt13_Rb_tree_nodeIS5_E @579
    _ZNSt8_Rb_treeIPN10FiCo4OMNeT12CanDataFrameESt4pairIKS2_dESt10_Select1stIS5_ESt4lessIS2_ESaIS5_EEaSERKSB_ @580
    _ZNSt8_Rb_treeIiSt4pairIKiN7CAN4CQF22CircularRotationBuffer14wcrt_data_infoEESt10_Select1stIS5_ESt4lessIiESaIS5_EE22_M_emplace_hint_uniqueIJRKSt21piecewise_construct_tSt5tupleIJRS1_EESG_IJEEEEESt17_Rb_tree_iteratorIS5_ESt23_Rb_tree_const_iteratorIS5_EDpOT_ @581
    _ZNSt8_Rb_treeIiSt4pairIKiN7CAN4CQF22CircularRotationBuffer14wcrt_data_infoEESt10_Select1stIS5_ESt4lessIiESaIS5_EE29_M_get_insert_hint_unique_posESt23_Rb_tree_const_iteratorIS5_ERS1_ @582
    _ZNSt8_Rb_treeIiSt4pairIKiN7CAN4CQF22CircularRotationBuffer14wcrt_data_infoEESt10_Select1stIS5_ESt4lessIiESaIS5_EE8_M_eraseEPSt13_Rb_tree_nodeIS5_E @583
    _ZNSt8_Rb_treeIiSt4pairIKiPNSt7__cxx114listIPN7omnetpp8cMessageESaIS6_EEEESt10_Select1stISA_ESt4lessIiESaISA_EE22_M_emplace_hint_uniqueIJRKSt21piecewise_construct_tSt5tupleIJOiEESL_IJEEEEESt17_Rb_tree_iteratorISA_ESt23_Rb_tree_const_iteratorISA_EDpOT_ @584
    _ZNSt8_Rb_treeIiSt4pairIKiPNSt7__cxx114listIPN7omnetpp8cMessageESaIS6_EEEESt10_Select1stISA_ESt4lessIiESaISA_EE29_M_get_insert_hint_unique_posESt23_Rb_tree_const_iteratorISA_ERS1_ @585
    _ZNSt8_Rb_treeIiSt4pairIKiPNSt7__cxx114listIPN7omnetpp8cMessageESaIS6_EEEESt10_Select1stISA_ESt4lessIiESaISA_EE8_M_eraseEPSt13_Rb_tree_nodeISA_E @586
    _ZNSt8_Rb_treeIjSt4pairIKjNSt7__cxx114listIN7CAN4CQF21GatewayTransformation5QInfoESaIS6_EEEESt10_Select1stIS9_ESt4lessIjESaIS9_EE10_Auto_nodeD2Ev @587
    _ZNSt8_Rb_treeIjSt4pairIKjNSt7__cxx114listIN7CAN4CQF21GatewayTransformation5QInfoESaIS6_EEEESt10_Select1stIS9_ESt4lessIjESaIS9_EE22_M_emplace_hint_uniqueIJRKSt21piecewise_construct_tSt5tupleIJOjEESK_IJEEEEESt17_Rb_tree_iteratorIS9_ESt23_Rb_tree_const_iteratorIS9_EDpOT_ @588
    _ZNSt8_Rb_treeIjSt4pairIKjNSt7__cxx114listIN7CAN4CQF21GatewayTransformation5QInfoESaIS6_EEEESt10_Select1stIS9_ESt4lessIjESaIS9_EE29_M_get_insert_hint_unique_posESt23_Rb_tree_const_iteratorIS9_ERS1_ @589
    _ZNSt8_Rb_treeIjSt4pairIKjNSt7__cxx114listIN7CAN4CQF21GatewayTransformation5QInfoESaIS6_EEEESt10_Select1stIS9_ESt4lessIjESaIS9_EE8_M_eraseEPSt13_Rb_tree_nodeIS9_E @590
    _ZNSt8_Rb_treeIjSt4pairIKjNSt7__cxx114listIN7CAN4CQF24EDFGatewayTransformation5QInfoESaIS6_EEEESt10_Select1stIS9_ESt4lessIjESaIS9_EE10_Auto_nodeD2Ev @591
    _ZNSt8_Rb_treeIjSt4pairIKjNSt7__cxx114listIN7CAN4CQF24EDFGatewayTransformation5QInfoESaIS6_EEEESt10_Select1stIS9_ESt4lessIjESaIS9_EE22_M_emplace_hint_uniqueIJRKSt21piecewise_construct_tSt5tupleIJOjEESK_IJEEEEESt17_Rb_tree_iteratorIS9_ESt23_Rb_tree_const_iteratorIS9_EDpOT_ @592
    _ZNSt8_Rb_treeIjSt4pairIKjNSt7__cxx114listIN7CAN4CQF24EDFGatewayTransformation5QInfoESaIS6_EEEESt10_Select1stIS9_ESt4lessIjESaIS9_EE29_M_get_insert_hint_unique_posESt23_Rb_tree_const_iteratorIS9_ERS1_ @593
    _ZNSt8_Rb_treeIjSt4pairIKjNSt7__cxx114listIN7CAN4CQF24EDFGatewayTransformation5QInfoESaIS6_EEEESt10_Select1stIS9_ESt4lessIjESaIS9_EE8_M_eraseEPSt13_Rb_tree_nodeIS9_E @594
    _ZNSt8_Rb_treeIjSt4pairIKjNSt7__cxx114listIN7CAN4CQF24RAEGatewayTransformation5QInfoESaIS6_EEEESt10_Select1stIS9_ESt4lessIjESaIS9_EE10_Auto_nodeD2Ev @595
    _ZNSt8_Rb_treeIjSt4pairIKjNSt7__cxx114listIN7CAN4CQF24RAEGatewayTransformation5QInfoESaIS6_EEEESt10_Select1stIS9_ESt4lessIjESaIS9_EE22_M_emplace_hint_uniqueIJRKSt21piecewise_construct_tSt5tupleIJOjEESK_IJEEEEESt17_Rb_tree_iteratorIS9_ESt23_Rb_tree_const_iteratorIS9_EDpOT_ @596
    _ZNSt8_Rb_treeIjSt4pairIKjNSt7__cxx114listIN7CAN4CQF24RAEGatewayTransformation5QInfoESaIS6_EEEESt10_Select1stIS9_ESt4lessIjESaIS9_EE29_M_get_insert_hint_unique_posESt23_Rb_tree_const_iteratorIS9_ERS1_ @597
    _ZNSt8_Rb_treeIjSt4pairIKjNSt7__cxx114listIN7CAN4CQF24RAEGatewayTransformation5QInfoESaIS6_EEEESt10_Select1stIS9_ESt4lessIjESaIS9_EE8_M_eraseEPSt13_Rb_tree_nodeIS9_E @598
    _ZNSt8_Rb_treeIjSt4pairIKjNSt7__cxx114listIN7CAN4CQF24VarGatewayTransformation5QInfoESaIS6_EEEESt10_Select1stIS9_ESt4lessIjESaIS9_EE10_Auto_nodeD2Ev @599
    _ZNSt8_Rb_treeIjSt4pairIKjNSt7__cxx114listIN7CAN4CQF24VarGatewayTransformation5QInfoESaIS6_EEEESt10_Select1stIS9_ESt4lessIjESaIS9_EE22_M_emplace_hint_uniqueIJRKSt21piecewise_construct_tSt5tupleIJOjEESK_IJEEEEESt17_Rb_tree_iteratorIS9_ESt23_Rb_tree_const_iteratorIS9_EDpOT_ @600
    _ZNSt8_Rb_treeIjSt4pairIKjNSt7__cxx114listIN7CAN4CQF24VarGatewayTransformation5QInfoESaIS6_EEEESt10_Select1stIS9_ESt4lessIjESaIS9_EE29_M_get_insert_hint_unique_posESt23_Rb_tree_const_iteratorIS9_ERS1_ @601
    _ZNSt8_Rb_treeIjSt4pairIKjNSt7__cxx114listIN7CAN4CQF24VarGatewayTransformation5QInfoESaIS6_EEEESt10_Select1stIS9_ESt4lessIjESaIS9_EE8_M_eraseEPSt13_Rb_tree_nodeIS9_E @602
    _ZNSt8_Rb_treeIjSt4pairIKjNSt7__cxx114listIN7CAN4CQF28TimeoutGatewayTransformation5QInfoESaIS6_EEEESt10_Select1stIS9_ESt4lessIjESaIS9_EE10_Auto_nodeD2Ev @603
    _ZNSt8_Rb_treeIjSt4pairIKjNSt7__cxx114listIN7CAN4CQF28TimeoutGatewayTransformation5QInfoESaIS6_EEEESt10_Select1stIS9_ESt4lessIjESaIS9_EE22_M_emplace_hint_uniqueIJRKSt21piecewise_construct_tSt5tupleIJOjEESK_IJEEEEESt17_Rb_tree_iteratorIS9_ESt23_Rb_tree_const_iteratorIS9_EDpOT_ @604
    _ZNSt8_Rb_treeIjSt4pairIKjNSt7__cxx114listIN7CAN4CQF28TimeoutGatewayTransformation5QInfoESaIS6_EEEESt10_Select1stIS9_ESt4lessIjESaIS9_EE29_M_get_insert_hint_unique_posESt23_Rb_tree_const_iteratorIS9_ERS1_ @605
    _ZNSt8_Rb_treeIjSt4pairIKjNSt7__cxx114listIN7CAN4CQF28TimeoutGatewayTransformation5QInfoESaIS6_EEEESt10_Select1stIS9_ESt4lessIjESaIS9_EE8_M_eraseEPSt13_Rb_tree_nodeIS9_E @606
    _ZSt4moveIN9__gnu_cxx17__normal_iteratorIPN8nlohmann16json_abi_v3_11_310basic_jsonISt3mapSt6vectorNSt7__cxx1112basic_stringIcSt11char_traitsIcESaIcEEEbxydSaNS3_14adl_serializerES6_IhSaIhEEvEES6_ISG_SaISG_EEEESt20back_insert_iteratorISJ_EET0_T_SO_SN_ @607
    _ZSt8_DestroyIPN8nlohmann16json_abi_v3_11_310basic_jsonISt3mapSt6vectorNSt7__cxx1112basic_stringIcSt11char_traitsIcESaIcEEEbxydSaNS1_14adl_serializerES4_IhSaIhEEvEEEvT_SG_ @608
    _ZSt9__find_ifIPKN8nlohmann16json_abi_v3_11_36detail8json_refINS1_10basic_jsonISt3mapSt6vectorNSt7__cxx1112basic_stringIcSt11char_traitsIcESaIcEEEbxydSaNS1_14adl_serializerES6_IhSaIhEEvEEEEN9__gnu_cxx5__ops12_Iter_negateIZNSG_C1ESt16initializer_listISH_EbNS2_7value_tEEUlRSI_E_EEET_ST_ST_T0_St26random_access_iterator_tag @609
    _ZTCN7CAN4CQF12AVBInControlINS_20IEEE8021QchInControlIN9CoRE4INET13BaseInControlEEEEE0_NS1_IS3_EE @610 DATA
    _ZTCN7CAN4CQF12BE_InControlE0_N9CoRE4INET11BEInControlINS0_13BaseInControlEEE @611 DATA
    _ZTCN7CAN4CQF12BE_InControlE0_N9CoRE4INET13BaseInControlE @612 DATA
    _ZTCN7CAN4CQF12BE_InControlE0_N9CoRE4INET5TimedE @613 DATA
    _ZTCN7CAN4CQF17TTApplicationBaseE64_N9CoRE4INET15ApplicationBaseE @614 DATA
    _ZTCN7CAN4CQF19AVB_8021Q_InControlE0_N9CoRE4INET13BaseInControlE @615 DATA
    _ZTCN7CAN4CQF19AVB_8021Q_InControlE0_N9CoRE4INET5TimedE @616 DATA
    _ZTCN7CAN4CQF19AVB_8021Q_InControlE0_NS_12AVBInControlINS_20IEEE8021QchInControlIN9CoRE4INET13BaseInControlEEEEE @617 DATA
    _ZTCN7CAN4CQF19AVB_8021Q_InControlE0_NS_20IEEE8021QchInControlIN9CoRE4INET13BaseInControlEEE @618 DATA
    _ZTCN7CAN4CQF21IEEE8021Qch_InControlE0_N9CoRE4INET13BaseInControlE @619 DATA
    _ZTCN7CAN4CQF21IEEE8021Qch_InControlE0_N9CoRE4INET5TimedE @620 DATA
    _ZTCN7CAN4CQF21IEEE8021Qch_InControlE0_NS_20IEEE8021QchInControlIN9CoRE4INET13BaseInControlEEE @621 DATA
    _ZTCN7CAN4CQF26EthernetGatewayApplicationE72_N9CoRE4INET15ApplicationBaseE @622 DATA
    _ZTCN7CAN4CQF26EthernetGatewayApplicationE8_NS_17TTApplicationBaseE @623 DATA
    _ZTCN7CAN4CQF26IEEE8021QchGateControlListE112_N9CoRE4INET5TimedE @624 DATA
    _ZTCN7CAN4CQF26IEEE8021QchGateControlListE112_N9CoRE4INET9ScheduledE @625 DATA
    _ZTCN7CAN4CQF6RxgateE104_N9CoRE4INET5TimedE @626 DATA
    _ZTCN7CAN4CQF6RxgateE104_N9CoRE4INET9ScheduledE @627 DATA
    _ZTI19cStdListUMapWatcherItNSt7__cxx114listIPN9CoRE4INET6BufferESaIS4_EEEE @628 DATA
    _ZTI29cStdCollectionUMapWatcherBaseItNSt7__cxx114listIPN9CoRE4INET6BufferESaIS4_EEEE @629 DATA
    _ZTIN7CAN4CQF11PoolMessageE @630 DATA
    _ZTIN7CAN4CQF12AVBInControlINS_20IEEE8021QchInControlIN9CoRE4INET13BaseInControlEEEEE @631 DATA
    _ZTIN7CAN4CQF12BE_InControlE @632 DATA
    _ZTIN7CAN4CQF14ARTFDescriptorE @633 DATA
    _ZTIN7CAN4CQF14HRTFDescriptorE @634 DATA
    _ZTIN7CAN4CQF17BaseGatewayRouterE @635 DATA
    _ZTIN7CAN4CQF17IEEE8021QchBEFlowE @636 DATA
    _ZTIN7CAN4CQF17IEEE8021QchTTFlowE @637 DATA
    _ZTIN7CAN4CQF17TTApplicationBaseE @638 DATA
    _ZTIN7CAN4CQF18NoGatewayBufferingE @639 DATA
    _ZTIN7CAN4CQF19AVB_8021Q_InControlE @640 DATA
    _ZTIN7CAN4CQF19IEEE8021QchQueueingE @641 DATA
    _ZTIN7CAN4CQF20IEEE8021QchInControlIN9CoRE4INET13BaseInControlEEE @642 DATA
    _ZTIN7CAN4CQF21GatewayTransformationE @643 DATA
    _ZTIN7CAN4CQF21IEEE8021Qch_InControlE @644 DATA
    _ZTIN7CAN4CQF21PoolMessageDescriptorE @645 DATA
    _ZTIN7CAN4CQF22CircularRotationBufferE @646 DATA
    _ZTIN7CAN4CQF23CircularRotationMessageE @647 DATA
    _ZTIN7CAN4CQF23NoGatewayTransformationE @648 DATA
    _ZTIN7CAN4CQF24EDFGatewayTransformationE @649 DATA
    _ZTIN7CAN4CQF24RAEGatewayTransformationE @650 DATA
    _ZTIN7CAN4CQF24VarGatewayTransformationE @651 DATA
    _ZTIN7CAN4CQF26EthernetGatewayApplicationE @652 DATA
    _ZTIN7CAN4CQF26IEEE8021QchGateControlListE @653 DATA
    _ZTIN7CAN4CQF27AggregationGatewayBufferingE @654 DATA
    _ZTIN7CAN4CQF27IEEE8021QchBEFlowDescriptorE @655 DATA
    _ZTIN7CAN4CQF27IEEE8021QchTTFlowDescriptorE @656 DATA
    _ZTIN7CAN4CQF28CircularRotationMessage_BaseE @657 DATA
    _ZTIN7CAN4CQF28TimeoutGatewayTransformationE @658 DATA
    _ZTIN7CAN4CQF33CircularRotationMessageDescriptorE @659 DATA
    _ZTIN7CAN4CQF33ResortAggregationGatewayBufferingE @660 DATA
    _ZTIN7CAN4CQF4ARTFE @661 DATA
    _ZTIN7CAN4CQF4HRTFE @662 DATA
    _ZTIN7CAN4CQF6RxgateE @663 DATA
    _ZTIN7CAN4CQF9ARTF_BaseE @664 DATA
    _ZTIN8nlohmann16json_abi_v3_11_36detail10type_errorE @665 DATA
    _ZTIN8nlohmann16json_abi_v3_11_36detail21output_string_adapterIcNSt7__cxx1112basic_stringIcSt11char_traitsIcESaIcEEEEE @666 DATA
    _ZTIN8nlohmann16json_abi_v3_11_36detail23output_adapter_protocolIcEE @667 DATA
    _ZTIN8nlohmann16json_abi_v3_11_36detail9exceptionE @668 DATA
    _ZTINSt7__cxx1110_List_baseIPN9CoRE4INET6BufferESaIS3_EEE @669 DATA
    _ZTINSt7__cxx114listIPN9CoRE4INET6BufferESaIS3_EEE @670 DATA
    _ZTIPN7CAN4CQF11PoolMessageE @671 DATA
    _ZTIPN7CAN4CQF17IEEE8021QchBEFlowE @672 DATA
    _ZTIPN7CAN4CQF17IEEE8021QchTTFlowE @673 DATA
    _ZTIPN7CAN4CQF28CircularRotationMessage_BaseE @674 DATA
    _ZTIPN7CAN4CQF4HRTFE @675 DATA
    _ZTIPN7CAN4CQF9ARTF_BaseE @676 DATA
    _ZTISt23_Sp_counted_ptr_inplaceIN8nlohmann16json_abi_v3_11_36detail21output_string_adapterIcNSt7__cxx1112basic_stringIcSt11char_traitsIcESaIcEEEEESaIvELN9__gnu_cxx12_Lock_policyE2EE @677 DATA
    _ZTS19cStdListUMapWatcherItNSt7__cxx114listIPN9CoRE4INET6BufferESaIS4_EEEE @678 DATA
    _ZTS29cStdCollectionUMapWatcherBaseItNSt7__cxx114listIPN9CoRE4INET6BufferESaIS4_EEEE @679 DATA
    _ZTSN7CAN4CQF11PoolMessageE @680 DATA
    _ZTSN7CAN4CQF12AVBInControlINS_20IEEE8021QchInControlIN9CoRE4INET13BaseInControlEEEEE @681 DATA
    _ZTSN7CAN4CQF12BE_InControlE @682 DATA
    _ZTSN7CAN4CQF14ARTFDescriptorE @683 DATA
    _ZTSN7CAN4CQF14HRTFDescriptorE @684 DATA
    _ZTSN7CAN4CQF17BaseGatewayRouterE @685 DATA
    _ZTSN7CAN4CQF17IEEE8021QchBEFlowE @686 DATA
    _ZTSN7CAN4CQF17IEEE8021QchTTFlowE @687 DATA
    _ZTSN7CAN4CQF17TTApplicationBaseE @688 DATA
    _ZTSN7CAN4CQF18NoGatewayBufferingE @689 DATA
    _ZTSN7CAN4CQF19AVB_8021Q_InControlE @690 DATA
    _ZTSN7CAN4CQF19IEEE8021QchQueueingE @691 DATA
    _ZTSN7CAN4CQF20IEEE8021QchInControlIN9CoRE4INET13BaseInControlEEE @692 DATA
    _ZTSN7CAN4CQF21GatewayTransformationE @693 DATA
    _ZTSN7CAN4CQF21IEEE8021Qch_InControlE @694 DATA
    _ZTSN7CAN4CQF21PoolMessageDescriptorE @695 DATA
    _ZTSN7CAN4CQF22CircularRotationBufferE @696 DATA
    _ZTSN7CAN4CQF23CircularRotationMessageE @697 DATA
    _ZTSN7CAN4CQF23NoGatewayTransformationE @698 DATA
    _ZTSN7CAN4CQF24EDFGatewayTransformationE @699 DATA
    _ZTSN7CAN4CQF24RAEGatewayTransformationE @700 DATA
    _ZTSN7CAN4CQF24VarGatewayTransformationE @701 DATA
    _ZTSN7CAN4CQF26EthernetGatewayApplicationE @702 DATA
    _ZTSN7CAN4CQF26IEEE8021QchGateControlListE @703 DATA
    _ZTSN7CAN4CQF27AggregationGatewayBufferingE @704 DATA
    _ZTSN7CAN4CQF27IEEE8021QchBEFlowDescriptorE @705 DATA
    _ZTSN7CAN4CQF27IEEE8021QchTTFlowDescriptorE @706 DATA
    _ZTSN7CAN4CQF28CircularRotationMessage_BaseE @707 DATA
    _ZTSN7CAN4CQF28TimeoutGatewayTransformationE @708 DATA
    _ZTSN7CAN4CQF33CircularRotationMessageDescriptorE @709 DATA
    _ZTSN7CAN4CQF33ResortAggregationGatewayBufferingE @710 DATA
    _ZTSN7CAN4CQF4ARTFE @711 DATA
    _ZTSN7CAN4CQF4HRTFE @712 DATA
    _ZTSN7CAN4CQF6RxgateE @713 DATA
    _ZTSN7CAN4CQF9ARTF_BaseE @714 DATA
    _ZTSN8nlohmann16json_abi_v3_11_36detail10type_errorE @715 DATA
    _ZTSN8nlohmann16json_abi_v3_11_36detail21output_string_adapterIcNSt7__cxx1112basic_stringIcSt11char_traitsIcESaIcEEEEE @716 DATA
    _ZTSN8nlohmann16json_abi_v3_11_36detail23output_adapter_protocolIcEE @717 DATA
    _ZTSN8nlohmann16json_abi_v3_11_36detail9exceptionE @718 DATA
    _ZTSNSt7__cxx1110_List_baseIPN9CoRE4INET6BufferESaIS3_EEE @719 DATA
    _ZTSNSt7__cxx114listIPN9CoRE4INET6BufferESaIS3_EEE @720 DATA
    _ZTSPN7CAN4CQF11PoolMessageE @721 DATA
    _ZTSPN7CAN4CQF17IEEE8021QchBEFlowE @722 DATA
    _ZTSPN7CAN4CQF17IEEE8021QchTTFlowE @723 DATA
    _ZTSPN7CAN4CQF28CircularRotationMessage_BaseE @724 DATA
    _ZTSPN7CAN4CQF4HRTFE @725 DATA
    _ZTSPN7CAN4CQF9ARTF_BaseE @726 DATA
    _ZTSSt23_Sp_counted_ptr_inplaceIN8nlohmann16json_abi_v3_11_36detail21output_string_adapterIcNSt7__cxx1112basic_stringIcSt11char_traitsIcESaIcEEEEESaIvELN9__gnu_cxx12_Lock_policyE2EE @727 DATA
    _ZTTN7CAN4CQF12BE_InControlE @728 DATA
    _ZTTN7CAN4CQF17TTApplicationBaseE @729 DATA
    _ZTTN7CAN4CQF19AVB_8021Q_InControlE @730 DATA
    _ZTTN7CAN4CQF21IEEE8021Qch_InControlE @731 DATA
    _ZTTN7CAN4CQF26EthernetGatewayApplicationE @732 DATA
    _ZTTN7CAN4CQF26IEEE8021QchGateControlListE @733 DATA
    _ZTTN7CAN4CQF6RxgateE @734 DATA
    _ZTV19cStdListUMapWatcherItNSt7__cxx114listIPN9CoRE4INET6BufferESaIS4_EEEE @735 DATA
    _ZTV29cStdCollectionUMapWatcherBaseItNSt7__cxx114listIPN9CoRE4INET6BufferESaIS4_EEEE @736 DATA
    _ZTVN7CAN4CQF11PoolMessageE @737 DATA
    _ZTVN7CAN4CQF12BE_InControlE @738 DATA
    _ZTVN7CAN4CQF14ARTFDescriptorE @739 DATA
    _ZTVN7CAN4CQF14HRTFDescriptorE @740 DATA
    _ZTVN7CAN4CQF17BaseGatewayRouterE @741 DATA
    _ZTVN7CAN4CQF17IEEE8021QchBEFlowE @742 DATA
    _ZTVN7CAN4CQF17IEEE8021QchTTFlowE @743 DATA
    _ZTVN7CAN4CQF17TTApplicationBaseE @744 DATA
    _ZTVN7CAN4CQF18NoGatewayBufferingE @745 DATA
    _ZTVN7CAN4CQF19AVB_8021Q_InControlE @746 DATA
    _ZTVN7CAN4CQF19IEEE8021QchQueueingE @747 DATA
    _ZTVN7CAN4CQF20IEEE8021QchInControlIN9CoRE4INET13BaseInControlEEE @748 DATA
    _ZTVN7CAN4CQF21GatewayTransformationE @749 DATA
    _ZTVN7CAN4CQF21IEEE8021Qch_InControlE @750 DATA
    _ZTVN7CAN4CQF21PoolMessageDescriptorE @751 DATA
    _ZTVN7CAN4CQF22CircularRotationBufferE @752 DATA
    _ZTVN7CAN4CQF23CircularRotationMessageE @753 DATA
    _ZTVN7CAN4CQF23NoGatewayTransformationE @754 DATA
    _ZTVN7CAN4CQF24EDFGatewayTransformationE @755 DATA
    _ZTVN7CAN4CQF24RAEGatewayTransformationE @756 DATA
    _ZTVN7CAN4CQF24VarGatewayTransformationE @757 DATA
    _ZTVN7CAN4CQF26EthernetGatewayApplicationE @758 DATA
    _ZTVN7CAN4CQF26IEEE8021QchGateControlListE @759 DATA
    _ZTVN7CAN4CQF27AggregationGatewayBufferingE @760 DATA
    _ZTVN7CAN4CQF27IEEE8021QchBEFlowDescriptorE @761 DATA
    _ZTVN7CAN4CQF27IEEE8021QchTTFlowDescriptorE @762 DATA
    _ZTVN7CAN4CQF28CircularRotationMessage_BaseE @763 DATA
    _ZTVN7CAN4CQF28TimeoutGatewayTransformationE @764 DATA
    _ZTVN7CAN4CQF33CircularRotationMessageDescriptorE @765 DATA
    _ZTVN7CAN4CQF33ResortAggregationGatewayBufferingE @766 DATA
    _ZTVN7CAN4CQF4ARTFE @767 DATA
    _ZTVN7CAN4CQF4HRTFE @768 DATA
    _ZTVN7CAN4CQF6RxgateE @769 DATA
    _ZTVN7CAN4CQF9ARTF_BaseE @770 DATA
    _ZTVN8nlohmann16json_abi_v3_11_36detail10type_errorE @771 DATA
    _ZTVN8nlohmann16json_abi_v3_11_36detail21output_string_adapterIcNSt7__cxx1112basic_stringIcSt11char_traitsIcESaIcEEEEE @772 DATA
    _ZTVN8nlohmann16json_abi_v3_11_36detail9exceptionE @773 DATA
    _ZTVSt23_Sp_counted_ptr_inplaceIN8nlohmann16json_abi_v3_11_36detail21output_string_adapterIcNSt7__cxx1112basic_stringIcSt11char_traitsIcESaIcEEEEESaIvELN9__gnu_cxx12_Lock_policyE2EE @774 DATA
    _ZTv0_n1480_N7CAN4CQF12AVBInControlINS_20IEEE8021QchInControlIN9CoRE4INET13BaseInControlEEEE13handleMessageEPN7omnetpp8cMessageE @775
    _ZTv0_n1480_N7CAN4CQF17TTApplicationBase13handleMessageEPN7omnetpp8cMessageE @776
    _ZTv0_n1480_N7CAN4CQF20IEEE8021QchInControlIN9CoRE4INET13BaseInControlEE13handleMessageEPN7omnetpp8cMessageE @777
    _ZTv0_n1480_N7CAN4CQF26EthernetGatewayApplication13handleMessageEPN7omnetpp8cMessageE @778
    _ZTv0_n1480_N7CAN4CQF26IEEE8021QchGateControlList13handleMessageEPN7omnetpp8cMessageE @779
    _ZTv0_n1480_N7CAN4CQF6Rxgate13handleMessageEPN7omnetpp8cMessageE @780
    _ZTv0_n32_N7CAN4CQF17TTApplicationBaseD0Ev @781
    _ZTv0_n32_N7CAN4CQF17TTApplicationBaseD1Ev @782
    _ZTv0_n32_N7CAN4CQF26EthernetGatewayApplicationD0Ev @783
    _ZTv0_n32_N7CAN4CQF26EthernetGatewayApplicationD1Ev @784
    _ZTv0_n32_N7CAN4CQF26IEEE8021QchGateControlList21handleParameterChangeEPKc @785
    _ZTv0_n32_N7CAN4CQF6Rxgate21handleParameterChangeEPKc @786
    _ZTv0_n336_N7CAN4CQF26IEEE8021QchGateControlList10initializeEi @787
    _ZTv0_n336_N7CAN4CQF6Rxgate10initializeEi @788
    _ZTv0_n344_NK7CAN4CQF26IEEE8021QchGateControlList13numInitStagesEv @789
    _ZTv0_n344_NK7CAN4CQF6Rxgate13numInitStagesEv @790
    _ZTv0_n352_N7CAN4CQF17TTApplicationBase10initializeEv @791
    _ZTv0_n352_N7CAN4CQF26EthernetGatewayApplication10initializeEv @792
    _ZTv0_n368_N7CAN4CQF17TTApplicationBase21handleParameterChangeEPKc @793
    _ZTv0_n368_N7CAN4CQF20IEEE8021QchInControlIN9CoRE4INET13BaseInControlEE21handleParameterChangeEPKc @794
    _ZTv0_n368_N7CAN4CQF26IEEE8021QchGateControlList21handleParameterChangeEPKc @795
    _ZTv0_n368_N7CAN4CQF6Rxgate21handleParameterChangeEPKc @796
    _ZTv0_n40_N7CAN4CQF12AVBInControlINS_20IEEE8021QchInControlIN9CoRE4INET13BaseInControlEEEED0Ev @797
    _ZTv0_n40_N7CAN4CQF12AVBInControlINS_20IEEE8021QchInControlIN9CoRE4INET13BaseInControlEEEED1Ev @798
    _ZTv0_n40_N7CAN4CQF12BE_InControlD0Ev @799
    _ZTv0_n40_N7CAN4CQF12BE_InControlD1Ev @800
    _ZTv0_n40_N7CAN4CQF17TTApplicationBase10initializeEv @801
    _ZTv0_n40_N7CAN4CQF17TTApplicationBaseD0Ev @802
    _ZTv0_n40_N7CAN4CQF17TTApplicationBaseD1Ev @803
    _ZTv0_n40_N7CAN4CQF19AVB_8021Q_InControlD0Ev @804
    _ZTv0_n40_N7CAN4CQF19AVB_8021Q_InControlD1Ev @805
    _ZTv0_n40_N7CAN4CQF20IEEE8021QchInControlIN9CoRE4INET13BaseInControlEED0Ev @806
    _ZTv0_n40_N7CAN4CQF20IEEE8021QchInControlIN9CoRE4INET13BaseInControlEED1Ev @807
    _ZTv0_n40_N7CAN4CQF21IEEE8021Qch_InControlD0Ev @808
    _ZTv0_n40_N7CAN4CQF21IEEE8021Qch_InControlD1Ev @809
    _ZTv0_n40_N7CAN4CQF26EthernetGatewayApplication10initializeEv @810
    _ZTv0_n40_N7CAN4CQF26EthernetGatewayApplicationD0Ev @811
    _ZTv0_n40_N7CAN4CQF26EthernetGatewayApplicationD1Ev @812
    _ZTv0_n40_N7CAN4CQF26IEEE8021QchGateControlListD0Ev @813
    _ZTv0_n40_N7CAN4CQF26IEEE8021QchGateControlListD1Ev @814
    _ZTv0_n40_N7CAN4CQF6RxgateD0Ev @815
    _ZTv0_n40_N7CAN4CQF6RxgateD1Ev @816
    _ZTv0_n48_N7CAN4CQF17TTApplicationBase13handleMessageEPN7omnetpp8cMessageE @817
    _ZTv0_n48_N7CAN4CQF26EthernetGatewayApplication13handleMessageEPN7omnetpp8cMessageE @818
    _ZTv0_n56_N7CAN4CQF17TTApplicationBase21handleParameterChangeEPKc @819
    _ZTv0_n64_N7CAN4CQF26EthernetGatewayApplicationD0Ev @820
    _ZTv0_n64_N7CAN4CQF26EthernetGatewayApplicationD1Ev @821
    _ZZN8nlohmann16json_abi_v3_11_36detail10serializerINS0_10basic_jsonISt3mapSt6vectorNSt7__cxx1112basic_stringIcSt11char_traitsIcESaIcEEEbxydSaNS0_14adl_serializerES5_IhSaIhEEvEEE12dump_integerIhLi0EEEvT_E12digits_to_99 @822 DATA
    _ZZN8nlohmann16json_abi_v3_11_36detail10serializerINS0_10basic_jsonISt3mapSt6vectorNSt7__cxx1112basic_stringIcSt11char_traitsIcESaIcEEEbxydSaNS0_14adl_serializerES5_IhSaIhEEvEEE12dump_integerIxLi0EEEvT_E12digits_to_99 @823 DATA
    _ZZN8nlohmann16json_abi_v3_11_36detail10serializerINS0_10basic_jsonISt3mapSt6vectorNSt7__cxx1112basic_stringIcSt11char_traitsIcESaIcEEEbxydSaNS0_14adl_serializerES5_IhSaIhEEvEEE12dump_integerIyLi0EEEvT_E12digits_to_99 @824 DATA
    _ZZN8nlohmann16json_abi_v3_11_36detail10serializerINS0_10basic_jsonISt3mapSt6vectorNSt7__cxx1112basic_stringIcSt11char_traitsIcESaIcEEEbxydSaNS0_14adl_serializerES5_IhSaIhEEvEEE6decodeERhRjhE5utf8d @825 DATA
    _ZZN8nlohmann16json_abi_v3_11_36detail9dtoa_impl36get_cached_power_for_binary_exponentEiE13kCachedPowers @826 DATA
