EXPORTS
    _Z24createStdListUMapWatcherItNSt7__cxx114listIPN9CoRE4INET6BufferESaIS4_EEEEvPKcRSt13unordered_mapIT_T0_St4hashISA_ESt8equal_toISA_ESaISt4pairIKSA_SB_EEE @1
    _ZN19cStdListUMapWatcherItNSt7__cxx114listIPN9CoRE4INET6BufferESaIS4_EEEEC2EPKcRSt13unordered_mapItS6_St4hashItESt8equal_toItESaISt4pairIKtS6_EEE @2
    _ZN19cStdListUMapWatcherItNSt7__cxx114listIPN9CoRE4INET6BufferESaIS4_EEEED0Ev @3
    _ZN19cStdListUMapWatcherItNSt7__cxx114listIPN9CoRE4INET6BufferESaIS4_EEEED2Ev @4
    _ZN29cStdCollectionUMapWatcherBaseItNSt7__cxx114listIPN9CoRE4INET6BufferESaIS4_EEEEC2EPKcRSt13unordered_mapItS6_St4hashItESt8equal_toItESaISt4pairIKtS6_EEE @5
    _ZN29cStdCollectionUMapWatcherBaseItNSt7__cxx114listIPN9CoRE4INET6BufferESaIS4_EEEED0Ev @6
    _ZN29cStdCollectionUMapWatcherBaseItNSt7__cxx114listIPN9CoRE4INET6BufferESaIS4_EEEED2Ev @7
    _ZN7CAN4CQF11PoolMessage12parsimUnpackEPN7omnetpp11cCommBufferE @8
    _ZN7CAN4CQF11PoolMessage16getPoolForUpdateB5cxx11Ev @9
    _ZN7CAN4CQF11PoolMessage4copyERKS0_ @10
    _ZN7CAN4CQF11PoolMessage7setPoolERKNSt7__cxx114listIPN7omnetpp8cMessageESaIS5_EEE @11
    _ZN7CAN4CQF11PoolMessageC1EPKcs @12
    _ZN7CAN4CQF11PoolMessageC1ERKS0_ @13
    _ZN7CAN4CQF11PoolMessageC2EPKcs @14
    _ZN7CAN4CQF11PoolMessageC2ERKS0_ @15
    _ZN7CAN4CQF11PoolMessageD0Ev @16
    _ZN7CAN4CQF11PoolMessageD1Ev @17
    _ZN7CAN4CQF11PoolMessageD2Ev @18
    _ZN7CAN4CQF11PoolMessageaSERKS0_ @19
    _ZN7CAN4CQF12AVBInControlINS_20IEEE8021QchInControlIN9CoRE4INET13BaseInControlEEEE13handleMessageEPN7omnetpp8cMessageE @20
    _ZN7CAN4CQF12AVBInControlINS_20IEEE8021QchInControlIN9CoRE4INET13BaseInControlEEEEC2Ev @21
    _ZN7CAN4CQF12AVBInControlINS_20IEEE8021QchInControlIN9CoRE4INET13BaseInControlEEEED0Ev @22
    _ZN7CAN4CQF12AVBInControlINS_20IEEE8021QchInControlIN9CoRE4INET13BaseInControlEEEED1Ev @23
    _ZN7CAN4CQF12AVBInControlINS_20IEEE8021QchInControlIN9CoRE4INET13BaseInControlEEEED2Ev @24
    _ZN7CAN4CQF12BE_InControlC1Ev @25
    _ZN7CAN4CQF12BE_InControlD0Ev @26
    _ZN7CAN4CQF12BE_InControlD1Ev @27
    _ZN7CAN4CQF12BE_InControlD2Ev @28
    _ZN7CAN4CQF14ARTFDescriptorC1Ev @29
    _ZN7CAN4CQF14ARTFDescriptorC2Ev @30
    _ZN7CAN4CQF14ARTFDescriptorD0Ev @31
    _ZN7CAN4CQF14ARTFDescriptorD1Ev @32
    _ZN7CAN4CQF14ARTFDescriptorD2Ev @33
    _ZN7CAN4CQF14HRTFDescriptorC1Ev @34
    _ZN7CAN4CQF14HRTFDescriptorC2Ev @35
    _ZN7CAN4CQF14HRTFDescriptorD0Ev @36
    _ZN7CAN4CQF14HRTFDescriptorD1Ev @37
    _ZN7CAN4CQF14HRTFDescriptorD2Ev @38
    _ZN7CAN4CQF17BaseGatewayRouter10initializeEv @39
    _ZN7CAN4CQF17BaseGatewayRouter13handleMessageEPN7omnetpp8cMessageE @40
    _ZN7CAN4CQF17BaseGatewayRouter13readConfigXMLEv @41
    _ZN7CAN4CQF17BaseGatewayRouter21handleParameterChangeEPKc @42
    _ZN7CAN4CQF17BaseGatewayRouter25getDestinationGateIndicesEiNSt7__cxx1112basic_stringIcSt11char_traitsIcESaIcEEE @43
    _ZN7CAN4CQF17BaseGatewayRouter9AVBPREFIXB5cxx11E @44 DATA
    _ZN7CAN4CQF17BaseGatewayRouter9CANPREFIXB5cxx11E @45 DATA
    _ZN7CAN4CQF17BaseGatewayRouter9ETHPREFIXB5cxx11E @46 DATA
    _ZN7CAN4CQF17BaseGatewayRouter9RAWPREFIXB5cxx11E @47 DATA
    _ZN7CAN4CQF17BaseGatewayRouter9TTEPREFIXB5cxx11E @48 DATA
    _ZN7CAN4CQF17BaseGatewayRouter9VIDPREFIXB5cxx11E @49 DATA
    _ZN7CAN4CQF17BaseGatewayRouterC2Ev @50
    _ZN7CAN4CQF17BaseGatewayRouterD0Ev @51
    _ZN7CAN4CQF17BaseGatewayRouterD2Ev @52
    _ZN7CAN4CQF17IEEE8021QchBEFlow12parsimUnpackEPN7omnetpp11cCommBufferE @53
    _ZN7CAN4CQF17IEEE8021QchBEFlow16setDisplayStringEPKc @54
    _ZN7CAN4CQF17IEEE8021QchBEFlow4copyERKS0_ @55
    _ZN7CAN4CQF17IEEE8021QchBEFlow5setDeEb @56
    _ZN7CAN4CQF17IEEE8021QchBEFlow6setPcpEh @57
    _ZN7CAN4CQF17IEEE8021QchBEFlow6setVIDEt @58
    _ZN7CAN4CQF17IEEE8021QchBEFlowC1EPKcs @59
    _ZN7CAN4CQF17IEEE8021QchBEFlowC1ERKS0_ @60
    _ZN7CAN4CQF17IEEE8021QchBEFlowC2EPKcs @61
    _ZN7CAN4CQF17IEEE8021QchBEFlowC2ERKS0_ @62
    _ZN7CAN4CQF17IEEE8021QchBEFlowD0Ev @63
    _ZN7CAN4CQF17IEEE8021QchBEFlowD1Ev @64
    _ZN7CAN4CQF17IEEE8021QchBEFlowD2Ev @65
    _ZN7CAN4CQF17IEEE8021QchBEFlowaSERKS0_ @66
    _ZN7CAN4CQF17IEEE8021QchTTFlow12parsimUnpackEPN7omnetpp11cCommBufferE @67
    _ZN7CAN4CQF17IEEE8021QchTTFlow16setDisplayStringEPKc @68
    _ZN7CAN4CQF17IEEE8021QchTTFlow4copyERKS0_ @69
    _ZN7CAN4CQF17IEEE8021QchTTFlow5setDeEb @70
    _ZN7CAN4CQF17IEEE8021QchTTFlow6setPcpEh @71
    _ZN7CAN4CQF17IEEE8021QchTTFlow6setVIDEt @72
    _ZN7CAN4CQF17IEEE8021QchTTFlowC1EPKcs @73
    _ZN7CAN4CQF17IEEE8021QchTTFlowC1ERKS0_ @74
    _ZN7CAN4CQF17IEEE8021QchTTFlowC2EPKcs @75
    _ZN7CAN4CQF17IEEE8021QchTTFlowC2ERKS0_ @76
    _ZN7CAN4CQF17IEEE8021QchTTFlowD0Ev @77
    _ZN7CAN4CQF17IEEE8021QchTTFlowD1Ev @78
    _ZN7CAN4CQF17IEEE8021QchTTFlowD2Ev @79
    _ZN7CAN4CQF17IEEE8021QchTTFlowaSERKS0_ @80
    _ZN7CAN4CQF17TTApplicationBase10initializeEv @81
    _ZN7CAN4CQF17TTApplicationBase13handleMessageEPN7omnetpp8cMessageE @82
    _ZN7CAN4CQF17TTApplicationBase21handleParameterChangeEPKc @83
    _ZN7CAN4CQF17TTApplicationBaseC1Ev @84
    _ZN7CAN4CQF17TTApplicationBaseC2Ev @85
    _ZN7CAN4CQF17TTApplicationBaseD0Ev @86
    _ZN7CAN4CQF17TTApplicationBaseD1Ev @87
    _ZN7CAN4CQF17TTApplicationBaseD2Ev @88
    _ZN7CAN4CQF18NoGatewayBuffering10initializeEv @89
    _ZN7CAN4CQF18NoGatewayBuffering13handleMessageEPN7omnetpp8cMessageE @90
    _ZN7CAN4CQF18NoGatewayBufferingC2Ev @91
    _ZN7CAN4CQF18NoGatewayBufferingD0Ev @92
    _ZN7CAN4CQF18NoGatewayBufferingD2Ev @93
    _ZN7CAN4CQF19AVB_8021Q_InControlC1Ev @94
    _ZN7CAN4CQF19AVB_8021Q_InControlD0Ev @95
    _ZN7CAN4CQF19AVB_8021Q_InControlD1Ev @96
    _ZN7CAN4CQF19AVB_8021Q_InControlD2Ev @97
    _ZN7CAN4CQF19IEEE8021QchQueueing10initializeEv @98
    _ZN7CAN4CQF19IEEE8021QchQueueing13handleMessageEPN7omnetpp8cMessageE @99
    _ZN7CAN4CQF19IEEE8021QchQueueing21handleParameterChangeEPKc @100
    _ZN7CAN4CQF19IEEE8021QchQueueingC2Ev @101
    _ZN7CAN4CQF19IEEE8021QchQueueingD0Ev @102
    _ZN7CAN4CQF19IEEE8021QchQueueingD2Ev @103
    _ZN7CAN4CQF20IEEE8021QchInControlIN9CoRE4INET13BaseInControlEE13handleMessageEPN7omnetpp8cMessageE @104
    _ZN7CAN4CQF20IEEE8021QchInControlIN9CoRE4INET13BaseInControlEE21handleParameterChangeEPKc @105
    _ZN7CAN4CQF20IEEE8021QchInControlIN9CoRE4INET13BaseInControlEEC2Ev @106
    _ZN7CAN4CQF20IEEE8021QchInControlIN9CoRE4INET13BaseInControlEED0Ev @107
    _ZN7CAN4CQF20IEEE8021QchInControlIN9CoRE4INET13BaseInControlEED1Ev @108
    _ZN7CAN4CQF20IEEE8021QchInControlIN9CoRE4INET13BaseInControlEED2Ev @109
    _ZN7CAN4CQF21GatewayTransformation10initializeEv @110
    _ZN7CAN4CQF21GatewayTransformation13handleMessageEPN7omnetpp8cMessageE @111
    _ZN7CAN4CQF21GatewayTransformation13readConfigXMLEv @112
    _ZN7CAN4CQF21GatewayTransformation15CANCRCBITLENGTHE @113 DATA
    _ZN7CAN4CQF21GatewayTransformation17createMessageNameB5cxx11EPKc @114
    _ZN7CAN4CQF21GatewayTransformation21handleParameterChangeEPKc @115
    _ZN7CAN4CQF21GatewayTransformation21transformartfToTTFlowEPNS_4ARTFE @116
    _ZN7CAN4CQF21GatewayTransformation21transformhrtfToTTFlowEPNS_4HRTFE @117
    _ZN7CAN4CQF21GatewayTransformation25ARTFDecapsulateToARTFListB5cxx11EPNS_4ARTFE @118
    _ZN7CAN4CQF21GatewayTransformation29transformTTFlowToCanDataFrameEPNS_17IEEE8021QchTTFlowE @119
    _ZN7CAN4CQF21GatewayTransformation5QInfoC2ERKS1_ @120
    _ZN7CAN4CQF21GatewayTransformation5QInfoC2Ev @121
    _ZN7CAN4CQF21GatewayTransformation5QInfoD2Ev @122
    _ZN7CAN4CQF21GatewayTransformationC2Ev @123
    _ZN7CAN4CQF21GatewayTransformationD0Ev @124
    _ZN7CAN4CQF21GatewayTransformationD2Ev @125
    _ZN7CAN4CQF21IEEE8021Qch_InControlC1Ev @126
    _ZN7CAN4CQF21IEEE8021Qch_InControlD0Ev @127
    _ZN7CAN4CQF21IEEE8021Qch_InControlD1Ev @128
    _ZN7CAN4CQF21IEEE8021Qch_InControlD2Ev @129
    _ZN7CAN4CQF21PoolMessageDescriptorC1Ev @130
    _ZN7CAN4CQF21PoolMessageDescriptorC2Ev @131
    _ZN7CAN4CQF21PoolMessageDescriptorD0Ev @132
    _ZN7CAN4CQF21PoolMessageDescriptorD1Ev @133
    _ZN7CAN4CQF21PoolMessageDescriptorD2Ev @134
    _ZN7CAN4CQF22CircularRotationBuffer10initializeEv @135
    _ZN7CAN4CQF22CircularRotationBuffer13calculateWCRTEdidd @136
    _ZN7CAN4CQF22CircularRotationBuffer13handleMessageEPN7omnetpp8cMessageE @137
    _ZN7CAN4CQF22CircularRotationBuffer13logToJsonFileEv @138
    _ZN7CAN4CQF22CircularRotationBuffer15ChecktimeinTCQFEv @139
    _ZN7CAN4CQF22CircularRotationBuffer19EncapsulateTSNFrameEv @140
    _ZN7CAN4CQF22CircularRotationBuffer20getCanfdArrivingInfoEPN10FiCo4OMNeT12CanDataFrameE @141
    _ZN7CAN4CQF22CircularRotationBuffer21checkAndAppendBracketERKNSt7__cxx1112basic_stringIcSt11char_traitsIcESaIcEEE @142
    _ZN7CAN4CQF22CircularRotationBuffer21handleParameterChangeEPKc @143
    _ZN7CAN4CQF22CircularRotationBuffer23caluculateEndToEndDelayEv @144
    _ZN7CAN4CQF22CircularRotationBuffer6finishEv @145
    _ZN7CAN4CQF22CircularRotationBuffer9canfdInfoC2ERKS1_ @146
    _ZN7CAN4CQF22CircularRotationBuffer9canfdInfoC2Ev @147
    _ZN7CAN4CQF22CircularRotationBufferC1Ev @148
    _ZN7CAN4CQF22CircularRotationBufferC2Ev @149
    _ZN7CAN4CQF22CircularRotationBufferD0Ev @150
    _ZN7CAN4CQF22CircularRotationBufferD1Ev @151
    _ZN7CAN4CQF22CircularRotationBufferD2Ev @152
    _ZN7CAN4CQF23CircularRotationMessage18encapsulationCountEv @153
    _ZN7CAN4CQF23CircularRotationMessage19getCanDataFrameListB5cxx11Ev @154
    _ZN7CAN4CQF23CircularRotationMessage29setAllCanDataFrameAndHoldTimeESt3mapIPN10FiCo4OMNeT12CanDataFrameEdSt4lessIS4_ESaISt4pairIKS4_dEEE @155
    _ZN7CAN4CQF23CircularRotationMessage33encasulateCanDataFrameAndHoldTimeEPN10FiCo4OMNeT12CanDataFrameEd @156
    _ZN7CAN4CQF23CircularRotationMessage34decapsulateCanDataFrameAndHoldTimeEv @157
    _ZN7CAN4CQF23CircularRotationMessage4copyERKS0_ @158
    _ZN7CAN4CQF23CircularRotationMessageC2EPKcs @159
    _ZN7CAN4CQF23CircularRotationMessageC2ERKS0_ @160
    _ZN7CAN4CQF23CircularRotationMessageD0Ev @161
    _ZN7CAN4CQF23CircularRotationMessageD2Ev @162
    _ZN7CAN4CQF23NoGatewayTransformation10initializeEv @163
    _ZN7CAN4CQF23NoGatewayTransformation13handleMessageEPN7omnetpp8cMessageE @164
    _ZN7CAN4CQF23NoGatewayTransformationC2Ev @165
    _ZN7CAN4CQF23NoGatewayTransformationD0Ev @166
    _ZN7CAN4CQF23NoGatewayTransformationD2Ev @167
    _ZN7CAN4CQF24EDFGatewayTransformation10initializeEv @168
    _ZN7CAN4CQF24EDFGatewayTransformation13handleMessageEPN7omnetpp8cMessageE @169
    _ZN7CAN4CQF24EDFGatewayTransformation13readConfigXMLEv @170
    _ZN7CAN4CQF24EDFGatewayTransformation15CANCRCBITLENGTHE @171 DATA
    _ZN7CAN4CQF24EDFGatewayTransformation17createMessageNameB5cxx11EPKc @172
    _ZN7CAN4CQF24EDFGatewayTransformation21handleParameterChangeEPKc @173
    _ZN7CAN4CQF24EDFGatewayTransformation21transformartfToTTFlowEPNS_4ARTFE @174
    _ZN7CAN4CQF24EDFGatewayTransformation29transformTTFlowToCanDataFrameEPNS_17IEEE8021QchTTFlowE @175
    _ZN7CAN4CQF24EDFGatewayTransformation5QInfoC2ERKS1_ @176
    _ZN7CAN4CQF24EDFGatewayTransformation5QInfoC2Ev @177
    _ZN7CAN4CQF24EDFGatewayTransformation5QInfoD2Ev @178
    _ZN7CAN4CQF24EDFGatewayTransformationC1Ev @179
    _ZN7CAN4CQF24EDFGatewayTransformationC2Ev @180
    _ZN7CAN4CQF24EDFGatewayTransformationD0Ev @181
    _ZN7CAN4CQF24EDFGatewayTransformationD2Ev @182
    _ZN7CAN4CQF24RAEGatewayTransformation10initializeEv @183
    _ZN7CAN4CQF24RAEGatewayTransformation10order_infoC2EOS1_ @184
    _ZN7CAN4CQF24RAEGatewayTransformation10order_infoC2ERKS1_ @185
    _ZN7CAN4CQF24RAEGatewayTransformation10order_infoC2Ev @186
    _ZN7CAN4CQF24RAEGatewayTransformation12Resort_orderESt3mapIPN10FiCo4OMNeT12CanDataFrameEN7omnetpp7SimTimeESt4lessIS4_ESaISt4pairIKS4_S6_EEEdi @187
    _ZN7CAN4CQF24RAEGatewayTransformation13handleMessageEPN7omnetpp8cMessageE @188
    _ZN7CAN4CQF24RAEGatewayTransformation13readConfigXMLEv @189
    _ZN7CAN4CQF24RAEGatewayTransformation15CANCRCBITLENGTHE @190 DATA
    _ZN7CAN4CQF24RAEGatewayTransformation17createMessageNameB5cxx11EPKc @191
    _ZN7CAN4CQF24RAEGatewayTransformation20Decap_orderfromeARTFEPNS_4ARTFE @192
    _ZN7CAN4CQF24RAEGatewayTransformation21handleParameterChangeEPKc @193
    _ZN7CAN4CQF24RAEGatewayTransformation21transformartfToTTFlowEPNS_4ARTFE @194
    _ZN7CAN4CQF24RAEGatewayTransformation21transformhrtfToTTFlowEPNS_4HRTFE @195
    _ZN7CAN4CQF24RAEGatewayTransformation29transformTTFlowToCanDataFrameEPNS_17IEEE8021QchTTFlowE @196
    _ZN7CAN4CQF24RAEGatewayTransformation5QInfoC2ERKS1_ @197
    _ZN7CAN4CQF24RAEGatewayTransformation5QInfoC2Ev @198
    _ZN7CAN4CQF24RAEGatewayTransformation5QInfoD2Ev @199
    _ZN7CAN4CQF24RAEGatewayTransformationC1Ev @200
    _ZN7CAN4CQF24RAEGatewayTransformationC2Ev @201
    _ZN7CAN4CQF24RAEGatewayTransformationD0Ev @202
    _ZN7CAN4CQF24RAEGatewayTransformationD2Ev @203
    _ZN7CAN4CQF24VarGatewayTransformation10initializeEv @204
    _ZN7CAN4CQF24VarGatewayTransformation13handleMessageEPN7omnetpp8cMessageE @205
    _ZN7CAN4CQF24VarGatewayTransformation13readConfigXMLEv @206
    _ZN7CAN4CQF24VarGatewayTransformation15CANCRCBITLENGTHE @207 DATA
    _ZN7CAN4CQF24VarGatewayTransformation17createMessageNameB5cxx11EPKc @208
    _ZN7CAN4CQF24VarGatewayTransformation20transformTTFlowToCanEPNS_17IEEE8021QchTTFlowE @209
    _ZN7CAN4CQF24VarGatewayTransformation21handleParameterChangeEPKc @210
    _ZN7CAN4CQF24VarGatewayTransformation24transformcrclmsgToTTFlowEPNS_23CircularRotationMessageE @211
    _ZN7CAN4CQF24VarGatewayTransformation5QInfoC2ERKS1_ @212
    _ZN7CAN4CQF24VarGatewayTransformation5QInfoC2Ev @213
    _ZN7CAN4CQF24VarGatewayTransformation5QInfoD2Ev @214
    _ZN7CAN4CQF24VarGatewayTransformationC1Ev @215
    _ZN7CAN4CQF24VarGatewayTransformationC2Ev @216
    _ZN7CAN4CQF24VarGatewayTransformationD0Ev @217
    _ZN7CAN4CQF24VarGatewayTransformationD1Ev @218
    _ZN7CAN4CQF24VarGatewayTransformationD2Ev @219
    _ZN7CAN4CQF26EthernetGatewayApplication10initializeEv @220
    _ZN7CAN4CQF26EthernetGatewayApplication13handleMessageEPN7omnetpp8cMessageE @221
    _ZN7CAN4CQF26EthernetGatewayApplicationC1Ev @222
    _ZN7CAN4CQF26EthernetGatewayApplicationC2Ev @223
    _ZN7CAN4CQF26EthernetGatewayApplicationD0Ev @224
    _ZN7CAN4CQF26EthernetGatewayApplicationD1Ev @225
    _ZN7CAN4CQF26EthernetGatewayApplicationD2Ev @226
    _ZN7CAN4CQF26IEEE8021QchGateControlList10initializeEi @227
    _ZN7CAN4CQF26IEEE8021QchGateControlList13handleMessageEPN7omnetpp8cMessageE @228
    _ZN7CAN4CQF26IEEE8021QchGateControlList18setGateControlListENSt7__cxx1112basic_stringIcSt11char_traitsIcESaIcEEE @229
    _ZN7CAN4CQF26IEEE8021QchGateControlList21handleParameterChangeEPKc @230
    _ZN7CAN4CQF26IEEE8021QchGateControlList27propagateGateControlElementESt6vectorINSt7__cxx1112basic_stringIcSt11char_traitsIcESaIcEEESaIS7_EE @231
    _ZN7CAN4CQF26IEEE8021QchGateControlList30switchToNextGateControlElementEv @232
    _ZN7CAN4CQF26IEEE8021QchGateControlList31switchToFirstGateControlElementEv @233
    _ZN7CAN4CQF26IEEE8021QchGateControlList37scheduleCurrentGateControlElementTimeEb @234
    _ZN7CAN4CQF26IEEE8021QchGateControlListC1Ev @235
    _ZN7CAN4CQF26IEEE8021QchGateControlListC2Ev @236
    _ZN7CAN4CQF26IEEE8021QchGateControlListD0Ev @237
    _ZN7CAN4CQF26IEEE8021QchGateControlListD1Ev @238
    _ZN7CAN4CQF26IEEE8021QchGateControlListD2Ev @239
    _ZN7CAN4CQF27AggregationGatewayBuffering10initializeEv @240
    _ZN7CAN4CQF27AggregationGatewayBuffering11emitSignalsEPNSt7__cxx114listIPN7omnetpp8cMessageESaIS5_EEE @241
    _ZN7CAN4CQF27AggregationGatewayBuffering11getPoolListB5cxx11EPN7omnetpp8cMessageE @242
    _ZN7CAN4CQF27AggregationGatewayBuffering11getPoolListB5cxx11Ej @243
    _ZN7CAN4CQF27AggregationGatewayBuffering12SortSequenceENSt7__cxx114listIPN10FiCo4OMNeT12CanDataFrameESaIS5_EEE @244
    _ZN7CAN4CQF27AggregationGatewayBuffering13handleMessageEPN7omnetpp8cMessageE @245
    _ZN7CAN4CQF27AggregationGatewayBuffering13readConfigXMLEv @246
    _ZN7CAN4CQF27AggregationGatewayBuffering14GetArrivalTimeEPN10FiCo4OMNeT12CanDataFrameE @247
    _ZN7CAN4CQF27AggregationGatewayBuffering15getIDHoldUpTimeEj @248
    _ZN7CAN4CQF27AggregationGatewayBuffering19divisionTrafficFlowEPN7omnetpp8cMessageE @249
    _ZN7CAN4CQF27AggregationGatewayBuffering21handleParameterChangeEPKc @250
    _ZN7CAN4CQF27AggregationGatewayBuffering22getPoolHoldUpTimeEventEPNSt7__cxx114listIPN7omnetpp8cMessageESaIS5_EEE @251
    _ZN7CAN4CQF27AggregationGatewayBuffering24getCurrentPoolHoldUpTimeEPN7omnetpp8cMessageE @252
    _ZN7CAN4CQF27AggregationGatewayBuffering27AdjustEncapsulationCanFrameEPN7omnetpp8cMessageE @253
    _ZN7CAN4CQF27AggregationGatewayBuffering28CalculateReservationDeadlineENSt7__cxx114listIPN10FiCo4OMNeT12CanDataFrameESaIS5_EEE @254
    _ZN7CAN4CQF27AggregationGatewayBuffering9getPoolIDEPNSt7__cxx114listIPN7omnetpp8cMessageESaIS5_EEE @255
    _ZN7CAN4CQF27AggregationGatewayBufferingC1Ev @256
    _ZN7CAN4CQF27AggregationGatewayBufferingC2Ev @257
    _ZN7CAN4CQF27AggregationGatewayBufferingD0Ev @258
    _ZN7CAN4CQF27AggregationGatewayBufferingD1Ev @259
    _ZN7CAN4CQF27AggregationGatewayBufferingD2Ev @260
    _ZN7CAN4CQF27IEEE8021QchBEFlowDescriptorC1Ev @261
    _ZN7CAN4CQF27IEEE8021QchBEFlowDescriptorC2Ev @262
    _ZN7CAN4CQF27IEEE8021QchBEFlowDescriptorD0Ev @263
    _ZN7CAN4CQF27IEEE8021QchBEFlowDescriptorD1Ev @264
    _ZN7CAN4CQF27IEEE8021QchBEFlowDescriptorD2Ev @265
    _ZN7CAN4CQF27IEEE8021QchTTFlowDescriptorC1Ev @266
    _ZN7CAN4CQF27IEEE8021QchTTFlowDescriptorC2Ev @267
    _ZN7CAN4CQF27IEEE8021QchTTFlowDescriptorD0Ev @268
    _ZN7CAN4CQF27IEEE8021QchTTFlowDescriptorD1Ev @269
    _ZN7CAN4CQF27IEEE8021QchTTFlowDescriptorD2Ev @270
    _ZN7CAN4CQF28CircularRotationMessage_Base12parsimUnpackEPN7omnetpp11cCommBufferE @271
    _ZN7CAN4CQF28CircularRotationMessage_Base4copyERKS0_ @272
    _ZN7CAN4CQF28CircularRotationMessage_BaseC1EPKcs @273
    _ZN7CAN4CQF28CircularRotationMessage_BaseC1ERKS0_ @274
    _ZN7CAN4CQF28CircularRotationMessage_BaseC2EPKcs @275
    _ZN7CAN4CQF28CircularRotationMessage_BaseC2ERKS0_ @276
    _ZN7CAN4CQF28CircularRotationMessage_BaseD0Ev @277
    _ZN7CAN4CQF28CircularRotationMessage_BaseD1Ev @278
    _ZN7CAN4CQF28CircularRotationMessage_BaseD2Ev @279
    _ZN7CAN4CQF28CircularRotationMessage_BaseaSERKS0_ @280
    _ZN7CAN4CQF28TimeoutGatewayTransformation10initializeEv @281
    _ZN7CAN4CQF28TimeoutGatewayTransformation13handleMessageEPN7omnetpp8cMessageE @282
    _ZN7CAN4CQF28TimeoutGatewayTransformation13readConfigXMLEv @283
    _ZN7CAN4CQF28TimeoutGatewayTransformation15CANCRCBITLENGTHE @284 DATA
    _ZN7CAN4CQF28TimeoutGatewayTransformation17createMessageNameB5cxx11EPKc @285
    _ZN7CAN4CQF28TimeoutGatewayTransformation21handleParameterChangeEPKc @286
    _ZN7CAN4CQF28TimeoutGatewayTransformation21transformartfToTTFlowEPNS_4ARTFE @287
    _ZN7CAN4CQF28TimeoutGatewayTransformation29transformTTFlowToCanDataFrameEPNS_17IEEE8021QchTTFlowE @288
    _ZN7CAN4CQF28TimeoutGatewayTransformation5QInfoC2ERKS1_ @289
    _ZN7CAN4CQF28TimeoutGatewayTransformation5QInfoC2Ev @290
    _ZN7CAN4CQF28TimeoutGatewayTransformation5QInfoD2Ev @291
    _ZN7CAN4CQF28TimeoutGatewayTransformationC1Ev @292
    _ZN7CAN4CQF28TimeoutGatewayTransformationC2Ev @293
    _ZN7CAN4CQF28TimeoutGatewayTransformationD0Ev @294
    _ZN7CAN4CQF28TimeoutGatewayTransformationD2Ev @295
    _ZN7CAN4CQF33CircularRotationMessageDescriptorC1Ev @296
    _ZN7CAN4CQF33CircularRotationMessageDescriptorC2Ev @297
    _ZN7CAN4CQF33CircularRotationMessageDescriptorD0Ev @298
    _ZN7CAN4CQF33CircularRotationMessageDescriptorD1Ev @299
    _ZN7CAN4CQF33CircularRotationMessageDescriptorD2Ev @300
    _ZN7CAN4CQF33ResortAggregationGatewayBuffering10initializeEv @301
    _ZN7CAN4CQF33ResortAggregationGatewayBuffering13handleMessageEPN7omnetpp8cMessageE @302
    _ZN7CAN4CQF33ResortAggregationGatewayBuffering14GetArrivalTimeEPN10FiCo4OMNeT12CanDataFrameE @303
    _ZN7CAN4CQF33ResortAggregationGatewayBuffering15ChecktimeinTCQFEv @304
    _ZN7CAN4CQF33ResortAggregationGatewayBuffering17Encap_orderinARTFESt3mapIPN10FiCo4OMNeT12CanDataFrameEN7omnetpp7SimTimeESt4lessIS4_ESaISt4pairIKS4_S6_EEE @305
    _ZN7CAN4CQF33ResortAggregationGatewayBuffering21handleParameterChangeEPKc @306
    _ZN7CAN4CQF33ResortAggregationGatewayBufferingC1Ev @307
    _ZN7CAN4CQF33ResortAggregationGatewayBufferingC2Ev @308
    _ZN7CAN4CQF33ResortAggregationGatewayBufferingD0Ev @309
    _ZN7CAN4CQF33ResortAggregationGatewayBufferingD1Ev @310
    _ZN7CAN4CQF33ResortAggregationGatewayBufferingD2Ev @311
    _ZN7CAN4CQF4ARTF11encap_orderEPN10FiCo4OMNeT12CanDataFrameEN7omnetpp7SimTimeE @312
    _ZN7CAN4CQF4ARTF11getEncapCntEv @313
    _ZN7CAN4CQF4ARTF11getordernumEv @314
    _ZN7CAN4CQF4ARTF17encapCanDataFrameEPN10FiCo4OMNeT12CanDataFrameE @315
    _ZN7CAN4CQF4ARTF19decap_order_arrtimeEPN10FiCo4OMNeT12CanDataFrameE @316
    _ZN7CAN4CQF4ARTF4copyERKS0_ @317
    _ZN7CAN4CQF4ARTF9decapARTFEv @318
    _ZN7CAN4CQF4ARTFC2EPKcs @319
    _ZN7CAN4CQF4ARTFC2ERKS0_ @320
    _ZN7CAN4CQF4ARTFD0Ev @321
    _ZN7CAN4CQF4ARTFD2Ev @322
    _ZN7CAN4CQF4ARTFaSERKS0_ @323
    _ZN7CAN4CQF4HRTF11setEncapnumEt @324
    _ZN7CAN4CQF4HRTF12parsimUnpackEPN7omnetpp11cCommBufferE @325
    _ZN7CAN4CQF4HRTF14setDestinationEt @326
    _ZN7CAN4CQF4HRTF4copyERKS0_ @327
    _ZN7CAN4CQF4HRTF9setSourceEt @328
    _ZN7CAN4CQF4HRTFC1EPKcs @329
    _ZN7CAN4CQF4HRTFC1ERKS0_ @330
    _ZN7CAN4CQF4HRTFC2EPKcs @331
    _ZN7CAN4CQF4HRTFC2ERKS0_ @332
    _ZN7CAN4CQF4HRTFD0Ev @333
    _ZN7CAN4CQF4HRTFD1Ev @334
    _ZN7CAN4CQF4HRTFD2Ev @335
    _ZN7CAN4CQF4HRTFaSERKS0_ @336
    _ZN7CAN4CQF6Rxgate10initializeEi @337
    _ZN7CAN4CQF6Rxgate13handleMessageEPN7omnetpp8cMessageE @338
    _ZN7CAN4CQF6Rxgate18setGateControlListENSt7__cxx1112basic_stringIcSt11char_traitsIcESaIcEEE @339
    _ZN7CAN4CQF6Rxgate20ForwardTTFlowToQueueEPNS_17IEEE8021QchTTFlowE @340
    _ZN7CAN4CQF6Rxgate21handleParameterChangeEPKc @341
    _ZN7CAN4CQF6Rxgate30switchToNextGateControlElementEv @342
    _ZN7CAN4CQF6Rxgate31switchToFirstGateControlElementEv @343
    _ZN7CAN4CQF6Rxgate37scheduleCurrentGateControlElementTimeEb @344
    _ZN7CAN4CQF6RxgateC1Ev @345
    _ZN7CAN4CQF6RxgateC2Ev @346
    _ZN7CAN4CQF6RxgateD0Ev @347
    _ZN7CAN4CQF6RxgateD1Ev @348
    _ZN7CAN4CQF6RxgateD2Ev @349
    _ZN7CAN4CQF9ARTF_Base12parsimUnpackEPN7omnetpp11cCommBufferE @350
    _ZN7CAN4CQF9ARTF_Base14setDestinationEt @351
    _ZN7CAN4CQF9ARTF_Base4copyERKS0_ @352
    _ZN7CAN4CQF9ARTF_Base9setSourceEt @353
    _ZN7CAN4CQF9ARTF_BaseC1EPKcs @354
    _ZN7CAN4CQF9ARTF_BaseC1ERKS0_ @355
    _ZN7CAN4CQF9ARTF_BaseC2EPKcs @356
    _ZN7CAN4CQF9ARTF_BaseC2ERKS0_ @357
    _ZN7CAN4CQF9ARTF_BaseD0Ev @358
    _ZN7CAN4CQF9ARTF_BaseD1Ev @359
    _ZN7CAN4CQF9ARTF_BaseD2Ev @360
    _ZN7CAN4CQF9ARTF_BaseaSERKS0_ @361
    _ZN7omnetpp10fromAnyPtrIN7CAN4CQF11PoolMessageEEEPT_NS_7any_ptrE @362
    _ZN7omnetpp10fromAnyPtrIN7CAN4CQF17IEEE8021QchBEFlowEEEPT_NS_7any_ptrE @363
    _ZN7omnetpp10fromAnyPtrIN7CAN4CQF17IEEE8021QchTTFlowEEEPT_NS_7any_ptrE @364
    _ZN7omnetpp10fromAnyPtrIN7CAN4CQF28CircularRotationMessage_BaseEEEPT_NS_7any_ptrE @365
    _ZN7omnetpp10fromAnyPtrIN7CAN4CQF4HRTFEEEPT_NS_7any_ptrE @366
    _ZN7omnetpp10fromAnyPtrIN7CAN4CQF9ARTF_BaseEEEPT_NS_7any_ptrE @367
    _ZN7omnetpp14check_and_castIPN7CAN4CQF11PoolMessageENS_7cObjectEEET_PT0_ @368
    _ZN7omnetpp14check_and_castIPN7CAN4CQF17IEEE8021QchBEFlowENS_7cObjectEEET_PT0_ @369
    _ZN7omnetpp14check_and_castIPN7CAN4CQF17IEEE8021QchTTFlowENS_7cObjectEEET_PT0_ @370
    _ZN7omnetpp14check_and_castIPN7CAN4CQF28CircularRotationMessage_BaseENS_7cObjectEEET_PT0_ @371
    _ZN7omnetpp14check_and_castIPN7CAN4CQF4HRTFENS_7cObjectEEET_PT0_ @372
    _ZN7omnetpp14check_and_castIPN7CAN4CQF9ARTF_BaseENS_7cObjectEEET_PT0_ @373
    _ZN7omnetpp22check_and_cast_failureIPN7CAN4CQF11PoolMessageENS_7cObjectEEEvPT0_T_ @374
    _ZN7omnetpp22check_and_cast_failureIPN7CAN4CQF17IEEE8021QchBEFlowENS_7cObjectEEEvPT0_T_ @375
    _ZN7omnetpp22check_and_cast_failureIPN7CAN4CQF17IEEE8021QchTTFlowENS_7cObjectEEEvPT0_T_ @376
    _ZN7omnetpp22check_and_cast_failureIPN7CAN4CQF28CircularRotationMessage_BaseENS_7cObjectEEEvPT0_T_ @377
    _ZN7omnetpp22check_and_cast_failureIPN7CAN4CQF4HRTFENS_7cObjectEEEvPT0_T_ @378
    _ZN7omnetpp22check_and_cast_failureIPN7CAN4CQF9ARTF_BaseENS_7cObjectEEEvPT0_T_ @379
    _ZN7omnetpplsIN9CoRE4INET6BufferEEENSt9enable_ifIXsr3std10is_base_ofINS_7cObjectET_EE5valueERSoE4typeES6_PKS5_ @380
    _ZN8nlohmann16json_abi_v3_11_310basic_jsonISt3mapSt6vectorNSt7__cxx1112basic_stringIcSt11char_traitsIcESaIcEEEbxydSaNS0_14adl_serializerES3_IhSaIhEEvE10json_value7destroyENS0_6detail7value_tE @381
    _ZN8nlohmann16json_abi_v3_11_310basic_jsonISt3mapSt6vectorNSt7__cxx1112basic_stringIcSt11char_traitsIcESaIcEEEbxydSaNS0_14adl_serializerES3_IhSaIhEEvE10json_valueC2ENS0_6detail7value_tE @382
    _ZN8nlohmann16json_abi_v3_11_310basic_jsonISt3mapSt6vectorNSt7__cxx1112basic_stringIcSt11char_traitsIcESaIcEEEbxydSaNS0_14adl_serializerES3_IhSaIhEEvE10json_valueC2ERKNS0_27byte_container_with_subtypeISC_EE @383
    _ZN8nlohmann16json_abi_v3_11_310basic_jsonISt3mapSt6vectorNSt7__cxx1112basic_stringIcSt11char_traitsIcESaIcEEEbxydSaNS0_14adl_serializerES3_IhSaIhEEvE10json_valueC2ERKS2_IS9_SD_St4lessIvESaISt4pairIKS9_SD_EEE @384
    _ZN8nlohmann16json_abi_v3_11_310basic_jsonISt3mapSt6vectorNSt7__cxx1112basic_stringIcSt11char_traitsIcESaIcEEEbxydSaNS0_14adl_serializerES3_IhSaIhEEvE10json_valueC2ERKS3_ISD_SaISD_EE @385
    _ZN8nlohmann16json_abi_v3_11_310basic_jsonISt3mapSt6vectorNSt7__cxx1112basic_stringIcSt11char_traitsIcESaIcEEEbxydSaNS0_14adl_serializerES3_IhSaIhEEvE10json_valueC2ERKS9_ @386
    _ZN8nlohmann16json_abi_v3_11_310basic_jsonISt3mapSt6vectorNSt7__cxx1112basic_stringIcSt11char_traitsIcESaIcEEEbxydSaNS0_14adl_serializerES3_IhSaIhEEvE10json_valueC2Eb @387
    _ZN8nlohmann16json_abi_v3_11_310basic_jsonISt3mapSt6vectorNSt7__cxx1112basic_stringIcSt11char_traitsIcESaIcEEEbxydSaNS0_14adl_serializerES3_IhSaIhEEvE10json_valueC2Ed @388
    _ZN8nlohmann16json_abi_v3_11_310basic_jsonISt3mapSt6vectorNSt7__cxx1112basic_stringIcSt11char_traitsIcESaIcEEEbxydSaNS0_14adl_serializerES3_IhSaIhEEvE10json_valueC2Ex @389
    _ZN8nlohmann16json_abi_v3_11_310basic_jsonISt3mapSt6vectorNSt7__cxx1112basic_stringIcSt11char_traitsIcESaIcEEEbxydSaNS0_14adl_serializerES3_IhSaIhEEvE10json_valueC2Ey @390
    _ZN8nlohmann16json_abi_v3_11_310basic_jsonISt3mapSt6vectorNSt7__cxx1112basic_stringIcSt11char_traitsIcESaIcEEEbxydSaNS0_14adl_serializerES3_IhSaIhEEvE10set_parentERSD_y @391
    _ZN8nlohmann16json_abi_v3_11_310basic_jsonISt3mapSt6vectorNSt7__cxx1112basic_stringIcSt11char_traitsIcESaIcEEEbxydSaNS0_14adl_serializerES3_IhSaIhEEvE11set_parentsEv @392
    _ZN8nlohmann16json_abi_v3_11_310basic_jsonISt3mapSt6vectorNSt7__cxx1112basic_stringIcSt11char_traitsIcESaIcEEEbxydSaNS0_14adl_serializerES3_IhSaIhEEvE4dataC2ENS0_6detail7value_tE @393
    _ZN8nlohmann16json_abi_v3_11_310basic_jsonISt3mapSt6vectorNSt7__cxx1112basic_stringIcSt11char_traitsIcESaIcEEEbxydSaNS0_14adl_serializerES3_IhSaIhEEvE4dataC2Ev @394
    _ZN8nlohmann16json_abi_v3_11_310basic_jsonISt3mapSt6vectorNSt7__cxx1112basic_stringIcSt11char_traitsIcESaIcEEEbxydSaNS0_14adl_serializerES3_IhSaIhEEvE4dataD2Ev @395
    _ZN8nlohmann16json_abi_v3_11_310basic_jsonISt3mapSt6vectorNSt7__cxx1112basic_stringIcSt11char_traitsIcESaIcEEEbxydSaNS0_14adl_serializerES3_IhSaIhEEvE5arrayESt16initializer_listINS0_6detail8json_refISD_EEE @396
    _ZN8nlohmann16json_abi_v3_11_310basic_jsonISt3mapSt6vectorNSt7__cxx1112basic_stringIcSt11char_traitsIcESaIcEEEbxydSaNS0_14adl_serializerES3_IhSaIhEEvE6createINS0_27byte_container_with_subtypeISC_EEJEEEPT_DpOT0_ @397
    _ZN8nlohmann16json_abi_v3_11_310basic_jsonISt3mapSt6vectorNSt7__cxx1112basic_stringIcSt11char_traitsIcESaIcEEEbxydSaNS0_14adl_serializerES3_IhSaIhEEvE6createINS0_27byte_container_with_subtypeISC_EEJRKSG_EEEPT_DpOT0_ @398
    _ZN8nlohmann16json_abi_v3_11_310basic_jsonISt3mapSt6vectorNSt7__cxx1112basic_stringIcSt11char_traitsIcESaIcEEEbxydSaNS0_14adl_serializerES3_IhSaIhEEvE6createIS2_IS9_SD_St4lessIvESaISt4pairIKS9_SD_EEEJEEEPT_DpOT0_ @399
    _ZN8nlohmann16json_abi_v3_11_310basic_jsonISt3mapSt6vectorNSt7__cxx1112basic_stringIcSt11char_traitsIcESaIcEEEbxydSaNS0_14adl_serializerES3_IhSaIhEEvE6createIS2_IS9_SD_St4lessIvESaISt4pairIKS9_SD_EEEJRKSL_EEEPT_DpOT0_ @400
    _ZN8nlohmann16json_abi_v3_11_310basic_jsonISt3mapSt6vectorNSt7__cxx1112basic_stringIcSt11char_traitsIcESaIcEEEbxydSaNS0_14adl_serializerES3_IhSaIhEEvE6createIS3_ISD_SaISD_EEJEEEPT_DpOT0_ @401
    _ZN8nlohmann16json_abi_v3_11_310basic_jsonISt3mapSt6vectorNSt7__cxx1112basic_stringIcSt11char_traitsIcESaIcEEEbxydSaNS0_14adl_serializerES3_IhSaIhEEvE6createIS3_ISD_SaISD_EEJPKNS0_6detail8json_refISD_EESL_EEEPT_DpOT0_ @402
    _ZN8nlohmann16json_abi_v3_11_310basic_jsonISt3mapSt6vectorNSt7__cxx1112basic_stringIcSt11char_traitsIcESaIcEEEbxydSaNS0_14adl_serializerES3_IhSaIhEEvE6createIS3_ISD_SaISD_EEJRKSG_EEEPT_DpOT0_ @403
    _ZN8nlohmann16json_abi_v3_11_310basic_jsonISt3mapSt6vectorNSt7__cxx1112basic_stringIcSt11char_traitsIcESaIcEEEbxydSaNS0_14adl_serializerES3_IhSaIhEEvE6createIS9_JRA1_KcEEEPT_DpOT0_ @404
    _ZN8nlohmann16json_abi_v3_11_310basic_jsonISt3mapSt6vectorNSt7__cxx1112basic_stringIcSt11char_traitsIcESaIcEEEbxydSaNS0_14adl_serializerES3_IhSaIhEEvE6createIS9_JRKS9_EEEPT_DpOT0_ @405
    _ZN8nlohmann16json_abi_v3_11_310basic_jsonISt3mapSt6vectorNSt7__cxx1112basic_stringIcSt11char_traitsIcESaIcEEEbxydSaNS0_14adl_serializerES3_IhSaIhEEvE9push_backERKSD_ @406
    _ZN8nlohmann16json_abi_v3_11_310basic_jsonISt3mapSt6vectorNSt7__cxx1112basic_stringIcSt11char_traitsIcESaIcEEEbxydSaNS0_14adl_serializerES3_IhSaIhEEvEC2EDn @407
    _ZN8nlohmann16json_abi_v3_11_310basic_jsonISt3mapSt6vectorNSt7__cxx1112basic_stringIcSt11char_traitsIcESaIcEEEbxydSaNS0_14adl_serializerES3_IhSaIhEEvEC2ENS0_6detail7value_tE @408
    _ZN8nlohmann16json_abi_v3_11_310basic_jsonISt3mapSt6vectorNSt7__cxx1112basic_stringIcSt11char_traitsIcESaIcEEEbxydSaNS0_14adl_serializerES3_IhSaIhEEvEC2EOSD_ @409
    _ZN8nlohmann16json_abi_v3_11_310basic_jsonISt3mapSt6vectorNSt7__cxx1112basic_stringIcSt11char_traitsIcESaIcEEEbxydSaNS0_14adl_serializerES3_IhSaIhEEvEC2ERKSD_ @410
    _ZN8nlohmann16json_abi_v3_11_310basic_jsonISt3mapSt6vectorNSt7__cxx1112basic_stringIcSt11char_traitsIcESaIcEEEbxydSaNS0_14adl_serializerES3_IhSaIhEEvEC2ESt16initializer_listINS0_6detail8json_refISD_EEEbNSF_7value_tE @411
    _ZN8nlohmann16json_abi_v3_11_310basic_jsonISt3mapSt6vectorNSt7__cxx1112basic_stringIcSt11char_traitsIcESaIcEEEbxydSaNS0_14adl_serializerES3_IhSaIhEEvEC2INS0_6detail8json_refISD_EELi0EEERKT_ @412
    _ZN8nlohmann16json_abi_v3_11_310basic_jsonISt3mapSt6vectorNSt7__cxx1112basic_stringIcSt11char_traitsIcESaIcEEEbxydSaNS0_14adl_serializerES3_IhSaIhEEvEC2IRKddLi0EEEOT_ @413
    _ZN8nlohmann16json_abi_v3_11_310basic_jsonISt3mapSt6vectorNSt7__cxx1112basic_stringIcSt11char_traitsIcESaIcEEEbxydSaNS0_14adl_serializerES3_IhSaIhEEvEC2IddLi0EEEOT_ @414
    _ZN8nlohmann16json_abi_v3_11_310basic_jsonISt3mapSt6vectorNSt7__cxx1112basic_stringIcSt11char_traitsIcESaIcEEEbxydSaNS0_14adl_serializerES3_IhSaIhEEvEC2IjjLi0EEEOT_ @415
    _ZN8nlohmann16json_abi_v3_11_310basic_jsonISt3mapSt6vectorNSt7__cxx1112basic_stringIcSt11char_traitsIcESaIcEEEbxydSaNS0_14adl_serializerES3_IhSaIhEEvED2Ev @416
    _ZN8nlohmann16json_abi_v3_11_310basic_jsonISt3mapSt6vectorNSt7__cxx1112basic_stringIcSt11char_traitsIcESaIcEEEbxydSaNS0_14adl_serializerES3_IhSaIhEEvEaSESD_ @417
    _ZN8nlohmann16json_abi_v3_11_310basic_jsonISt3mapSt6vectorNSt7__cxx1112basic_stringIcSt11char_traitsIcESaIcEEEbxydSaNS0_14adl_serializerES3_IhSaIhEEvEixES9_ @418
    _ZN8nlohmann16json_abi_v3_11_310basic_jsonISt3mapSt6vectorNSt7__cxx1112basic_stringIcSt11char_traitsIcESaIcEEEbxydSaNS0_14adl_serializerES3_IhSaIhEEvEixIKcEERSD_PT_ @419
    _ZN8nlohmann16json_abi_v3_11_314adl_serializerIdvE7to_jsonINS0_10basic_jsonISt3mapSt6vectorNSt7__cxx1112basic_stringIcSt11char_traitsIcESaIcEEEbxydSaS1_S6_IhSaIhEEvEERKdEEDTcmclL_ZNS0_12_GLOBAL__N_17to_jsonEEfp_clsr3stdE7forwardIT0_Efp0_EEcvv_EERT_OSJ_ @420
    _ZN8nlohmann16json_abi_v3_11_314adl_serializerIdvE7to_jsonINS0_10basic_jsonISt3mapSt6vectorNSt7__cxx1112basic_stringIcSt11char_traitsIcESaIcEEEbxydSaS1_S6_IhSaIhEEvEEdEEDTcmclL_ZNS0_12_GLOBAL__N_17to_jsonEEfp_clsr3stdE7forwardIT0_Efp0_EEcvv_EERT_OSH_ @421
    _ZN8nlohmann16json_abi_v3_11_314adl_serializerIjvE7to_jsonINS0_10basic_jsonISt3mapSt6vectorNSt7__cxx1112basic_stringIcSt11char_traitsIcESaIcEEEbxydSaS1_S6_IhSaIhEEvEEjEEDTcmclL_ZNS0_12_GLOBAL__N_17to_jsonEEfp_clsr3stdE7forwardIT0_Efp0_EEcvv_EERT_OSH_ @422
    _ZN8nlohmann16json_abi_v3_11_327byte_container_with_subtypeISt6vectorIhSaIhEEEC2ERKS5_ @423
    _ZN8nlohmann16json_abi_v3_11_327byte_container_with_subtypeISt6vectorIhSaIhEEEC2Ev @424
    _ZN8nlohmann16json_abi_v3_11_327byte_container_with_subtypeISt6vectorIhSaIhEEED2Ev @425
    _ZN8nlohmann16json_abi_v3_11_36detail10serializerINS0_10basic_jsonISt3mapSt6vectorNSt7__cxx1112basic_stringIcSt11char_traitsIcESaIcEEEbxydSaNS0_14adl_serializerES5_IhSaIhEEvEEE10dump_floatEd @426
    _ZN8nlohmann16json_abi_v3_11_36detail10serializerINS0_10basic_jsonISt3mapSt6vectorNSt7__cxx1112basic_stringIcSt11char_traitsIcESaIcEEEbxydSaNS0_14adl_serializerES5_IhSaIhEEvEEE10dump_floatEdSt17integral_constantIbLb1EE @427
    _ZN8nlohmann16json_abi_v3_11_36detail10serializerINS0_10basic_jsonISt3mapSt6vectorNSt7__cxx1112basic_stringIcSt11char_traitsIcESaIcEEEbxydSaNS0_14adl_serializerES5_IhSaIhEEvEEE11remove_signEx @428
    _ZN8nlohmann16json_abi_v3_11_36detail10serializerINS0_10basic_jsonISt3mapSt6vectorNSt7__cxx1112basic_stringIcSt11char_traitsIcESaIcEEEbxydSaNS0_14adl_serializerES5_IhSaIhEEvEEE12count_digitsEy @429
    _ZN8nlohmann16json_abi_v3_11_36detail10serializerINS0_10basic_jsonISt3mapSt6vectorNSt7__cxx1112basic_stringIcSt11char_traitsIcESaIcEEEbxydSaNS0_14adl_serializerES5_IhSaIhEEvEEE12dump_escapedERKSB_b @430
    _ZN8nlohmann16json_abi_v3_11_36detail10serializerINS0_10basic_jsonISt3mapSt6vectorNSt7__cxx1112basic_stringIcSt11char_traitsIcESaIcEEEbxydSaNS0_14adl_serializerES5_IhSaIhEEvEEE12dump_integerIhLi0EEEvT_ @431
    _ZN8nlohmann16json_abi_v3_11_36detail10serializerINS0_10basic_jsonISt3mapSt6vectorNSt7__cxx1112basic_stringIcSt11char_traitsIcESaIcEEEbxydSaNS0_14adl_serializerES5_IhSaIhEEvEEE12dump_integerIxLi0EEEvT_ @432
    _ZN8nlohmann16json_abi_v3_11_36detail10serializerINS0_10basic_jsonISt3mapSt6vectorNSt7__cxx1112basic_stringIcSt11char_traitsIcESaIcEEEbxydSaNS0_14adl_serializerES5_IhSaIhEEvEEE12dump_integerIyLi0EEEvT_ @433
    _ZN8nlohmann16json_abi_v3_11_36detail10serializerINS0_10basic_jsonISt3mapSt6vectorNSt7__cxx1112basic_stringIcSt11char_traitsIcESaIcEEEbxydSaNS0_14adl_serializerES5_IhSaIhEEvEEE18is_negative_numberIhLi0EEEbT_ @434
    _ZN8nlohmann16json_abi_v3_11_36detail10serializerINS0_10basic_jsonISt3mapSt6vectorNSt7__cxx1112basic_stringIcSt11char_traitsIcESaIcEEEbxydSaNS0_14adl_serializerES5_IhSaIhEEvEEE18is_negative_numberIxLi0EEEbT_ @435
    _ZN8nlohmann16json_abi_v3_11_36detail10serializerINS0_10basic_jsonISt3mapSt6vectorNSt7__cxx1112basic_stringIcSt11char_traitsIcESaIcEEEbxydSaNS0_14adl_serializerES5_IhSaIhEEvEEE18is_negative_numberIyLi0EEEbT_ @436
    _ZN8nlohmann16json_abi_v3_11_36detail10serializerINS0_10basic_jsonISt3mapSt6vectorNSt7__cxx1112basic_stringIcSt11char_traitsIcESaIcEEEbxydSaNS0_14adl_serializerES5_IhSaIhEEvEEE4dumpERKSF_bbjj @437
    _ZN8nlohmann16json_abi_v3_11_36detail10serializerINS0_10basic_jsonISt3mapSt6vectorNSt7__cxx1112basic_stringIcSt11char_traitsIcESaIcEEEbxydSaNS0_14adl_serializerES5_IhSaIhEEvEEE6decodeERhRjh @438
    _ZN8nlohmann16json_abi_v3_11_36detail10serializerINS0_10basic_jsonISt3mapSt6vectorNSt7__cxx1112basic_stringIcSt11char_traitsIcESaIcEEEbxydSaNS0_14adl_serializerES5_IhSaIhEEvEEE9hex_bytesEh @439
    _ZN8nlohmann16json_abi_v3_11_36detail10serializerINS0_10basic_jsonISt3mapSt6vectorNSt7__cxx1112basic_stringIcSt11char_traitsIcESaIcEEEbxydSaNS0_14adl_serializerES5_IhSaIhEEvEEEC2ESt10shared_ptrINS1_23output_adapter_protocolIcEEEcNS1_15error_handler_tE @440
    _ZN8nlohmann16json_abi_v3_11_36detail10serializerINS0_10basic_jsonISt3mapSt6vectorNSt7__cxx1112basic_stringIcSt11char_traitsIcESaIcEEEbxydSaNS0_14adl_serializerES5_IhSaIhEEvEEED2Ev @441
    _ZN8nlohmann16json_abi_v3_11_36detail10type_error6createIDnLi0EEES2_iRKNSt7__cxx1112basic_stringIcSt11char_traitsIcESaIcEEET_ @442
    _ZN8nlohmann16json_abi_v3_11_36detail10type_error6createIPKNS0_10basic_jsonISt3mapSt6vectorNSt7__cxx1112basic_stringIcSt11char_traitsIcESaIcEEEbxydSaNS0_14adl_serializerES6_IhSaIhEEvEELi0EEES2_iRKSC_T_ @443
    _ZN8nlohmann16json_abi_v3_11_36detail10type_error6createIPNS0_10basic_jsonISt3mapSt6vectorNSt7__cxx1112basic_stringIcSt11char_traitsIcESaIcEEEbxydSaNS0_14adl_serializerES6_IhSaIhEEvEELi0EEES2_iRKSC_T_ @444
    _ZN8nlohmann16json_abi_v3_11_36detail10type_errorC2EiPKc @445
    _ZN8nlohmann16json_abi_v3_11_36detail10type_errorD0Ev @446
    _ZN8nlohmann16json_abi_v3_11_36detail10type_errorD2Ev @447
    _ZN8nlohmann16json_abi_v3_11_36detail11concat_intoINSt7__cxx1112basic_stringIcSt11char_traitsIcESaIcEEEEEvRT_ @448
    _ZN8nlohmann16json_abi_v3_11_36detail11concat_intoINSt7__cxx1112basic_stringIcSt11char_traitsIcESaIcEEEPKcJELi0EEEvRT_OT0_DpOT1_ @449
    _ZN8nlohmann16json_abi_v3_11_36detail11concat_intoINSt7__cxx1112basic_stringIcSt11char_traitsIcESaIcEEERA17_KcJRKS8_cS8_RA3_S9_ELi0EEEvRT_OT0_DpOT1_ @450
    _ZN8nlohmann16json_abi_v3_11_36detail11concat_intoINSt7__cxx1112basic_stringIcSt11char_traitsIcESaIcEEERA29_KcJPS9_ELi0EEEvRT_OT0_DpOT1_ @451
    _ZN8nlohmann16json_abi_v3_11_36detail11concat_intoINSt7__cxx1112basic_stringIcSt11char_traitsIcESaIcEEERA29_KcJS8_RA5_S9_S8_ELi0EEEvRT_OT0_DpOT1_ @452
    _ZN8nlohmann16json_abi_v3_11_36detail11concat_intoINSt7__cxx1112basic_stringIcSt11char_traitsIcESaIcEEERA39_KcJS8_ELi0EEEvRT_OT0_DpOT1_ @453
    _ZN8nlohmann16json_abi_v3_11_36detail11concat_intoINSt7__cxx1112basic_stringIcSt11char_traitsIcESaIcEEERA3_KcJELi0EEEvRT_OT0_DpOT1_ @454
    _ZN8nlohmann16json_abi_v3_11_36detail11concat_intoINSt7__cxx1112basic_stringIcSt11char_traitsIcESaIcEEERA51_KcJPS9_ELi0EEEvRT_OT0_DpOT1_ @455
    _ZN8nlohmann16json_abi_v3_11_36detail11concat_intoINSt7__cxx1112basic_stringIcSt11char_traitsIcESaIcEEERA52_KcJPS9_ELi0EEEvRT_OT0_DpOT1_ @456
    _ZN8nlohmann16json_abi_v3_11_36detail11concat_intoINSt7__cxx1112basic_stringIcSt11char_traitsIcESaIcEEERA5_KcJS8_ELi0EEEvRT_OT0_DpOT1_ @457
    _ZN8nlohmann16json_abi_v3_11_36detail11concat_intoINSt7__cxx1112basic_stringIcSt11char_traitsIcESaIcEEERKS8_JELi0EEEvRT_OT0_DpOT1_ @458
    _ZN8nlohmann16json_abi_v3_11_36detail11concat_intoINSt7__cxx1112basic_stringIcSt11char_traitsIcESaIcEEERKS8_JcS8_RA3_KcELi0EEEvRT_OT0_DpOT1_ @459
    _ZN8nlohmann16json_abi_v3_11_36detail11concat_intoINSt7__cxx1112basic_stringIcSt11char_traitsIcESaIcEEES8_JELi0EEEvRT_OT0_DpOT1_ @460
    _ZN8nlohmann16json_abi_v3_11_36detail11concat_intoINSt7__cxx1112basic_stringIcSt11char_traitsIcESaIcEEES8_JRA3_KcELi0EEEvRT_OT0_DpOT1_ @461
    _ZN8nlohmann16json_abi_v3_11_36detail11concat_intoINSt7__cxx1112basic_stringIcSt11char_traitsIcESaIcEEES8_JRA5_KcS8_ELi0EEEvRT_OT0_DpOT1_ @462
    _ZN8nlohmann16json_abi_v3_11_36detail11concat_intoINSt7__cxx1112basic_stringIcSt11char_traitsIcESaIcEEES8_JRKS8_ELi0EEEvRT_OT0_DpOT1_ @463
    _ZN8nlohmann16json_abi_v3_11_36detail11concat_intoINSt7__cxx1112basic_stringIcSt11char_traitsIcESaIcEEES8_JS8_RKS8_ELi0EEEvRT_OT0_DpOT1_ @464
    _ZN8nlohmann16json_abi_v3_11_36detail11concat_intoINSt7__cxx1112basic_stringIcSt11char_traitsIcESaIcEEEcJS8_RA3_KcELi0EEEvRT_OT0_DpOT1_ @465
    _ZN8nlohmann16json_abi_v3_11_36detail11other_error6createIDnLi0EEES2_iRKNSt7__cxx1112basic_stringIcSt11char_traitsIcESaIcEEET_ @466
    _ZN8nlohmann16json_abi_v3_11_36detail11other_errorC2EiPKc @467
    _ZN8nlohmann16json_abi_v3_11_36detail11other_errorD0Ev @468
    _ZN8nlohmann16json_abi_v3_11_36detail11other_errorD2Ev @469
    _ZN8nlohmann16json_abi_v3_11_36detail12static_constINS1_10to_json_fnEE5valueE @470 DATA
    _ZN8nlohmann16json_abi_v3_11_36detail13binary_writerINS0_10basic_jsonISt3mapSt6vectorNSt7__cxx1112basic_stringIcSt11char_traitsIcESaIcEEEbxydSaNS0_14adl_serializerES5_IhSaIhEEvEEcE12to_char_typeIccLPv0EEEcT_ @471
    _ZN8nlohmann16json_abi_v3_11_36detail13concat_lengthEv @472
    _ZN8nlohmann16json_abi_v3_11_36detail13concat_lengthIJEEEyPKcDpRKT_ @473
    _ZN8nlohmann16json_abi_v3_11_36detail13concat_lengthIJNSt7__cxx1112basic_stringIcSt11char_traitsIcESaIcEEEA3_cEEEycDpRKT_ @474
    _ZN8nlohmann16json_abi_v3_11_36detail13concat_lengthIJNSt7__cxx1112basic_stringIcSt11char_traitsIcESaIcEEEA5_cS8_EEEyPKcDpRKT_ @475
    _ZN8nlohmann16json_abi_v3_11_36detail13concat_lengthIJNSt7__cxx1112basic_stringIcSt11char_traitsIcESaIcEEEEEEyPKcDpRKT_ @476
    _ZN8nlohmann16json_abi_v3_11_36detail13concat_lengthIJNSt7__cxx1112basic_stringIcSt11char_traitsIcESaIcEEEcS8_A3_cEEEyPKcDpRKT_ @477
    _ZN8nlohmann16json_abi_v3_11_36detail13concat_lengthIJPKcEEEyS4_DpRKT_ @478
    _ZN8nlohmann16json_abi_v3_11_36detail13concat_lengthINSt7__cxx1112basic_stringIcSt11char_traitsIcESaIcEEEJA3_cEEEyRKT_DpRKT0_ @479
    _ZN8nlohmann16json_abi_v3_11_36detail13concat_lengthINSt7__cxx1112basic_stringIcSt11char_traitsIcESaIcEEEJA5_cS8_EEEyRKT_DpRKT0_ @480
    _ZN8nlohmann16json_abi_v3_11_36detail13concat_lengthINSt7__cxx1112basic_stringIcSt11char_traitsIcESaIcEEEJEEEyRKT_DpRKT0_ @481
    _ZN8nlohmann16json_abi_v3_11_36detail13concat_lengthINSt7__cxx1112basic_stringIcSt11char_traitsIcESaIcEEEJS8_EEEyRKT_DpRKT0_ @482
    _ZN8nlohmann16json_abi_v3_11_36detail13concat_lengthINSt7__cxx1112basic_stringIcSt11char_traitsIcESaIcEEEJS8_S8_EEEyRKT_DpRKT0_ @483
    _ZN8nlohmann16json_abi_v3_11_36detail13concat_lengthINSt7__cxx1112basic_stringIcSt11char_traitsIcESaIcEEEJcS8_A3_cEEEyRKT_DpRKT0_ @484
    _ZN8nlohmann16json_abi_v3_11_36detail14output_adapterIcNSt7__cxx1112basic_stringIcSt11char_traitsIcESaIcEEEEC2ERS8_ @485
    _ZN8nlohmann16json_abi_v3_11_36detail14output_adapterIcNSt7__cxx1112basic_stringIcSt11char_traitsIcESaIcEEEED2Ev @486
    _ZN8nlohmann16json_abi_v3_11_36detail14output_adapterIcNSt7__cxx1112basic_stringIcSt11char_traitsIcESaIcEEEEcvSt10shared_ptrINS1_23output_adapter_protocolIcEEEEv @487
    _ZN8nlohmann16json_abi_v3_11_36detail20external_constructorILNS1_7value_tE6EE9constructINS0_10basic_jsonISt3mapSt6vectorNSt7__cxx1112basic_stringIcSt11char_traitsIcESaIcEEEbxydSaNS0_14adl_serializerES8_IhSaIhEEvEEEEvRT_NSJ_17number_unsigned_tE @488
    _ZN8nlohmann16json_abi_v3_11_36detail20external_constructorILNS1_7value_tE7EE9constructINS0_10basic_jsonISt3mapSt6vectorNSt7__cxx1112basic_stringIcSt11char_traitsIcESaIcEEEbxydSaNS0_14adl_serializerES8_IhSaIhEEvEEEEvRT_NSJ_14number_float_tE @489
    _ZN8nlohmann16json_abi_v3_11_36detail21output_string_adapterIcNSt7__cxx1112basic_stringIcSt11char_traitsIcESaIcEEEE15write_characterEc @490
    _ZN8nlohmann16json_abi_v3_11_36detail21output_string_adapterIcNSt7__cxx1112basic_stringIcSt11char_traitsIcESaIcEEEE16write_charactersEPKcy @491
    _ZN8nlohmann16json_abi_v3_11_36detail21output_string_adapterIcNSt7__cxx1112basic_stringIcSt11char_traitsIcESaIcEEEEC2ERS8_ @492
    _ZN8nlohmann16json_abi_v3_11_36detail21output_string_adapterIcNSt7__cxx1112basic_stringIcSt11char_traitsIcESaIcEEEED0Ev @493
    _ZN8nlohmann16json_abi_v3_11_36detail21output_string_adapterIcNSt7__cxx1112basic_stringIcSt11char_traitsIcESaIcEEEED2Ev @494
    _ZN8nlohmann16json_abi_v3_11_36detail23output_adapter_protocolIcEC2Ev @495
    _ZN8nlohmann16json_abi_v3_11_36detail23output_adapter_protocolIcED0Ev @496
    _ZN8nlohmann16json_abi_v3_11_36detail23output_adapter_protocolIcED2Ev @497
    _ZN8nlohmann16json_abi_v3_11_36detail6concatINSt7__cxx1112basic_stringIcSt11char_traitsIcESaIcEEEJRA17_KcRKS8_cS8_RA3_S9_EEET_DpOT0_ @498
    _ZN8nlohmann16json_abi_v3_11_36detail6concatINSt7__cxx1112basic_stringIcSt11char_traitsIcESaIcEEEJRA29_KcPS9_EEET_DpOT0_ @499
    _ZN8nlohmann16json_abi_v3_11_36detail6concatINSt7__cxx1112basic_stringIcSt11char_traitsIcESaIcEEEJRA29_KcS8_RA5_S9_S8_EEET_DpOT0_ @500
    _ZN8nlohmann16json_abi_v3_11_36detail6concatINSt7__cxx1112basic_stringIcSt11char_traitsIcESaIcEEEJRA39_KcS8_EEET_DpOT0_ @501
    _ZN8nlohmann16json_abi_v3_11_36detail6concatINSt7__cxx1112basic_stringIcSt11char_traitsIcESaIcEEEJRA51_KcPS9_EEET_DpOT0_ @502
    _ZN8nlohmann16json_abi_v3_11_36detail6concatINSt7__cxx1112basic_stringIcSt11char_traitsIcESaIcEEEJRA52_KcPS9_EEET_DpOT0_ @503
    _ZN8nlohmann16json_abi_v3_11_36detail6concatINSt7__cxx1112basic_stringIcSt11char_traitsIcESaIcEEEJS8_S8_RKS8_EEET_DpOT0_ @504
    _ZN8nlohmann16json_abi_v3_11_36detail7to_jsonINS0_10basic_jsonISt3mapSt6vectorNSt7__cxx1112basic_stringIcSt11char_traitsIcESaIcEEEbxydSaNS0_14adl_serializerES5_IhSaIhEEvEEdLi0EEEvRT_T0_ @505
    _ZN8nlohmann16json_abi_v3_11_36detail7to_jsonINS0_10basic_jsonISt3mapSt6vectorNSt7__cxx1112basic_stringIcSt11char_traitsIcESaIcEEEbxydSaNS0_14adl_serializerES5_IhSaIhEEvEEjLi0EEEvRT_T0_ @506
    _ZN8nlohmann16json_abi_v3_11_36detail8to_charsIdEEPcS3_PKcT_ @507
    _ZN8nlohmann16json_abi_v3_11_36detail9dtoa_impl12grisu2_roundEPciyyyy @508
    _ZN8nlohmann16json_abi_v3_11_36detail9dtoa_impl13format_bufferEPciiii @509
    _ZN8nlohmann16json_abi_v3_11_36detail9dtoa_impl15append_exponentEPci @510
    _ZN8nlohmann16json_abi_v3_11_36detail9dtoa_impl16grisu2_digit_genEPcRiS4_NS2_5diyfpES5_S5_ @511
    _ZN8nlohmann16json_abi_v3_11_36detail9dtoa_impl16reinterpret_bitsIydEET_T0_ @512
    _ZN8nlohmann16json_abi_v3_11_36detail9dtoa_impl18compute_boundariesIdEENS2_10boundariesET_ @513
    _ZN8nlohmann16json_abi_v3_11_36detail9dtoa_impl18find_largest_pow10EjRj @514
    _ZN8nlohmann16json_abi_v3_11_36detail9dtoa_impl36get_cached_power_for_binary_exponentEi @515
    _ZN8nlohmann16json_abi_v3_11_36detail9dtoa_impl5diyfp12normalize_toERKS3_i @516
    _ZN8nlohmann16json_abi_v3_11_36detail9dtoa_impl5diyfp3mulERKS3_S5_ @517
    _ZN8nlohmann16json_abi_v3_11_36detail9dtoa_impl5diyfp3subERKS3_S5_ @518
    _ZN8nlohmann16json_abi_v3_11_36detail9dtoa_impl5diyfp9normalizeES3_ @519
    _ZN8nlohmann16json_abi_v3_11_36detail9dtoa_impl5diyfpC2Eyi @520
    _ZN8nlohmann16json_abi_v3_11_36detail9dtoa_impl6grisu2EPcRiS4_NS2_5diyfpES5_S5_ @521
    _ZN8nlohmann16json_abi_v3_11_36detail9dtoa_impl6grisu2IdEEvPcRiS5_T_ @522
    _ZN8nlohmann16json_abi_v3_11_36detail9exception11diagnosticsB5cxx11EDn @523
    _ZN8nlohmann16json_abi_v3_11_36detail9exception11diagnosticsINS0_10basic_jsonISt3mapSt6vectorNSt7__cxx1112basic_stringIcSt11char_traitsIcESaIcEEEbxydSaNS0_14adl_serializerES6_IhSaIhEEvEEEESC_PKT_ @524
    _ZN8nlohmann16json_abi_v3_11_36detail9exception4nameERKNSt7__cxx1112basic_stringIcSt11char_traitsIcESaIcEEEi @525
    _ZN8nlohmann16json_abi_v3_11_36detail9exceptionC2EiPKc @526
    _ZN8nlohmann16json_abi_v3_11_36detail9exceptionD0Ev @527
    _ZN8nlohmann16json_abi_v3_11_36detail9exceptionD2Ev @528
    _ZN9__gnu_cxx14__alloc_traitsISaIN8nlohmann16json_abi_v3_11_310basic_jsonISt3mapSt6vectorNSt7__cxx1112basic_stringIcSt11char_traitsIcESaIcEEEbxydSaNS2_14adl_serializerES5_IhSaIhEEvEEESF_E17_S_select_on_copyERKSG_ @529
    _ZN9__gnu_cxx14__alloc_traitsISaISt13_Rb_tree_nodeISt4pairIKNSt7__cxx1112basic_stringIcSt11char_traitsIcESaIcEEEN8nlohmann16json_abi_v3_11_310basic_jsonISt3mapSt6vectorS8_bxydSaNSB_14adl_serializerESE_IhSaIhEEvEEEEESK_E17_S_select_on_copyERKSL_ @530
    _ZN9__gnu_cxx14__alloc_traitsISaISt13_Rb_tree_nodeISt4pairIKPN10FiCo4OMNeT12CanDataFrameEN7omnetpp7SimTimeEEEESA_E17_S_select_on_copyERKSB_ @531
    _ZN9__gnu_cxx14__alloc_traitsISaISt13_Rb_tree_nodeISt4pairIKPN10FiCo4OMNeT12CanDataFrameEdEEES8_E17_S_select_on_copyERKS9_ @532
    _ZN9__gnu_cxx14__alloc_traitsISaIhEhE17_S_select_on_copyERKS1_ @533
    _ZN9__gnu_cxx16__aligned_bufferIN8nlohmann16json_abi_v3_11_36detail21output_string_adapterIcNSt7__cxx1112basic_stringIcSt11char_traitsIcESaIcEEEEEE6_M_ptrEv @534
    _ZN9__gnu_cxx16__aligned_bufferIN8nlohmann16json_abi_v3_11_36detail21output_string_adapterIcNSt7__cxx1112basic_stringIcSt11char_traitsIcESaIcEEEEEE7_M_addrEv @535
    _ZN9__gnu_cxx16__aligned_bufferISt4pairIKtNSt7__cxx114listIPN9CoRE4INET6BufferESaIS7_EEEEE6_M_ptrEv @536
    _ZN9__gnu_cxx16__aligned_bufferISt4pairIKtNSt7__cxx114listIPN9CoRE4INET6BufferESaIS7_EEEEE7_M_addrEv @537
    _ZN9__gnu_cxx16__aligned_membufIN7CAN4CQF21GatewayTransformation5QInfoEE6_M_ptrEv @538
    _ZN9__gnu_cxx16__aligned_membufIN7CAN4CQF21GatewayTransformation5QInfoEE7_M_addrEv @539
    _ZN9__gnu_cxx16__aligned_membufIN7CAN4CQF24EDFGatewayTransformation5QInfoEE6_M_ptrEv @540
    _ZN9__gnu_cxx16__aligned_membufIN7CAN4CQF24EDFGatewayTransformation5QInfoEE7_M_addrEv @541
    _ZN9__gnu_cxx16__aligned_membufIN7CAN4CQF24RAEGatewayTransformation5QInfoEE6_M_ptrEv @542
    _ZN9__gnu_cxx16__aligned_membufIN7CAN4CQF24RAEGatewayTransformation5QInfoEE7_M_addrEv @543
    _ZN9__gnu_cxx16__aligned_membufIN7CAN4CQF24VarGatewayTransformation5QInfoEE6_M_ptrEv @544
    _ZN9__gnu_cxx16__aligned_membufIN7CAN4CQF24VarGatewayTransformation5QInfoEE7_M_addrEv @545
    _ZN9__gnu_cxx16__aligned_membufIN7CAN4CQF28TimeoutGatewayTransformation5QInfoEE6_M_ptrEv @546
    _ZN9__gnu_cxx16__aligned_membufIN7CAN4CQF28TimeoutGatewayTransformation5QInfoEE7_M_addrEv @547
    _ZN9__gnu_cxx16__aligned_membufIPN9CoRE4INET6BufferEE6_M_ptrEv @548
    _ZN9__gnu_cxx16__aligned_membufIPN9CoRE4INET6BufferEE7_M_addrEv @549
    _ZN9__gnu_cxx16__aligned_membufISt4pairIKNSt7__cxx1112basic_stringIcSt11char_traitsIcESaIcEEEN8nlohmann16json_abi_v3_11_310basic_jsonISt3mapSt6vectorS7_bxydSaNSA_14adl_serializerESD_IhSaIhEEvEEEE6_M_ptrEv @550
    _ZN9__gnu_cxx16__aligned_membufISt4pairIKNSt7__cxx1112basic_stringIcSt11char_traitsIcESaIcEEEN8nlohmann16json_abi_v3_11_310basic_jsonISt3mapSt6vectorS7_bxydSaNSA_14adl_serializerESD_IhSaIhEEvEEEE7_M_addrEv @551
    _ZN9__gnu_cxx16__aligned_membufISt4pairIKPN10FiCo4OMNeT12CanDataFrameEN7omnetpp7SimTimeEEE6_M_ptrEv @552
    _ZN9__gnu_cxx16__aligned_membufISt4pairIKPN10FiCo4OMNeT12CanDataFrameEN7omnetpp7SimTimeEEE7_M_addrEv @553
    _ZN9__gnu_cxx16__aligned_membufISt4pairIKPN10FiCo4OMNeT12CanDataFrameEdEE6_M_ptrEv @554
    _ZN9__gnu_cxx16__aligned_membufISt4pairIKPN10FiCo4OMNeT12CanDataFrameEdEE7_M_addrEv @555
    _ZN9__gnu_cxx16__aligned_membufISt4pairIKiN7CAN4CQF22CircularRotationBuffer14wcrt_data_infoEEE6_M_ptrEv @556
    _ZN9__gnu_cxx16__aligned_membufISt4pairIKiN7CAN4CQF22CircularRotationBuffer14wcrt_data_infoEEE7_M_addrEv @557
    _ZN9__gnu_cxx16__aligned_membufISt4pairIKiPNSt7__cxx114listIPN7omnetpp8cMessageESaIS7_EEEEE6_M_ptrEv @558
    _ZN9__gnu_cxx16__aligned_membufISt4pairIKiPNSt7__cxx114listIPN7omnetpp8cMessageESaIS7_EEEEE7_M_addrEv @559
    _ZN9__gnu_cxx16__aligned_membufISt4pairIKjNSt7__cxx114listIN7CAN4CQF21GatewayTransformation5QInfoESaIS7_EEEEE6_M_ptrEv @560
    _ZN9__gnu_cxx16__aligned_membufISt4pairIKjNSt7__cxx114listIN7CAN4CQF21GatewayTransformation5QInfoESaIS7_EEEEE7_M_addrEv @561
    _ZN9__gnu_cxx16__aligned_membufISt4pairIKjNSt7__cxx114listIN7CAN4CQF24EDFGatewayTransformation5QInfoESaIS7_EEEEE6_M_ptrEv @562
    _ZN9__gnu_cxx16__aligned_membufISt4pairIKjNSt7__cxx114listIN7CAN4CQF24EDFGatewayTransformation5QInfoESaIS7_EEEEE7_M_addrEv @563
    _ZN9__gnu_cxx16__aligned_membufISt4pairIKjNSt7__cxx114listIN7CAN4CQF24RAEGatewayTransformation5QInfoESaIS7_EEEEE6_M_ptrEv @564
    _ZN9__gnu_cxx16__aligned_membufISt4pairIKjNSt7__cxx114listIN7CAN4CQF24RAEGatewayTransformation5QInfoESaIS7_EEEEE7_M_addrEv @565
    _ZN9__gnu_cxx16__aligned_membufISt4pairIKjNSt7__cxx114listIN7CAN4CQF24VarGatewayTransformation5QInfoESaIS7_EEEEE6_M_ptrEv @566
    _ZN9__gnu_cxx16__aligned_membufISt4pairIKjNSt7__cxx114listIN7CAN4CQF24VarGatewayTransformation5QInfoESaIS7_EEEEE7_M_addrEv @567
    _ZN9__gnu_cxx16__aligned_membufISt4pairIKjNSt7__cxx114listIN7CAN4CQF28TimeoutGatewayTransformation5QInfoESaIS7_EEEEE6_M_ptrEv @568
    _ZN9__gnu_cxx16__aligned_membufISt4pairIKjNSt7__cxx114listIN7CAN4CQF28TimeoutGatewayTransformation5QInfoESaIS7_EEEEE7_M_addrEv @569
    _ZN9__gnu_cxx17__normal_iteratorIPKN7CAN4CQF22CircularRotationBuffer9canfdInfoESt6vectorIS3_SaIS3_EEEC2ERKS5_ @570
    _ZN9__gnu_cxx17__normal_iteratorIPKN7CAN4CQF22CircularRotationBuffer9canfdInfoESt6vectorIS3_SaIS3_EEEC2IPS3_vEERKNS0_IT_S8_EE @571
    _ZN9__gnu_cxx17__normal_iteratorIPKN8nlohmann16json_abi_v3_11_310basic_jsonISt3mapSt6vectorNSt7__cxx1112basic_stringIcSt11char_traitsIcESaIcEEEbxydSaNS2_14adl_serializerES5_IhSaIhEEvEES5_ISF_SaISF_EEEC2ERKSH_ @572
    _ZN9__gnu_cxx17__normal_iteratorIPKN8nlohmann16json_abi_v3_11_310basic_jsonISt3mapSt6vectorNSt7__cxx1112basic_stringIcSt11char_traitsIcESaIcEEEbxydSaNS2_14adl_serializerES5_IhSaIhEEvEES5_ISF_SaISF_EEEppEv @573
    _ZN9__gnu_cxx17__normal_iteratorIPKhSt6vectorIhSaIhEEEC2ERKS2_ @574
    _ZN9__gnu_cxx17__normal_iteratorIPKhSt6vectorIhSaIhEEEppEv @575
    _ZN9__gnu_cxx17__normal_iteratorIPN7CAN4CQF22CircularRotationBuffer9canfdInfoESt6vectorIS3_SaIS3_EEEC2ERKS4_ @576
    _ZN9__gnu_cxx17__normal_iteratorIPN7CAN4CQF22CircularRotationBuffer9canfdInfoESt6vectorIS3_SaIS3_EEEppEv @577
    _ZN9__gnu_cxx17__normal_iteratorIPN7CAN4CQF24RAEGatewayTransformation10order_infoESt6vectorIS3_SaIS3_EEEC2ERKS4_ @578
    _ZN9__gnu_cxx17__normal_iteratorIPN7CAN4CQF24RAEGatewayTransformation10order_infoESt6vectorIS3_SaIS3_EEEmmEv @579
    _ZN9__gnu_cxx17__normal_iteratorIPN7CAN4CQF24RAEGatewayTransformation10order_infoESt6vectorIS3_SaIS3_EEEppEv @580
    _ZN9__gnu_cxx17__normal_iteratorIPN8nlohmann16json_abi_v3_11_310basic_jsonISt3mapSt6vectorNSt7__cxx1112basic_stringIcSt11char_traitsIcESaIcEEEbxydSaNS2_14adl_serializerES5_IhSaIhEEvEES5_ISF_SaISF_EEEC2ERKSG_ @581
    _ZN9__gnu_cxx17__normal_iteratorIPSt4pairIPN10FiCo4OMNeT12CanDataFrameEdESt6vectorIS5_SaIS5_EEEC2ERKS6_ @582
    _ZN9__gnu_cxx17__normal_iteratorIPSt4pairIPN10FiCo4OMNeT12CanDataFrameEdESt6vectorIS5_SaIS5_EEEmmEv @583
    _ZN9__gnu_cxx17__normal_iteratorIPSt4pairIPN10FiCo4OMNeT12CanDataFrameEdESt6vectorIS5_SaIS5_EEEppEv @584
    _ZN9__gnu_cxx17__normal_iteratorIPhSt6vectorIhSaIhEEEC2ERKS1_ @585
    _ZN9__gnu_cxx5__ops10_Iter_predIZN8nlohmann16json_abi_v3_11_310basic_jsonISt3mapSt6vectorNSt7__cxx1112basic_stringIcSt11char_traitsIcESaIcEEEbxydSaNS3_14adl_serializerES6_IhSaIhEEvEC1ESt16initializer_listINS3_6detail8json_refISG_EEEbNSI_7value_tEEUlRKSK_E_EC2ESP_ @586
    _ZN9__gnu_cxx5__ops11__pred_iterIZN8nlohmann16json_abi_v3_11_310basic_jsonISt3mapSt6vectorNSt7__cxx1112basic_stringIcSt11char_traitsIcESaIcEEEbxydSaNS3_14adl_serializerES6_IhSaIhEEvEC1ESt16initializer_listINS3_6detail8json_refISG_EEEbNSI_7value_tEEUlRKSK_E_EENS0_10_Iter_predIT_EESR_ @587
    _ZN9__gnu_cxx5__ops12_Iter_negateIZN8nlohmann16json_abi_v3_11_310basic_jsonISt3mapSt6vectorNSt7__cxx1112basic_stringIcSt11char_traitsIcESaIcEEEbxydSaNS3_14adl_serializerES6_IhSaIhEEvEC1ESt16initializer_listINS3_6detail8json_refISG_EEEbNSI_7value_tEEUlRKSK_E_EC2ESP_ @588
    _ZN9__gnu_cxx5__ops12_Iter_negateIZN8nlohmann16json_abi_v3_11_310basic_jsonISt3mapSt6vectorNSt7__cxx1112basic_stringIcSt11char_traitsIcESaIcEEEbxydSaNS3_14adl_serializerES6_IhSaIhEEvEC1ESt16initializer_listINS3_6detail8json_refISG_EEEbNSI_7value_tEEUlRKSK_E_EclIPSN_EEbT_ @589
    _ZN9__gnu_cxx5__ops8__negateIZN8nlohmann16json_abi_v3_11_310basic_jsonISt3mapSt6vectorNSt7__cxx1112basic_stringIcSt11char_traitsIcESaIcEEEbxydSaNS3_14adl_serializerES6_IhSaIhEEvEC1ESt16initializer_listINS3_6detail8json_refISG_EEEbNSI_7value_tEEUlRKSK_E_EENS0_12_Iter_negateIT_EENS0_10_Iter_predISR_EE @590
    _ZN9__gnu_cxx6__stoaIlicJiEEET0_PFT_PKT1_PPS3_DpT2_EPKcS5_PyS9_ @591
    _ZN9__gnu_cxxeqIPKN8nlohmann16json_abi_v3_11_310basic_jsonISt3mapSt6vectorNSt7__cxx1112basic_stringIcSt11char_traitsIcESaIcEEEbxydSaNS2_14adl_serializerES5_IhSaIhEEvEES5_ISF_SaISF_EEEEbRKNS_17__normal_iteratorIT_T0_EESP_ @592
    _ZN9__gnu_cxxeqIPKhSt6vectorIhSaIhEEEEbRKNS_17__normal_iteratorIT_T0_EESB_ @593
    _ZN9__gnu_cxxeqIPN7CAN4CQF24RAEGatewayTransformation10order_infoESt6vectorIS3_SaIS3_EEEEbRKNS_17__normal_iteratorIT_T0_EESD_ @594
    _ZN9__gnu_cxxeqIPSt4pairIPN10FiCo4OMNeT12CanDataFrameEdESt6vectorIS5_SaIS5_EEEEbRKNS_17__normal_iteratorIT_T0_EESF_ @595
    _ZN9__gnu_cxxltIPN7CAN4CQF24RAEGatewayTransformation10order_infoESt6vectorIS3_SaIS3_EEEEbRKNS_17__normal_iteratorIT_T0_EESD_ @596
    _ZN9__gnu_cxxltIPSt4pairIPN10FiCo4OMNeT12CanDataFrameEdESt6vectorIS5_SaIS5_EEEEbRKNS_17__normal_iteratorIT_T0_EESF_ @597
    _ZN9__gnu_cxxmiIPKN7CAN4CQF22CircularRotationBuffer9canfdInfoESt6vectorIS3_SaIS3_EEEENS_17__normal_iteratorIT_T0_E15difference_typeERKSC_SF_ @598
    _ZN9__gnu_cxxmiIPN7CAN4CQF22CircularRotationBuffer9canfdInfoESt6vectorIS3_SaIS3_EEEENS_17__normal_iteratorIT_T0_E15difference_typeERKSB_SE_ @599
    _ZN9__gnu_cxxmiIPN7CAN4CQF24RAEGatewayTransformation10order_infoESt6vectorIS3_SaIS3_EEEENS_17__normal_iteratorIT_T0_E15difference_typeERKSB_SE_ @600
    _ZN9__gnu_cxxmiIPN8nlohmann16json_abi_v3_11_310basic_jsonISt3mapSt6vectorNSt7__cxx1112basic_stringIcSt11char_traitsIcESaIcEEEbxydSaNS2_14adl_serializerES5_IhSaIhEEvEES5_ISF_SaISF_EEEENS_17__normal_iteratorIT_T0_E15difference_typeERKSM_SP_ @601
    _ZN9__gnu_cxxmiIPSt4pairIPN10FiCo4OMNeT12CanDataFrameEdESt6vectorIS5_SaIS5_EEEENS_17__normal_iteratorIT_T0_E15difference_typeERKSD_SG_ @602
    _ZN9__gnu_cxxneIPKN8nlohmann16json_abi_v3_11_310basic_jsonISt3mapSt6vectorNSt7__cxx1112basic_stringIcSt11char_traitsIcESaIcEEEbxydSaNS2_14adl_serializerES5_IhSaIhEEvEES5_ISF_SaISF_EEEEbRKNS_17__normal_iteratorIT_T0_EESP_ @603
    _ZN9__gnu_cxxneIPKhSt6vectorIhSaIhEEEEbRKNS_17__normal_iteratorIT_T0_EESB_ @604
    _ZN9__gnu_cxxneIPN7CAN4CQF22CircularRotationBuffer9canfdInfoESt6vectorIS3_SaIS3_EEEEbRKNS_17__normal_iteratorIT_T0_EESD_ @605
    _ZN9__gnu_cxxneIPN7CAN4CQF24RAEGatewayTransformation10order_infoESt6vectorIS3_SaIS3_EEEEbRKNS_17__normal_iteratorIT_T0_EESD_ @606
    _ZN9__gnu_cxxneIPSt4pairIPN10FiCo4OMNeT12CanDataFrameEdESt6vectorIS5_SaIS5_EEEEbRKNS_17__normal_iteratorIT_T0_EESF_ @607
    _ZNK19cStdListUMapWatcherItNSt7__cxx114listIPN9CoRE4INET6BufferESaIS4_EEEE15getElemTypeNameEv @608
    _ZNK19cStdListUMapWatcherItNSt7__cxx114listIPN9CoRE4INET6BufferESaIS4_EEEE5atIt2Ev @609
    _ZNK29cStdCollectionUMapWatcherBaseItNSt7__cxx114listIPN9CoRE4INET6BufferESaIS4_EEEE12getClassNameEv @610
    _ZNK29cStdCollectionUMapWatcherBaseItNSt7__cxx114listIPN9CoRE4INET6BufferESaIS4_EEEE2atEi @611
    _ZNK29cStdCollectionUMapWatcherBaseItNSt7__cxx114listIPN9CoRE4INET6BufferESaIS4_EEEE4atItEv @612
    _ZNK29cStdCollectionUMapWatcherBaseItNSt7__cxx114listIPN9CoRE4INET6BufferESaIS4_EEEE4sizeEv @613
    _ZNK7CAN4CQF11PoolMessage10parsimPackEPN7omnetpp11cCommBufferE @614
    _ZNK7CAN4CQF11PoolMessage3dupEv @615
    _ZNK7CAN4CQF11PoolMessage7getPoolB5cxx11Ev @616
    _ZNK7CAN4CQF12AVBInControlINS_20IEEE8021QchInControlIN9CoRE4INET13BaseInControlEEEE5isAVBEPKN4inet10EtherFrameE @617
    _ZNK7CAN4CQF14ARTFDescriptor11doesSupportEPN7omnetpp7cObjectE @618
    _ZNK7CAN4CQF14ARTFDescriptor11getPropertyEPKc @619
    _ZNK7CAN4CQF14ARTFDescriptor12getFieldNameEi @620
    _ZNK7CAN4CQF14ARTFDescriptor13getFieldCountEv @621
    _ZNK7CAN4CQF14ARTFDescriptor13getFieldValueEN7omnetpp7any_ptrEii @622
    _ZNK7CAN4CQF14ARTFDescriptor13setFieldValueEN7omnetpp7any_ptrEiiRKNS1_6cValueE @623
    _ZNK7CAN4CQF14ARTFDescriptor16getFieldPropertyEiPKc @624
    _ZNK7CAN4CQF14ARTFDescriptor16getPropertyNamesEv @625
    _ZNK7CAN4CQF14ARTFDescriptor17getFieldArraySizeEN7omnetpp7any_ptrEi @626
    _ZNK7CAN4CQF14ARTFDescriptor17getFieldTypeFlagsEi @627
    _ZNK7CAN4CQF14ARTFDescriptor17setFieldArraySizeEN7omnetpp7any_ptrEii @628
    _ZNK7CAN4CQF14ARTFDescriptor18getFieldStructNameEi @629
    _ZNK7CAN4CQF14ARTFDescriptor18getFieldTypeStringEi @630
    _ZNK7CAN4CQF14ARTFDescriptor21getFieldPropertyNamesEi @631
    _ZNK7CAN4CQF14ARTFDescriptor21getFieldValueAsStringB5cxx11EN7omnetpp7any_ptrEii @632
    _ZNK7CAN4CQF14ARTFDescriptor21setFieldValueAsStringEN7omnetpp7any_ptrEiiPKc @633
    _ZNK7CAN4CQF14ARTFDescriptor25getFieldDynamicTypeStringEN7omnetpp7any_ptrEii @634
    _ZNK7CAN4CQF14ARTFDescriptor26getFieldStructValuePointerEN7omnetpp7any_ptrEii @635
    _ZNK7CAN4CQF14ARTFDescriptor26setFieldStructValuePointerEN7omnetpp7any_ptrEiiS2_ @636
    _ZNK7CAN4CQF14ARTFDescriptor9findFieldEPKc @637
    _ZNK7CAN4CQF14HRTFDescriptor11doesSupportEPN7omnetpp7cObjectE @638
    _ZNK7CAN4CQF14HRTFDescriptor11getPropertyEPKc @639
    _ZNK7CAN4CQF14HRTFDescriptor12getFieldNameEi @640
    _ZNK7CAN4CQF14HRTFDescriptor13getFieldCountEv @641
    _ZNK7CAN4CQF14HRTFDescriptor13getFieldValueEN7omnetpp7any_ptrEii @642
    _ZNK7CAN4CQF14HRTFDescriptor13setFieldValueEN7omnetpp7any_ptrEiiRKNS1_6cValueE @643
    _ZNK7CAN4CQF14HRTFDescriptor16getFieldPropertyEiPKc @644
    _ZNK7CAN4CQF14HRTFDescriptor16getPropertyNamesEv @645
    _ZNK7CAN4CQF14HRTFDescriptor17getFieldArraySizeEN7omnetpp7any_ptrEi @646
    _ZNK7CAN4CQF14HRTFDescriptor17getFieldTypeFlagsEi @647
    _ZNK7CAN4CQF14HRTFDescriptor17setFieldArraySizeEN7omnetpp7any_ptrEii @648
    _ZNK7CAN4CQF14HRTFDescriptor18getFieldStructNameEi @649
    _ZNK7CAN4CQF14HRTFDescriptor18getFieldTypeStringEi @650
    _ZNK7CAN4CQF14HRTFDescriptor21getFieldPropertyNamesEi @651
    _ZNK7CAN4CQF14HRTFDescriptor21getFieldValueAsStringB5cxx11EN7omnetpp7any_ptrEii @652
    _ZNK7CAN4CQF14HRTFDescriptor21setFieldValueAsStringEN7omnetpp7any_ptrEiiPKc @653
    _ZNK7CAN4CQF14HRTFDescriptor25getFieldDynamicTypeStringEN7omnetpp7any_ptrEii @654
    _ZNK7CAN4CQF14HRTFDescriptor26getFieldStructValuePointerEN7omnetpp7any_ptrEii @655
    _ZNK7CAN4CQF14HRTFDescriptor26setFieldStructValuePointerEN7omnetpp7any_ptrEiiS2_ @656
    _ZNK7CAN4CQF14HRTFDescriptor9findFieldEPKc @657
    _ZNK7CAN4CQF17IEEE8021QchBEFlow10parsimPackEPN7omnetpp11cCommBufferE @658
    _ZNK7CAN4CQF17IEEE8021QchBEFlow16getDisplayStringEv @659
    _ZNK7CAN4CQF17IEEE8021QchBEFlow3dupEv @660
    _ZNK7CAN4CQF17IEEE8021QchBEFlow5getDeEv @661
    _ZNK7CAN4CQF17IEEE8021QchBEFlow6getPcpEv @662
    _ZNK7CAN4CQF17IEEE8021QchBEFlow6getVIDEv @663
    _ZNK7CAN4CQF17IEEE8021QchTTFlow10parsimPackEPN7omnetpp11cCommBufferE @664
    _ZNK7CAN4CQF17IEEE8021QchTTFlow16getDisplayStringEv @665
    _ZNK7CAN4CQF17IEEE8021QchTTFlow3dupEv @666
    _ZNK7CAN4CQF17IEEE8021QchTTFlow5getDeEv @667
    _ZNK7CAN4CQF17IEEE8021QchTTFlow6getPcpEv @668
    _ZNK7CAN4CQF17IEEE8021QchTTFlow6getVIDEv @669
    _ZNK7CAN4CQF21PoolMessageDescriptor11doesSupportEPN7omnetpp7cObjectE @670
    _ZNK7CAN4CQF21PoolMessageDescriptor11getPropertyEPKc @671
    _ZNK7CAN4CQF21PoolMessageDescriptor12getFieldNameEi @672
    _ZNK7CAN4CQF21PoolMessageDescriptor13getFieldCountEv @673
    _ZNK7CAN4CQF21PoolMessageDescriptor13getFieldValueEN7omnetpp7any_ptrEii @674
    _ZNK7CAN4CQF21PoolMessageDescriptor13setFieldValueEN7omnetpp7any_ptrEiiRKNS1_6cValueE @675
    _ZNK7CAN4CQF21PoolMessageDescriptor16getFieldPropertyEiPKc @676
    _ZNK7CAN4CQF21PoolMessageDescriptor16getPropertyNamesEv @677
    _ZNK7CAN4CQF21PoolMessageDescriptor17getFieldArraySizeEN7omnetpp7any_ptrEi @678
    _ZNK7CAN4CQF21PoolMessageDescriptor17getFieldTypeFlagsEi @679
    _ZNK7CAN4CQF21PoolMessageDescriptor17setFieldArraySizeEN7omnetpp7any_ptrEii @680
    _ZNK7CAN4CQF21PoolMessageDescriptor18getFieldStructNameEi @681
    _ZNK7CAN4CQF21PoolMessageDescriptor18getFieldTypeStringEi @682
    _ZNK7CAN4CQF21PoolMessageDescriptor21getFieldPropertyNamesEi @683
    _ZNK7CAN4CQF21PoolMessageDescriptor21getFieldValueAsStringB5cxx11EN7omnetpp7any_ptrEii @684
    _ZNK7CAN4CQF21PoolMessageDescriptor21setFieldValueAsStringEN7omnetpp7any_ptrEiiPKc @685
    _ZNK7CAN4CQF21PoolMessageDescriptor25getFieldDynamicTypeStringEN7omnetpp7any_ptrEii @686
    _ZNK7CAN4CQF21PoolMessageDescriptor26getFieldStructValuePointerEN7omnetpp7any_ptrEii @687
    _ZNK7CAN4CQF21PoolMessageDescriptor26setFieldStructValuePointerEN7omnetpp7any_ptrEiiS2_ @688
    _ZNK7CAN4CQF21PoolMessageDescriptor9findFieldEPKc @689
    _ZNK7CAN4CQF23CircularRotationMessage3dupEv @690
    _ZNK7CAN4CQF24RAEGatewayTransformation10order_info14get_queue_timeEv @691
    _ZNK7CAN4CQF26IEEE8021QchGateControlList13numInitStagesEv @692
    _ZNK7CAN4CQF27IEEE8021QchBEFlowDescriptor11doesSupportEPN7omnetpp7cObjectE @693
    _ZNK7CAN4CQF27IEEE8021QchBEFlowDescriptor11getPropertyEPKc @694
    _ZNK7CAN4CQF27IEEE8021QchBEFlowDescriptor12getFieldNameEi @695
    _ZNK7CAN4CQF27IEEE8021QchBEFlowDescriptor13getFieldCountEv @696
    _ZNK7CAN4CQF27IEEE8021QchBEFlowDescriptor13getFieldValueEN7omnetpp7any_ptrEii @697
    _ZNK7CAN4CQF27IEEE8021QchBEFlowDescriptor13setFieldValueEN7omnetpp7any_ptrEiiRKNS1_6cValueE @698
    _ZNK7CAN4CQF27IEEE8021QchBEFlowDescriptor16getFieldPropertyEiPKc @699
    _ZNK7CAN4CQF27IEEE8021QchBEFlowDescriptor16getPropertyNamesEv @700
    _ZNK7CAN4CQF27IEEE8021QchBEFlowDescriptor17getFieldArraySizeEN7omnetpp7any_ptrEi @701
    _ZNK7CAN4CQF27IEEE8021QchBEFlowDescriptor17getFieldTypeFlagsEi @702
    _ZNK7CAN4CQF27IEEE8021QchBEFlowDescriptor17setFieldArraySizeEN7omnetpp7any_ptrEii @703
    _ZNK7CAN4CQF27IEEE8021QchBEFlowDescriptor18getFieldStructNameEi @704
    _ZNK7CAN4CQF27IEEE8021QchBEFlowDescriptor18getFieldTypeStringEi @705
    _ZNK7CAN4CQF27IEEE8021QchBEFlowDescriptor21getFieldPropertyNamesEi @706
    _ZNK7CAN4CQF27IEEE8021QchBEFlowDescriptor21getFieldValueAsStringB5cxx11EN7omnetpp7any_ptrEii @707
    _ZNK7CAN4CQF27IEEE8021QchBEFlowDescriptor21setFieldValueAsStringEN7omnetpp7any_ptrEiiPKc @708
    _ZNK7CAN4CQF27IEEE8021QchBEFlowDescriptor25getFieldDynamicTypeStringEN7omnetpp7any_ptrEii @709
    _ZNK7CAN4CQF27IEEE8021QchBEFlowDescriptor26getFieldStructValuePointerEN7omnetpp7any_ptrEii @710
    _ZNK7CAN4CQF27IEEE8021QchBEFlowDescriptor26setFieldStructValuePointerEN7omnetpp7any_ptrEiiS2_ @711
    _ZNK7CAN4CQF27IEEE8021QchBEFlowDescriptor9findFieldEPKc @712
    _ZNK7CAN4CQF27IEEE8021QchTTFlowDescriptor11doesSupportEPN7omnetpp7cObjectE @713
    _ZNK7CAN4CQF27IEEE8021QchTTFlowDescriptor11getPropertyEPKc @714
    _ZNK7CAN4CQF27IEEE8021QchTTFlowDescriptor12getFieldNameEi @715
    _ZNK7CAN4CQF27IEEE8021QchTTFlowDescriptor13getFieldCountEv @716
    _ZNK7CAN4CQF27IEEE8021QchTTFlowDescriptor13getFieldValueEN7omnetpp7any_ptrEii @717
    _ZNK7CAN4CQF27IEEE8021QchTTFlowDescriptor13setFieldValueEN7omnetpp7any_ptrEiiRKNS1_6cValueE @718
    _ZNK7CAN4CQF27IEEE8021QchTTFlowDescriptor16getFieldPropertyEiPKc @719
    _ZNK7CAN4CQF27IEEE8021QchTTFlowDescriptor16getPropertyNamesEv @720
    _ZNK7CAN4CQF27IEEE8021QchTTFlowDescriptor17getFieldArraySizeEN7omnetpp7any_ptrEi @721
    _ZNK7CAN4CQF27IEEE8021QchTTFlowDescriptor17getFieldTypeFlagsEi @722
    _ZNK7CAN4CQF27IEEE8021QchTTFlowDescriptor17setFieldArraySizeEN7omnetpp7any_ptrEii @723
    _ZNK7CAN4CQF27IEEE8021QchTTFlowDescriptor18getFieldStructNameEi @724
    _ZNK7CAN4CQF27IEEE8021QchTTFlowDescriptor18getFieldTypeStringEi @725
    _ZNK7CAN4CQF27IEEE8021QchTTFlowDescriptor21getFieldPropertyNamesEi @726
    _ZNK7CAN4CQF27IEEE8021QchTTFlowDescriptor21getFieldValueAsStringB5cxx11EN7omnetpp7any_ptrEii @727
    _ZNK7CAN4CQF27IEEE8021QchTTFlowDescriptor21setFieldValueAsStringEN7omnetpp7any_ptrEiiPKc @728
    _ZNK7CAN4CQF27IEEE8021QchTTFlowDescriptor25getFieldDynamicTypeStringEN7omnetpp7any_ptrEii @729
    _ZNK7CAN4CQF27IEEE8021QchTTFlowDescriptor26getFieldStructValuePointerEN7omnetpp7any_ptrEii @730
    _ZNK7CAN4CQF27IEEE8021QchTTFlowDescriptor26setFieldStructValuePointerEN7omnetpp7any_ptrEiiS2_ @731
    _ZNK7CAN4CQF27IEEE8021QchTTFlowDescriptor9findFieldEPKc @732
    _ZNK7CAN4CQF28CircularRotationMessage_Base10parsimPackEPN7omnetpp11cCommBufferE @733
    _ZNK7CAN4CQF28CircularRotationMessage_Base3dupEv @734
    _ZNK7CAN4CQF33CircularRotationMessageDescriptor11doesSupportEPN7omnetpp7cObjectE @735
    _ZNK7CAN4CQF33CircularRotationMessageDescriptor11getPropertyEPKc @736
    _ZNK7CAN4CQF33CircularRotationMessageDescriptor12getFieldNameEi @737
    _ZNK7CAN4CQF33CircularRotationMessageDescriptor13getFieldCountEv @738
    _ZNK7CAN4CQF33CircularRotationMessageDescriptor13getFieldValueEN7omnetpp7any_ptrEii @739
    _ZNK7CAN4CQF33CircularRotationMessageDescriptor13setFieldValueEN7omnetpp7any_ptrEiiRKNS1_6cValueE @740
    _ZNK7CAN4CQF33CircularRotationMessageDescriptor16getFieldPropertyEiPKc @741
    _ZNK7CAN4CQF33CircularRotationMessageDescriptor16getPropertyNamesEv @742
    _ZNK7CAN4CQF33CircularRotationMessageDescriptor17getFieldArraySizeEN7omnetpp7any_ptrEi @743
    _ZNK7CAN4CQF33CircularRotationMessageDescriptor17getFieldTypeFlagsEi @744
    _ZNK7CAN4CQF33CircularRotationMessageDescriptor17setFieldArraySizeEN7omnetpp7any_ptrEii @745
    _ZNK7CAN4CQF33CircularRotationMessageDescriptor18getFieldStructNameEi @746
    _ZNK7CAN4CQF33CircularRotationMessageDescriptor18getFieldTypeStringEi @747
    _ZNK7CAN4CQF33CircularRotationMessageDescriptor21getFieldPropertyNamesEi @748
    _ZNK7CAN4CQF33CircularRotationMessageDescriptor21getFieldValueAsStringB5cxx11EN7omnetpp7any_ptrEii @749
    _ZNK7CAN4CQF33CircularRotationMessageDescriptor21setFieldValueAsStringEN7omnetpp7any_ptrEiiPKc @750
    _ZNK7CAN4CQF33CircularRotationMessageDescriptor25getFieldDynamicTypeStringEN7omnetpp7any_ptrEii @751
    _ZNK7CAN4CQF33CircularRotationMessageDescriptor26getFieldStructValuePointerEN7omnetpp7any_ptrEii @752
    _ZNK7CAN4CQF33CircularRotationMessageDescriptor26setFieldStructValuePointerEN7omnetpp7any_ptrEiiS2_ @753
    _ZNK7CAN4CQF33CircularRotationMessageDescriptor9findFieldEPKc @754
    _ZNK7CAN4CQF4ARTF13getEncapUnitsB5cxx11Ev @755
    _ZNK7CAN4CQF4ARTF3dupEv @756
    _ZNK7CAN4CQF4HRTF10parsimPackEPN7omnetpp11cCommBufferE @757
    _ZNK7CAN4CQF4HRTF11getEncapnumEv @758
    _ZNK7CAN4CQF4HRTF14getDestinationEv @759
    _ZNK7CAN4CQF4HRTF3dupEv @760
    _ZNK7CAN4CQF4HRTF9getSourceEv @761
    _ZNK7CAN4CQF6Rxgate13numInitStagesEv @762
    _ZNK7CAN4CQF9ARTF_Base10parsimPackEPN7omnetpp11cCommBufferE @763
    _ZNK7CAN4CQF9ARTF_Base14getDestinationEv @764
    _ZNK7CAN4CQF9ARTF_Base3dupEv @765
    _ZNK7CAN4CQF9ARTF_Base9getSourceEv @766
    _ZNK8nlohmann16json_abi_v3_11_310basic_jsonISt3mapSt6vectorNSt7__cxx1112basic_stringIcSt11char_traitsIcESaIcEEEbxydSaNS0_14adl_serializerES3_IhSaIhEEvE16assert_invariantEb @767
    _ZNK8nlohmann16json_abi_v3_11_310basic_jsonISt3mapSt6vectorNSt7__cxx1112basic_stringIcSt11char_traitsIcESaIcEEEbxydSaNS0_14adl_serializerES3_IhSaIhEEvE4dumpEicbNS0_6detail15error_handler_tE @768
    _ZNK8nlohmann16json_abi_v3_11_310basic_jsonISt3mapSt6vectorNSt7__cxx1112basic_stringIcSt11char_traitsIcESaIcEEEbxydSaNS0_14adl_serializerES3_IhSaIhEEvE4sizeEv @769
    _ZNK8nlohmann16json_abi_v3_11_310basic_jsonISt3mapSt6vectorNSt7__cxx1112basic_stringIcSt11char_traitsIcESaIcEEEbxydSaNS0_14adl_serializerES3_IhSaIhEEvE7is_nullEv @770
    _ZNK8nlohmann16json_abi_v3_11_310basic_jsonISt3mapSt6vectorNSt7__cxx1112basic_stringIcSt11char_traitsIcESaIcEEEbxydSaNS0_14adl_serializerES3_IhSaIhEEvE8is_arrayEv @771
    _ZNK8nlohmann16json_abi_v3_11_310basic_jsonISt3mapSt6vectorNSt7__cxx1112basic_stringIcSt11char_traitsIcESaIcEEEbxydSaNS0_14adl_serializerES3_IhSaIhEEvE9is_objectEv @772
    _ZNK8nlohmann16json_abi_v3_11_310basic_jsonISt3mapSt6vectorNSt7__cxx1112basic_stringIcSt11char_traitsIcESaIcEEEbxydSaNS0_14adl_serializerES3_IhSaIhEEvE9is_stringEv @773
    _ZNK8nlohmann16json_abi_v3_11_310basic_jsonISt3mapSt6vectorNSt7__cxx1112basic_stringIcSt11char_traitsIcESaIcEEEbxydSaNS0_14adl_serializerES3_IhSaIhEEvE9type_nameEv @774
    _ZNK8nlohmann16json_abi_v3_11_310basic_jsonISt3mapSt6vectorNSt7__cxx1112basic_stringIcSt11char_traitsIcESaIcEEEbxydSaNS0_14adl_serializerES3_IhSaIhEEvEixEy @775
    _ZNK8nlohmann16json_abi_v3_11_327byte_container_with_subtypeISt6vectorIhSaIhEEE11has_subtypeEv @776
    _ZNK8nlohmann16json_abi_v3_11_327byte_container_with_subtypeISt6vectorIhSaIhEEE7subtypeEv @777
    _ZNK8nlohmann16json_abi_v3_11_36detail10to_json_fnclINS0_10basic_jsonISt3mapSt6vectorNSt7__cxx1112basic_stringIcSt11char_traitsIcESaIcEEEbxydSaNS0_14adl_serializerES6_IhSaIhEEvEERKdEEDTcmcl7to_jsonfp_clsr3stdE7forwardIT0_Efp0_EEcvv_EERT_OSJ_ @778
    _ZNK8nlohmann16json_abi_v3_11_36detail10to_json_fnclINS0_10basic_jsonISt3mapSt6vectorNSt7__cxx1112basic_stringIcSt11char_traitsIcESaIcEEEbxydSaNS0_14adl_serializerES6_IhSaIhEEvEEdEEDTcmcl7to_jsonfp_clsr3stdE7forwardIT0_Efp0_EEcvv_EERT_OSH_ @779
    _ZNK8nlohmann16json_abi_v3_11_36detail10to_json_fnclINS0_10basic_jsonISt3mapSt6vectorNSt7__cxx1112basic_stringIcSt11char_traitsIcESaIcEEEbxydSaNS0_14adl_serializerES6_IhSaIhEEvEEjEEDTcmcl7to_jsonfp_clsr3stdE7forwardIT0_Efp0_EEcvv_EERT_OSH_ @780
    _ZNK8nlohmann16json_abi_v3_11_36detail8json_refINS0_10basic_jsonISt3mapSt6vectorNSt7__cxx1112basic_stringIcSt11char_traitsIcESaIcEEEbxydSaNS0_14adl_serializerES5_IhSaIhEEvEEE15moved_or_copiedEv @781
    _ZNK8nlohmann16json_abi_v3_11_36detail8json_refINS0_10basic_jsonISt3mapSt6vectorNSt7__cxx1112basic_stringIcSt11char_traitsIcESaIcEEEbxydSaNS0_14adl_serializerES5_IhSaIhEEvEEEdeEv @782
    _ZNK8nlohmann16json_abi_v3_11_36detail8json_refINS0_10basic_jsonISt3mapSt6vectorNSt7__cxx1112basic_stringIcSt11char_traitsIcESaIcEEEbxydSaNS0_14adl_serializerES5_IhSaIhEEvEEEptEv @783
    _ZNK8nlohmann16json_abi_v3_11_36detail9exception4whatEv @784
    _ZNK9__gnu_cxx16__aligned_bufferISt4pairIKtNSt7__cxx114listIPN9CoRE4INET6BufferESaIS7_EEEEE6_M_ptrEv @785
    _ZNK9__gnu_cxx16__aligned_bufferISt4pairIKtNSt7__cxx114listIPN9CoRE4INET6BufferESaIS7_EEEEE7_M_addrEv @786
    _ZNK9__gnu_cxx16__aligned_membufISt4pairIKNSt7__cxx1112basic_stringIcSt11char_traitsIcESaIcEEEN8nlohmann16json_abi_v3_11_310basic_jsonISt3mapSt6vectorS7_bxydSaNSA_14adl_serializerESD_IhSaIhEEvEEEE6_M_ptrEv @787
    _ZNK9__gnu_cxx16__aligned_membufISt4pairIKNSt7__cxx1112basic_stringIcSt11char_traitsIcESaIcEEEN8nlohmann16json_abi_v3_11_310basic_jsonISt3mapSt6vectorS7_bxydSaNSA_14adl_serializerESD_IhSaIhEEvEEEE7_M_addrEv @788
    _ZNK9__gnu_cxx16__aligned_membufISt4pairIKPN10FiCo4OMNeT12CanDataFrameEN7omnetpp7SimTimeEEE6_M_ptrEv @789
    _ZNK9__gnu_cxx16__aligned_membufISt4pairIKPN10FiCo4OMNeT12CanDataFrameEN7omnetpp7SimTimeEEE7_M_addrEv @790
    _ZNK9__gnu_cxx16__aligned_membufISt4pairIKPN10FiCo4OMNeT12CanDataFrameEdEE6_M_ptrEv @791
    _ZNK9__gnu_cxx16__aligned_membufISt4pairIKPN10FiCo4OMNeT12CanDataFrameEdEE7_M_addrEv @792
    _ZNK9__gnu_cxx16__aligned_membufISt4pairIKiN7CAN4CQF22CircularRotationBuffer14wcrt_data_infoEEE6_M_ptrEv @793
    _ZNK9__gnu_cxx16__aligned_membufISt4pairIKiN7CAN4CQF22CircularRotationBuffer14wcrt_data_infoEEE7_M_addrEv @794
    _ZNK9__gnu_cxx16__aligned_membufISt4pairIKiPNSt7__cxx114listIPN7omnetpp8cMessageESaIS7_EEEEE6_M_ptrEv @795
    _ZNK9__gnu_cxx16__aligned_membufISt4pairIKiPNSt7__cxx114listIPN7omnetpp8cMessageESaIS7_EEEEE7_M_addrEv @796
    _ZNK9__gnu_cxx16__aligned_membufISt4pairIKjNSt7__cxx114listIN7CAN4CQF21GatewayTransformation5QInfoESaIS7_EEEEE6_M_ptrEv @797
    _ZNK9__gnu_cxx16__aligned_membufISt4pairIKjNSt7__cxx114listIN7CAN4CQF21GatewayTransformation5QInfoESaIS7_EEEEE7_M_addrEv @798
    _ZNK9__gnu_cxx16__aligned_membufISt4pairIKjNSt7__cxx114listIN7CAN4CQF24EDFGatewayTransformation5QInfoESaIS7_EEEEE6_M_ptrEv @799
    _ZNK9__gnu_cxx16__aligned_membufISt4pairIKjNSt7__cxx114listIN7CAN4CQF24EDFGatewayTransformation5QInfoESaIS7_EEEEE7_M_addrEv @800
    _ZNK9__gnu_cxx16__aligned_membufISt4pairIKjNSt7__cxx114listIN7CAN4CQF24RAEGatewayTransformation5QInfoESaIS7_EEEEE6_M_ptrEv @801
    _ZNK9__gnu_cxx16__aligned_membufISt4pairIKjNSt7__cxx114listIN7CAN4CQF24RAEGatewayTransformation5QInfoESaIS7_EEEEE7_M_addrEv @802
    _ZNK9__gnu_cxx16__aligned_membufISt4pairIKjNSt7__cxx114listIN7CAN4CQF24VarGatewayTransformation5QInfoESaIS7_EEEEE6_M_ptrEv @803
    _ZNK9__gnu_cxx16__aligned_membufISt4pairIKjNSt7__cxx114listIN7CAN4CQF24VarGatewayTransformation5QInfoESaIS7_EEEEE7_M_addrEv @804
    _ZNK9__gnu_cxx16__aligned_membufISt4pairIKjNSt7__cxx114listIN7CAN4CQF28TimeoutGatewayTransformation5QInfoESaIS7_EEEEE6_M_ptrEv @805
    _ZNK9__gnu_cxx16__aligned_membufISt4pairIKjNSt7__cxx114listIN7CAN4CQF28TimeoutGatewayTransformation5QInfoESaIS7_EEEEE7_M_addrEv @806
    _ZNK9__gnu_cxx17__normal_iteratorIPKN7CAN4CQF22CircularRotationBuffer9canfdInfoESt6vectorIS3_SaIS3_EEE4baseEv @807
    _ZNK9__gnu_cxx17__normal_iteratorIPKN8nlohmann16json_abi_v3_11_310basic_jsonISt3mapSt6vectorNSt7__cxx1112basic_stringIcSt11char_traitsIcESaIcEEEbxydSaNS2_14adl_serializerES5_IhSaIhEEvEES5_ISF_SaISF_EEE4baseEv @808
    _ZNK9__gnu_cxx17__normal_iteratorIPKN8nlohmann16json_abi_v3_11_310basic_jsonISt3mapSt6vectorNSt7__cxx1112basic_stringIcSt11char_traitsIcESaIcEEEbxydSaNS2_14adl_serializerES5_IhSaIhEEvEES5_ISF_SaISF_EEEdeEv @809
    _ZNK9__gnu_cxx17__normal_iteratorIPKN8nlohmann16json_abi_v3_11_310basic_jsonISt3mapSt6vectorNSt7__cxx1112basic_stringIcSt11char_traitsIcESaIcEEEbxydSaNS2_14adl_serializerES5_IhSaIhEEvEES5_ISF_SaISF_EEEmiEx @810
    _ZNK9__gnu_cxx17__normal_iteratorIPKhSt6vectorIhSaIhEEE4baseEv @811
    _ZNK9__gnu_cxx17__normal_iteratorIPKhSt6vectorIhSaIhEEEdeEv @812
    _ZNK9__gnu_cxx17__normal_iteratorIPKhSt6vectorIhSaIhEEEmiEx @813
    _ZNK9__gnu_cxx17__normal_iteratorIPN7CAN4CQF22CircularRotationBuffer9canfdInfoESt6vectorIS3_SaIS3_EEE4baseEv @814
    _ZNK9__gnu_cxx17__normal_iteratorIPN7CAN4CQF22CircularRotationBuffer9canfdInfoESt6vectorIS3_SaIS3_EEEdeEv @815
    _ZNK9__gnu_cxx17__normal_iteratorIPN7CAN4CQF22CircularRotationBuffer9canfdInfoESt6vectorIS3_SaIS3_EEEmiEx @816
    _ZNK9__gnu_cxx17__normal_iteratorIPN7CAN4CQF22CircularRotationBuffer9canfdInfoESt6vectorIS3_SaIS3_EEEplEx @817
    _ZNK9__gnu_cxx17__normal_iteratorIPN7CAN4CQF22CircularRotationBuffer9canfdInfoESt6vectorIS3_SaIS3_EEEptEv @818
    _ZNK9__gnu_cxx17__normal_iteratorIPN7CAN4CQF24RAEGatewayTransformation10order_infoESt6vectorIS3_SaIS3_EEE4baseEv @819
    _ZNK9__gnu_cxx17__normal_iteratorIPN7CAN4CQF24RAEGatewayTransformation10order_infoESt6vectorIS3_SaIS3_EEEdeEv @820
    _ZNK9__gnu_cxx17__normal_iteratorIPN7CAN4CQF24RAEGatewayTransformation10order_infoESt6vectorIS3_SaIS3_EEEmiEx @821
    _ZNK9__gnu_cxx17__normal_iteratorIPN7CAN4CQF24RAEGatewayTransformation10order_infoESt6vectorIS3_SaIS3_EEEplEx @822
    _ZNK9__gnu_cxx17__normal_iteratorIPN7CAN4CQF24RAEGatewayTransformation10order_infoESt6vectorIS3_SaIS3_EEEptEv @823
    _ZNK9__gnu_cxx17__normal_iteratorIPN8nlohmann16json_abi_v3_11_310basic_jsonISt3mapSt6vectorNSt7__cxx1112basic_stringIcSt11char_traitsIcESaIcEEEbxydSaNS2_14adl_serializerES5_IhSaIhEEvEES5_ISF_SaISF_EEE4baseEv @824
    _ZNK9__gnu_cxx17__normal_iteratorIPN8nlohmann16json_abi_v3_11_310basic_jsonISt3mapSt6vectorNSt7__cxx1112basic_stringIcSt11char_traitsIcESaIcEEEbxydSaNS2_14adl_serializerES5_IhSaIhEEvEES5_ISF_SaISF_EEEdeEv @825
    _ZNK9__gnu_cxx17__normal_iteratorIPN8nlohmann16json_abi_v3_11_310basic_jsonISt3mapSt6vectorNSt7__cxx1112basic_stringIcSt11char_traitsIcESaIcEEEbxydSaNS2_14adl_serializerES5_IhSaIhEEvEES5_ISF_SaISF_EEEmiEx @826
    _ZNK9__gnu_cxx17__normal_iteratorIPSt4pairIPN10FiCo4OMNeT12CanDataFrameEdESt6vectorIS5_SaIS5_EEE4baseEv @827
    _ZNK9__gnu_cxx17__normal_iteratorIPSt4pairIPN10FiCo4OMNeT12CanDataFrameEdESt6vectorIS5_SaIS5_EEEdeEv @828
    _ZNK9__gnu_cxx17__normal_iteratorIPSt4pairIPN10FiCo4OMNeT12CanDataFrameEdESt6vectorIS5_SaIS5_EEEmiEx @829
    _ZNK9__gnu_cxx17__normal_iteratorIPSt4pairIPN10FiCo4OMNeT12CanDataFrameEdESt6vectorIS5_SaIS5_EEEplEx @830
    _ZNK9__gnu_cxx17__normal_iteratorIPSt4pairISt6vectorINSt7__cxx1112basic_stringIcSt11char_traitsIcESaIcEEESaIS8_EEdES2_ISB_SaISB_EEEdeEv @831
    _ZNK9__gnu_cxx17__normal_iteratorIPhSt6vectorIhSaIhEEEdeEv @832
    _ZNK9__gnu_cxx17__normal_iteratorIPhSt6vectorIhSaIhEEEmiEx @833
    _ZNKSt10_HashtableItSt4pairIKtNSt7__cxx114listIPN9CoRE4INET6BufferESaIS6_EEEESaIS9_ENSt8__detail10_Select1stESt8equal_toItESt4hashItENSB_18_Mod_range_hashingENSB_20_Default_ranged_hashENSB_20_Prime_rehash_policyENSB_17_Hashtable_traitsILb0ELb0ELb1EEEE12_M_find_nodeEyRS1_y @834
    _ZNKSt10_HashtableItSt4pairIKtNSt7__cxx114listIPN9CoRE4INET6BufferESaIS6_EEEESaIS9_ENSt8__detail10_Select1stESt8equal_toItESt4hashItENSB_18_Mod_range_hashingENSB_20_Default_ranged_hashENSB_20_Prime_rehash_policyENSB_17_Hashtable_traitsILb0ELb0ELb1EEEE15_M_bucket_indexERKNSB_16_Hash_node_valueIS9_Lb0EEE @835
    _ZNKSt10_HashtableItSt4pairIKtNSt7__cxx114listIPN9CoRE4INET6BufferESaIS6_EEEESaIS9_ENSt8__detail10_Select1stESt8equal_toItESt4hashItENSB_18_Mod_range_hashingENSB_20_Default_ranged_hashENSB_20_Prime_rehash_policyENSB_17_Hashtable_traitsILb0ELb0ELb1EEEE15_M_bucket_indexEy @836
    _ZNKSt10_HashtableItSt4pairIKtNSt7__cxx114listIPN9CoRE4INET6BufferESaIS6_EEEESaIS9_ENSt8__detail10_Select1stESt8equal_toItESt4hashItENSB_18_Mod_range_hashingENSB_20_Default_ranged_hashENSB_20_Prime_rehash_policyENSB_17_Hashtable_traitsILb0ELb0ELb1EEEE19_M_find_before_nodeEyRS1_y @837
    _ZNKSt10_HashtableItSt4pairIKtNSt7__cxx114listIPN9CoRE4INET6BufferESaIS6_EEEESaIS9_ENSt8__detail10_Select1stESt8equal_toItESt4hashItENSB_18_Mod_range_hashingENSB_20_Default_ranged_hashENSB_20_Prime_rehash_policyENSB_17_Hashtable_traitsILb0ELb0ELb1EEEE21_M_uses_single_bucketEPPNSB_15_Hash_node_baseE @838
    _ZNKSt10_HashtableItSt4pairIKtNSt7__cxx114listIPN9CoRE4INET6BufferESaIS6_EEEESaIS9_ENSt8__detail10_Select1stESt8equal_toItESt4hashItENSB_18_Mod_range_hashingENSB_20_Default_ranged_hashENSB_20_Prime_rehash_policyENSB_17_Hashtable_traitsILb0ELb0ELb1EEEE8_M_beginEv @839
    _ZNKSt10_Select1stISt4pairIKNSt7__cxx1112basic_stringIcSt11char_traitsIcESaIcEEEN8nlohmann16json_abi_v3_11_310basic_jsonISt3mapSt6vectorS6_bxydSaNS9_14adl_serializerESC_IhSaIhEEvEEEEclERKSH_ @840
    _ZNKSt10_Select1stISt4pairIKPN10FiCo4OMNeT12CanDataFrameEN7omnetpp7SimTimeEEEclERKS7_ @841
    _ZNKSt10_Select1stISt4pairIKPN10FiCo4OMNeT12CanDataFrameEdEEclERKS5_ @842
    _ZNKSt10_Select1stISt4pairIKiN7CAN4CQF22CircularRotationBuffer14wcrt_data_infoEEEclERKS5_ @843
    _ZNKSt10_Select1stISt4pairIKiPNSt7__cxx114listIPN7omnetpp8cMessageESaIS6_EEEEEclERKSA_ @844
    _ZNKSt10_Select1stISt4pairIKjNSt7__cxx114listIN7CAN4CQF21GatewayTransformation5QInfoESaIS6_EEEEEclERKS9_ @845
    _ZNKSt10_Select1stISt4pairIKjNSt7__cxx114listIN7CAN4CQF24EDFGatewayTransformation5QInfoESaIS6_EEEEEclERKS9_ @846
    _ZNKSt10_Select1stISt4pairIKjNSt7__cxx114listIN7CAN4CQF24RAEGatewayTransformation5QInfoESaIS6_EEEEEclERKS9_ @847
    _ZNKSt10_Select1stISt4pairIKjNSt7__cxx114listIN7CAN4CQF24VarGatewayTransformation5QInfoESaIS6_EEEEEclERKS9_ @848
    _ZNKSt10_Select1stISt4pairIKjNSt7__cxx114listIN7CAN4CQF28TimeoutGatewayTransformation5QInfoESaIS6_EEEEEclERKS9_ @849
    _ZNKSt10unique_ptrIN8nlohmann16json_abi_v3_11_327byte_container_with_subtypeISt6vectorIhSaIhEEEEZNS1_10basic_jsonISt3mapS3_NSt7__cxx1112basic_stringIcSt11char_traitsIcESaIcEEEbxydSaNS1_14adl_serializerES5_vE6createIS6_JEEEPT_DpOT0_EUlPS6_E_E3getEv @850
    _ZNKSt10unique_ptrIN8nlohmann16json_abi_v3_11_327byte_container_with_subtypeISt6vectorIhSaIhEEEEZNS1_10basic_jsonISt3mapS3_NSt7__cxx1112basic_stringIcSt11char_traitsIcESaIcEEEbxydSaNS1_14adl_serializerES5_vE6createIS6_JEEEPT_DpOT0_EUlPS6_E_EcvbEv @851
    _ZNKSt10unique_ptrIN8nlohmann16json_abi_v3_11_327byte_container_with_subtypeISt6vectorIhSaIhEEEEZNS1_10basic_jsonISt3mapS3_NSt7__cxx1112basic_stringIcSt11char_traitsIcESaIcEEEbxydSaNS1_14adl_serializerES5_vE6createIS6_JRKS6_EEEPT_DpOT0_EUlPS6_E_E3getEv @852
    _ZNKSt10unique_ptrIN8nlohmann16json_abi_v3_11_327byte_container_with_subtypeISt6vectorIhSaIhEEEEZNS1_10basic_jsonISt3mapS3_NSt7__cxx1112basic_stringIcSt11char_traitsIcESaIcEEEbxydSaNS1_14adl_serializerES5_vE6createIS6_JRKS6_EEEPT_DpOT0_EUlPS6_E_EcvbEv @853
    _ZNKSt10unique_ptrINSt7__cxx1112basic_stringIcSt11char_traitsIcESaIcEEEZN8nlohmann16json_abi_v3_11_310basic_jsonISt3mapSt6vectorS5_bxydSaNS7_14adl_serializerESA_IhSaIhEEvE6createIS5_JRA1_KcEEEPT_DpOT0_EUlPS5_E_E3getEv @854
    _ZNKSt10unique_ptrINSt7__cxx1112basic_stringIcSt11char_traitsIcESaIcEEEZN8nlohmann16json_abi_v3_11_310basic_jsonISt3mapSt6vectorS5_bxydSaNS7_14adl_serializerESA_IhSaIhEEvE6createIS5_JRA1_KcEEEPT_DpOT0_EUlPS5_E_EcvbEv @855
    _ZNKSt10unique_ptrINSt7__cxx1112basic_stringIcSt11char_traitsIcESaIcEEEZN8nlohmann16json_abi_v3_11_310basic_jsonISt3mapSt6vectorS5_bxydSaNS7_14adl_serializerESA_IhSaIhEEvE6createIS5_JRKS5_EEEPT_DpOT0_EUlPS5_E_E3getEv @856
    _ZNKSt10unique_ptrINSt7__cxx1112basic_stringIcSt11char_traitsIcESaIcEEEZN8nlohmann16json_abi_v3_11_310basic_jsonISt3mapSt6vectorS5_bxydSaNS7_14adl_serializerESA_IhSaIhEEvE6createIS5_JRKS5_EEEPT_DpOT0_EUlPS5_E_EcvbEv @857
    _ZNKSt10unique_ptrISt3mapINSt7__cxx1112basic_stringIcSt11char_traitsIcESaIcEEEN8nlohmann16json_abi_v3_11_310basic_jsonIS0_St6vectorS6_bxydSaNS8_14adl_serializerESA_IhSaIhEEvEESt4lessIvESaISt4pairIKS6_SE_EEEZNSE_6createISL_JEEEPT_DpOT0_EUlPSL_E_E3getEv @858
    _ZNKSt10unique_ptrISt3mapINSt7__cxx1112basic_stringIcSt11char_traitsIcESaIcEEEN8nlohmann16json_abi_v3_11_310basic_jsonIS0_St6vectorS6_bxydSaNS8_14adl_serializerESA_IhSaIhEEvEESt4lessIvESaISt4pairIKS6_SE_EEEZNSE_6createISL_JEEEPT_DpOT0_EUlPSL_E_EcvbEv @859
    _ZNKSt10unique_ptrISt3mapINSt7__cxx1112basic_stringIcSt11char_traitsIcESaIcEEEN8nlohmann16json_abi_v3_11_310basic_jsonIS0_St6vectorS6_bxydSaNS8_14adl_serializerESA_IhSaIhEEvEESt4lessIvESaISt4pairIKS6_SE_EEEZNSE_6createISL_JRKSL_EEEPT_DpOT0_EUlPSL_E_E3getEv @860
    _ZNKSt10unique_ptrISt3mapINSt7__cxx1112basic_stringIcSt11char_traitsIcESaIcEEEN8nlohmann16json_abi_v3_11_310basic_jsonIS0_St6vectorS6_bxydSaNS8_14adl_serializerESA_IhSaIhEEvEESt4lessIvESaISt4pairIKS6_SE_EEEZNSE_6createISL_JRKSL_EEEPT_DpOT0_EUlPSL_E_EcvbEv @861
    _ZNKSt10unique_ptrISt6vectorIN8nlohmann16json_abi_v3_11_310basic_jsonISt3mapS0_NSt7__cxx1112basic_stringIcSt11char_traitsIcESaIcEEEbxydSaNS2_14adl_serializerES0_IhSaIhEEvEESaISE_EEZNSE_6createISG_JEEEPT_DpOT0_EUlPSG_E_E3getEv @862
    _ZNKSt10unique_ptrISt6vectorIN8nlohmann16json_abi_v3_11_310basic_jsonISt3mapS0_NSt7__cxx1112basic_stringIcSt11char_traitsIcESaIcEEEbxydSaNS2_14adl_serializerES0_IhSaIhEEvEESaISE_EEZNSE_6createISG_JEEEPT_DpOT0_EUlPSG_E_EcvbEv @863
    _ZNKSt10unique_ptrISt6vectorIN8nlohmann16json_abi_v3_11_310basic_jsonISt3mapS0_NSt7__cxx1112basic_stringIcSt11char_traitsIcESaIcEEEbxydSaNS2_14adl_serializerES0_IhSaIhEEvEESaISE_EEZNSE_6createISG_JPKNS2_6detail8json_refISE_EESM_EEEPT_DpOT0_EUlPSG_E_E3getEv @864
    _ZNKSt10unique_ptrISt6vectorIN8nlohmann16json_abi_v3_11_310basic_jsonISt3mapS0_NSt7__cxx1112basic_stringIcSt11char_traitsIcESaIcEEEbxydSaNS2_14adl_serializerES0_IhSaIhEEvEESaISE_EEZNSE_6createISG_JPKNS2_6detail8json_refISE_EESM_EEEPT_DpOT0_EUlPSG_E_EcvbEv @865
    _ZNKSt10unique_ptrISt6vectorIN8nlohmann16json_abi_v3_11_310basic_jsonISt3mapS0_NSt7__cxx1112basic_stringIcSt11char_traitsIcESaIcEEEbxydSaNS2_14adl_serializerES0_IhSaIhEEvEESaISE_EEZNSE_6createISG_JRKSG_EEEPT_DpOT0_EUlPSG_E_E3getEv @866
    _ZNKSt10unique_ptrISt6vectorIN8nlohmann16json_abi_v3_11_310basic_jsonISt3mapS0_NSt7__cxx1112basic_stringIcSt11char_traitsIcESaIcEEEbxydSaNS2_14adl_serializerES0_IhSaIhEEvEESaISE_EEZNSE_6createISG_JRKSG_EEEPT_DpOT0_EUlPSG_E_EcvbEv @867
    _ZNKSt12_Vector_baseIN7CAN4CQF22CircularRotationBuffer9canfdInfoESaIS2_EE19_M_get_Tp_allocatorEv @868
    _ZNKSt12_Vector_baseIN7CAN4CQF24RAEGatewayTransformation10order_infoESaIS2_EE19_M_get_Tp_allocatorEv @869
    _ZNKSt12_Vector_baseIN8nlohmann16json_abi_v3_11_310basic_jsonISt3mapSt6vectorNSt7__cxx1112basic_stringIcSt11char_traitsIcESaIcEEEbxydSaNS1_14adl_serializerES4_IhSaIhEEvEESaISE_EE19_M_get_Tp_allocatorEv @870
    _ZNKSt12_Vector_baseISt4pairIPN10FiCo4OMNeT12CanDataFrameEdESaIS4_EE19_M_get_Tp_allocatorEv @871
    _ZNKSt12_Vector_baseIhSaIhEE19_M_get_Tp_allocatorEv @872
    _ZNKSt12__shared_ptrIN8nlohmann16json_abi_v3_11_36detail23output_adapter_protocolIcEELN9__gnu_cxx12_Lock_policyE2EE3getEv @873
    _ZNKSt13_Rb_tree_nodeISt4pairIKNSt7__cxx1112basic_stringIcSt11char_traitsIcESaIcEEEN8nlohmann16json_abi_v3_11_310basic_jsonISt3mapSt6vectorS6_bxydSaNS9_14adl_serializerESC_IhSaIhEEvEEEE9_M_valptrEv @874
    _ZNKSt13_Rb_tree_nodeISt4pairIKPN10FiCo4OMNeT12CanDataFrameEN7omnetpp7SimTimeEEE9_M_valptrEv @875
    _ZNKSt13_Rb_tree_nodeISt4pairIKPN10FiCo4OMNeT12CanDataFrameEdEE9_M_valptrEv @876
    _ZNKSt13_Rb_tree_nodeISt4pairIKiN7CAN4CQF22CircularRotationBuffer14wcrt_data_infoEEE9_M_valptrEv @877
    _ZNKSt13_Rb_tree_nodeISt4pairIKiPNSt7__cxx114listIPN7omnetpp8cMessageESaIS6_EEEEE9_M_valptrEv @878
    _ZNKSt13_Rb_tree_nodeISt4pairIKjNSt7__cxx114listIN7CAN4CQF21GatewayTransformation5QInfoESaIS6_EEEEE9_M_valptrEv @879
    _ZNKSt13_Rb_tree_nodeISt4pairIKjNSt7__cxx114listIN7CAN4CQF24EDFGatewayTransformation5QInfoESaIS6_EEEEE9_M_valptrEv @880
    _ZNKSt13_Rb_tree_nodeISt4pairIKjNSt7__cxx114listIN7CAN4CQF24RAEGatewayTransformation5QInfoESaIS6_EEEEE9_M_valptrEv @881
    _ZNKSt13_Rb_tree_nodeISt4pairIKjNSt7__cxx114listIN7CAN4CQF24VarGatewayTransformation5QInfoESaIS6_EEEEE9_M_valptrEv @882
    _ZNKSt13_Rb_tree_nodeISt4pairIKjNSt7__cxx114listIN7CAN4CQF28TimeoutGatewayTransformation5QInfoESaIS6_EEEEE9_M_valptrEv @883
    _ZNKSt14_List_iteratorIN7CAN4CQF21GatewayTransformation5QInfoEEdeEv @884
    _ZNKSt14_List_iteratorIN7CAN4CQF24EDFGatewayTransformation5QInfoEEdeEv @885
    _ZNKSt14_List_iteratorIN7CAN4CQF24RAEGatewayTransformation5QInfoEEdeEv @886
    _ZNKSt14_List_iteratorIN7CAN4CQF24VarGatewayTransformation5QInfoEEdeEv @887
    _ZNKSt14_List_iteratorIN7CAN4CQF28TimeoutGatewayTransformation5QInfoEEdeEv @888
    _ZNKSt14_List_iteratorIPN9CoRE4INET6BufferEEdeEv @889
    _ZNKSt15__new_allocatorIN7CAN4CQF22CircularRotationBuffer9canfdInfoEE11_M_max_sizeEv @890
    _ZNKSt15__new_allocatorIN7CAN4CQF22CircularRotationBuffer9canfdInfoEE8max_sizeEv @891
    _ZNKSt15__new_allocatorIN7CAN4CQF24RAEGatewayTransformation10order_infoEE11_M_max_sizeEv @892
    _ZNKSt15__new_allocatorIN7CAN4CQF24RAEGatewayTransformation10order_infoEE8max_sizeEv @893
    _ZNKSt15__new_allocatorIN8nlohmann16json_abi_v3_11_310basic_jsonISt3mapSt6vectorNSt7__cxx1112basic_stringIcSt11char_traitsIcESaIcEEEbxydSaNS1_14adl_serializerES4_IhSaIhEEvEEE11_M_max_sizeEv @894
    _ZNKSt15__new_allocatorIN8nlohmann16json_abi_v3_11_310basic_jsonISt3mapSt6vectorNSt7__cxx1112basic_stringIcSt11char_traitsIcESaIcEEEbxydSaNS1_14adl_serializerES4_IhSaIhEEvEEE8max_sizeEv @895
    _ZNKSt15__new_allocatorIN8nlohmann16json_abi_v3_11_327byte_container_with_subtypeISt6vectorIhSaIhEEEEE11_M_max_sizeEv @896
    _ZNKSt15__new_allocatorINSt8__detail10_Hash_nodeISt4pairIKtNSt7__cxx114listIPN9CoRE4INET6BufferESaIS8_EEEELb0EEEE11_M_max_sizeEv @897
    _ZNKSt15__new_allocatorISt10_List_nodeIN7CAN4CQF21GatewayTransformation5QInfoEEE11_M_max_sizeEv @898
    _ZNKSt15__new_allocatorISt10_List_nodeIN7CAN4CQF24EDFGatewayTransformation5QInfoEEE11_M_max_sizeEv @899
    _ZNKSt15__new_allocatorISt10_List_nodeIN7CAN4CQF24RAEGatewayTransformation5QInfoEEE11_M_max_sizeEv @900
    _ZNKSt15__new_allocatorISt10_List_nodeIN7CAN4CQF24VarGatewayTransformation5QInfoEEE11_M_max_sizeEv @901
    _ZNKSt15__new_allocatorISt10_List_nodeIN7CAN4CQF28TimeoutGatewayTransformation5QInfoEEE11_M_max_sizeEv @902
    _ZNKSt15__new_allocatorISt10_List_nodeIPN9CoRE4INET6BufferEEE11_M_max_sizeEv @903
    _ZNKSt15__new_allocatorISt13_Rb_tree_nodeISt4pairIKNSt7__cxx1112basic_stringIcSt11char_traitsIcESaIcEEEN8nlohmann16json_abi_v3_11_310basic_jsonISt3mapSt6vectorS7_bxydSaNSA_14adl_serializerESD_IhSaIhEEvEEEEE11_M_max_sizeEv @904
    _ZNKSt15__new_allocatorISt13_Rb_tree_nodeISt4pairIKPN10FiCo4OMNeT12CanDataFrameEN7omnetpp7SimTimeEEEE11_M_max_sizeEv @905
    _ZNKSt15__new_allocatorISt13_Rb_tree_nodeISt4pairIKPN10FiCo4OMNeT12CanDataFrameEdEEE11_M_max_sizeEv @906
    _ZNKSt15__new_allocatorISt13_Rb_tree_nodeISt4pairIKiN7CAN4CQF22CircularRotationBuffer14wcrt_data_infoEEEE11_M_max_sizeEv @907
    _ZNKSt15__new_allocatorISt13_Rb_tree_nodeISt4pairIKiPNSt7__cxx114listIPN7omnetpp8cMessageESaIS7_EEEEEE11_M_max_sizeEv @908
    _ZNKSt15__new_allocatorISt13_Rb_tree_nodeISt4pairIKjNSt7__cxx114listIN7CAN4CQF21GatewayTransformation5QInfoESaIS7_EEEEEE11_M_max_sizeEv @909
    _ZNKSt15__new_allocatorISt13_Rb_tree_nodeISt4pairIKjNSt7__cxx114listIN7CAN4CQF24EDFGatewayTransformation5QInfoESaIS7_EEEEEE11_M_max_sizeEv @910
    _ZNKSt15__new_allocatorISt13_Rb_tree_nodeISt4pairIKjNSt7__cxx114listIN7CAN4CQF24RAEGatewayTransformation5QInfoESaIS7_EEEEEE11_M_max_sizeEv @911
    _ZNKSt15__new_allocatorISt13_Rb_tree_nodeISt4pairIKjNSt7__cxx114listIN7CAN4CQF24VarGatewayTransformation5QInfoESaIS7_EEEEEE11_M_max_sizeEv @912
    _ZNKSt15__new_allocatorISt13_Rb_tree_nodeISt4pairIKjNSt7__cxx114listIN7CAN4CQF28TimeoutGatewayTransformation5QInfoESaIS7_EEEEEE11_M_max_sizeEv @913
    _ZNKSt15__new_allocatorISt23_Sp_counted_ptr_inplaceIN8nlohmann16json_abi_v3_11_36detail21output_string_adapterIcNSt7__cxx1112basic_stringIcSt11char_traitsIcESaIcEEEEESaIvELN9__gnu_cxx12_Lock_policyE2EEE11_M_max_sizeEv @914
    _ZNKSt15__new_allocatorISt3mapINSt7__cxx1112basic_stringIcSt11char_traitsIcESaIcEEEN8nlohmann16json_abi_v3_11_310basic_jsonIS0_St6vectorS6_bxydSaNS8_14adl_serializerESA_IhSaIhEEvEESt4lessIvESaISt4pairIKS6_SE_EEEE11_M_max_sizeEv @915
    _ZNKSt15__new_allocatorISt4pairIPN10FiCo4OMNeT12CanDataFrameEdEE11_M_max_sizeEv @916
    _ZNKSt15__new_allocatorISt4pairIPN10FiCo4OMNeT12CanDataFrameEdEE8max_sizeEv @917
    _ZNKSt15__new_allocatorISt6vectorIN8nlohmann16json_abi_v3_11_310basic_jsonISt3mapS0_NSt7__cxx1112basic_stringIcSt11char_traitsIcESaIcEEEbxydSaNS2_14adl_serializerES0_IhSaIhEEvEESaISE_EEE11_M_max_sizeEv @918
    _ZNKSt15__new_allocatorIhE11_M_max_sizeEv @919
    _ZNKSt15__uniq_ptr_implIN8nlohmann16json_abi_v3_11_327byte_container_with_subtypeISt6vectorIhSaIhEEEEZNS1_10basic_jsonISt3mapS3_NSt7__cxx1112basic_stringIcSt11char_traitsIcESaIcEEEbxydSaNS1_14adl_serializerES5_vE6createIS6_JEEEPT_DpOT0_EUlPS6_E_E6_M_ptrEv @920
    _ZNKSt15__uniq_ptr_implIN8nlohmann16json_abi_v3_11_327byte_container_with_subtypeISt6vectorIhSaIhEEEEZNS1_10basic_jsonISt3mapS3_NSt7__cxx1112basic_stringIcSt11char_traitsIcESaIcEEEbxydSaNS1_14adl_serializerES5_vE6createIS6_JRKS6_EEEPT_DpOT0_EUlPS6_E_E6_M_ptrEv @921
    _ZNKSt15__uniq_ptr_implINSt7__cxx1112basic_stringIcSt11char_traitsIcESaIcEEEZN8nlohmann16json_abi_v3_11_310basic_jsonISt3mapSt6vectorS5_bxydSaNS7_14adl_serializerESA_IhSaIhEEvE6createIS5_JRA1_KcEEEPT_DpOT0_EUlPS5_E_E6_M_ptrEv @922
    _ZNKSt15__uniq_ptr_implINSt7__cxx1112basic_stringIcSt11char_traitsIcESaIcEEEZN8nlohmann16json_abi_v3_11_310basic_jsonISt3mapSt6vectorS5_bxydSaNS7_14adl_serializerESA_IhSaIhEEvE6createIS5_JRKS5_EEEPT_DpOT0_EUlPS5_E_E6_M_ptrEv @923
    _ZNKSt15__uniq_ptr_implISt3mapINSt7__cxx1112basic_stringIcSt11char_traitsIcESaIcEEEN8nlohmann16json_abi_v3_11_310basic_jsonIS0_St6vectorS6_bxydSaNS8_14adl_serializerESA_IhSaIhEEvEESt4lessIvESaISt4pairIKS6_SE_EEEZNSE_6createISL_JEEEPT_DpOT0_EUlPSL_E_E6_M_ptrEv @924
    _ZNKSt15__uniq_ptr_implISt3mapINSt7__cxx1112basic_stringIcSt11char_traitsIcESaIcEEEN8nlohmann16json_abi_v3_11_310basic_jsonIS0_St6vectorS6_bxydSaNS8_14adl_serializerESA_IhSaIhEEvEESt4lessIvESaISt4pairIKS6_SE_EEEZNSE_6createISL_JRKSL_EEEPT_DpOT0_EUlPSL_E_E6_M_ptrEv @925
    _ZNKSt15__uniq_ptr_implISt6vectorIN8nlohmann16json_abi_v3_11_310basic_jsonISt3mapS0_NSt7__cxx1112basic_stringIcSt11char_traitsIcESaIcEEEbxydSaNS2_14adl_serializerES0_IhSaIhEEvEESaISE_EEZNSE_6createISG_JEEEPT_DpOT0_EUlPSG_E_E6_M_ptrEv @926
    _ZNKSt15__uniq_ptr_implISt6vectorIN8nlohmann16json_abi_v3_11_310basic_jsonISt3mapS0_NSt7__cxx1112basic_stringIcSt11char_traitsIcESaIcEEEbxydSaNS2_14adl_serializerES0_IhSaIhEEvEESaISE_EEZNSE_6createISG_JPKNS2_6detail8json_refISE_EESM_EEEPT_DpOT0_EUlPSG_E_E6_M_ptrEv @927
    _ZNKSt15__uniq_ptr_implISt6vectorIN8nlohmann16json_abi_v3_11_310basic_jsonISt3mapS0_NSt7__cxx1112basic_stringIcSt11char_traitsIcESaIcEEEbxydSaNS2_14adl_serializerES0_IhSaIhEEvEESaISE_EEZNSE_6createISG_JRKSG_EEEPT_DpOT0_EUlPSG_E_E6_M_ptrEv @928
    _ZNKSt16initializer_listIN8nlohmann16json_abi_v3_11_36detail8json_refINS1_10basic_jsonISt3mapSt6vectorNSt7__cxx1112basic_stringIcSt11char_traitsIcESaIcEEEbxydSaNS1_14adl_serializerES6_IhSaIhEEvEEEEE3endEv @929
    _ZNKSt16initializer_listIN8nlohmann16json_abi_v3_11_36detail8json_refINS1_10basic_jsonISt3mapSt6vectorNSt7__cxx1112basic_stringIcSt11char_traitsIcESaIcEEEbxydSaNS1_14adl_serializerES6_IhSaIhEEvEEEEE4sizeEv @930
    _ZNKSt16initializer_listIN8nlohmann16json_abi_v3_11_36detail8json_refINS1_10basic_jsonISt3mapSt6vectorNSt7__cxx1112basic_stringIcSt11char_traitsIcESaIcEEEbxydSaNS1_14adl_serializerES6_IhSaIhEEvEEEEE5beginEv @931
    _ZNKSt16reverse_iteratorIN9__gnu_cxx17__normal_iteratorIPN7CAN4CQF24RAEGatewayTransformation10order_infoESt6vectorIS4_SaIS4_EEEEE4baseEv @932
    _ZNKSt16reverse_iteratorIN9__gnu_cxx17__normal_iteratorIPN7CAN4CQF24RAEGatewayTransformation10order_infoESt6vectorIS4_SaIS4_EEEEEptEv @933
    _ZNKSt16reverse_iteratorIN9__gnu_cxx17__normal_iteratorIPiSt6vectorIiSaIiEEEEE4baseEv @934
    _ZNKSt16reverse_iteratorIN9__gnu_cxx17__normal_iteratorIPiSt6vectorIiSaIiEEEEEdeEv @935
    _ZNKSt17_Rb_tree_iteratorISt4pairIKNSt7__cxx1112basic_stringIcSt11char_traitsIcESaIcEEEN8nlohmann16json_abi_v3_11_310basic_jsonISt3mapSt6vectorS6_bxydSaNS9_14adl_serializerESC_IhSaIhEEvEEEEdeEv @936
    _ZNKSt17_Rb_tree_iteratorISt4pairIKNSt7__cxx1112basic_stringIcSt11char_traitsIcESaIcEEEN8nlohmann16json_abi_v3_11_310basic_jsonISt3mapSt6vectorS6_bxydSaNS9_14adl_serializerESC_IhSaIhEEvEEEEptEv @937
    _ZNKSt17_Rb_tree_iteratorISt4pairIKPN10FiCo4OMNeT12CanDataFrameEN7omnetpp7SimTimeEEEdeEv @938
    _ZNKSt17_Rb_tree_iteratorISt4pairIKPN10FiCo4OMNeT12CanDataFrameEN7omnetpp7SimTimeEEEptEv @939
    _ZNKSt17_Rb_tree_iteratorISt4pairIKPN10FiCo4OMNeT12CanDataFrameEdEEdeEv @940
    _ZNKSt17_Rb_tree_iteratorISt4pairIKPN10FiCo4OMNeT12CanDataFrameEdEEptEv @941
    _ZNKSt17_Rb_tree_iteratorISt4pairIKiN7CAN4CQF22CircularRotationBuffer14wcrt_data_infoEEEdeEv @942
    _ZNKSt17_Rb_tree_iteratorISt4pairIKiPNSt7__cxx114listIPN7omnetpp8cMessageESaIS6_EEEEEdeEv @943
    _ZNKSt17_Rb_tree_iteratorISt4pairIKjNSt7__cxx114listIN7CAN4CQF21GatewayTransformation5QInfoESaIS6_EEEEEdeEv @944
    _ZNKSt17_Rb_tree_iteratorISt4pairIKjNSt7__cxx114listIN7CAN4CQF24EDFGatewayTransformation5QInfoESaIS6_EEEEEdeEv @945
    _ZNKSt17_Rb_tree_iteratorISt4pairIKjNSt7__cxx114listIN7CAN4CQF24RAEGatewayTransformation5QInfoESaIS6_EEEEEdeEv @946
    _ZNKSt17_Rb_tree_iteratorISt4pairIKjNSt7__cxx114listIN7CAN4CQF24VarGatewayTransformation5QInfoESaIS6_EEEEEdeEv @947
    _ZNKSt17_Rb_tree_iteratorISt4pairIKjNSt7__cxx114listIN7CAN4CQF28TimeoutGatewayTransformation5QInfoESaIS6_EEEEEdeEv @948
    _ZNKSt19__shared_ptr_accessIN8nlohmann16json_abi_v3_11_36detail23output_adapter_protocolIcEELN9__gnu_cxx12_Lock_policyE2ELb0ELb0EE6_M_getEv @949
    _ZNKSt19__shared_ptr_accessIN8nlohmann16json_abi_v3_11_36detail23output_adapter_protocolIcEELN9__gnu_cxx12_Lock_policyE2ELb0ELb0EEptEv @950
    _ZNKSt20_List_const_iteratorIPN10FiCo4OMNeT12CanDataFrameEE13_M_const_castEv @951
    _ZNKSt23_Rb_tree_const_iteratorISt4pairIKNSt7__cxx1112basic_stringIcSt11char_traitsIcESaIcEEEN8nlohmann16json_abi_v3_11_310basic_jsonISt3mapSt6vectorS6_bxydSaNS9_14adl_serializerESC_IhSaIhEEvEEEEptEv @952
    _ZNKSt23_Rb_tree_const_iteratorISt4pairIKPN10FiCo4OMNeT12CanDataFrameEN7omnetpp7SimTimeEEE13_M_const_castEv @953
    _ZNKSt23_Rb_tree_const_iteratorISt4pairIKPN10FiCo4OMNeT12CanDataFrameEdEE13_M_const_castEv @954
    _ZNKSt23_Rb_tree_const_iteratorISt4pairIKPN10FiCo4OMNeT12CanDataFrameEdEEdeEv @955
    _ZNKSt23_Rb_tree_const_iteratorISt4pairIKiN7CAN4CQF22CircularRotationBuffer14wcrt_data_infoEEE13_M_const_castEv @956
    _ZNKSt23_Rb_tree_const_iteratorISt4pairIKiPNSt7__cxx114listIPN7omnetpp8cMessageESaIS6_EEEEE13_M_const_castEv @957
    _ZNKSt23_Rb_tree_const_iteratorISt4pairIKjNSt7__cxx114listIN7CAN4CQF21GatewayTransformation5QInfoESaIS6_EEEEE13_M_const_castEv @958
    _ZNKSt23_Rb_tree_const_iteratorISt4pairIKjNSt7__cxx114listIN7CAN4CQF24EDFGatewayTransformation5QInfoESaIS6_EEEEE13_M_const_castEv @959
    _ZNKSt23_Rb_tree_const_iteratorISt4pairIKjNSt7__cxx114listIN7CAN4CQF24RAEGatewayTransformation5QInfoESaIS6_EEEEE13_M_const_castEv @960
    _ZNKSt23_Rb_tree_const_iteratorISt4pairIKjNSt7__cxx114listIN7CAN4CQF24VarGatewayTransformation5QInfoESaIS6_EEEEE13_M_const_castEv @961
    _ZNKSt23_Rb_tree_const_iteratorISt4pairIKjNSt7__cxx114listIN7CAN4CQF28TimeoutGatewayTransformation5QInfoESaIS6_EEEEE13_M_const_castEv @962
    _ZNKSt3mapINSt7__cxx1112basic_stringIcSt11char_traitsIcESaIcEEEN8nlohmann16json_abi_v3_11_310basic_jsonIS_St6vectorS5_bxydSaNS7_14adl_serializerES9_IhSaIhEEvEESt4lessIvESaISt4pairIKS5_SD_EEE4cendEv @963
    _ZNKSt3mapINSt7__cxx1112basic_stringIcSt11char_traitsIcESaIcEEEN8nlohmann16json_abi_v3_11_310basic_jsonIS_St6vectorS5_bxydSaNS7_14adl_serializerES9_IhSaIhEEvEESt4lessIvESaISt4pairIKS5_SD_EEE4sizeEv @964
    _ZNKSt3mapINSt7__cxx1112basic_stringIcSt11char_traitsIcESaIcEEEN8nlohmann16json_abi_v3_11_310basic_jsonIS_St6vectorS5_bxydSaNS7_14adl_serializerES9_IhSaIhEEvEESt4lessIvESaISt4pairIKS5_SD_EEE5emptyEv @965
    _ZNKSt3mapINSt7__cxx1112basic_stringIcSt11char_traitsIcESaIcEEEN8nlohmann16json_abi_v3_11_310basic_jsonIS_St6vectorS5_bxydSaNS7_14adl_serializerES9_IhSaIhEEvEESt4lessIvESaISt4pairIKS5_SD_EEE6cbeginEv @966
    _ZNKSt3mapIPN10FiCo4OMNeT12CanDataFrameEN7omnetpp7SimTimeESt4lessIS2_ESaISt4pairIKS2_S4_EEE4sizeEv @967
    _ZNKSt3mapIPN10FiCo4OMNeT12CanDataFrameEN7omnetpp7SimTimeESt4lessIS2_ESaISt4pairIKS2_S4_EEE8key_compEv @968
    _ZNKSt3mapIPN10FiCo4OMNeT12CanDataFrameEdSt4lessIS2_ESaISt4pairIKS2_dEEE3endEv @969
    _ZNKSt3mapIPN10FiCo4OMNeT12CanDataFrameEdSt4lessIS2_ESaISt4pairIKS2_dEEE4sizeEv @970
    _ZNKSt3mapIPN10FiCo4OMNeT12CanDataFrameEdSt4lessIS2_ESaISt4pairIKS2_dEEE5beginEv @971
    _ZNKSt3mapIPN10FiCo4OMNeT12CanDataFrameEdSt4lessIS2_ESaISt4pairIKS2_dEEE5emptyEv @972
    _ZNKSt3mapIPN10FiCo4OMNeT12CanDataFrameEdSt4lessIS2_ESaISt4pairIKS2_dEEE8key_compEv @973
    _ZNKSt3mapIiN7CAN4CQF22CircularRotationBuffer14wcrt_data_infoESt4lessIiESaISt4pairIKiS2_EEE8key_compEv @974
    _ZNKSt3mapIiPNSt7__cxx114listIPN7omnetpp8cMessageESaIS4_EEESt4lessIiESaISt4pairIKiS7_EEE8key_compEv @975
    _ZNKSt3mapIjNSt7__cxx114listIN7CAN4CQF21GatewayTransformation5QInfoESaIS4_EEESt4lessIjESaISt4pairIKjS6_EEE8key_compEv @976
    _ZNKSt3mapIjNSt7__cxx114listIN7CAN4CQF24EDFGatewayTransformation5QInfoESaIS4_EEESt4lessIjESaISt4pairIKjS6_EEE8key_compEv @977
    _ZNKSt3mapIjNSt7__cxx114listIN7CAN4CQF24RAEGatewayTransformation5QInfoESaIS4_EEESt4lessIjESaISt4pairIKjS6_EEE8key_compEv @978
    _ZNKSt3mapIjNSt7__cxx114listIN7CAN4CQF24VarGatewayTransformation5QInfoESaIS4_EEESt4lessIjESaISt4pairIKjS6_EEE8key_compEv @979
    _ZNKSt3mapIjNSt7__cxx114listIN7CAN4CQF28TimeoutGatewayTransformation5QInfoESaIS4_EEESt4lessIjESaISt4pairIKjS6_EEE8key_compEv @980
    _ZNKSt4lessIPN10FiCo4OMNeT12CanDataFrameEEclES2_S2_ @981
    _ZNKSt4lessIvEclIRKNSt7__cxx1112basic_stringIcSt11char_traitsIcESaIcEEES9_EEDTltclsr3stdE7forwardIT_Efp_Eclsr3stdE7forwardIT0_Efp0_EEOSA_OSB_ @982
    _ZNKSt5arrayIN8nlohmann16json_abi_v3_11_36detail9dtoa_impl12cached_powerELy79EE4sizeEv @983
    _ZNKSt5arrayIN8nlohmann16json_abi_v3_11_36detail9dtoa_impl12cached_powerELy79EEixEy @984
    _ZNKSt5arrayIS_IcLy2EELy100EEixEy @985
    _ZNKSt5arrayIcLy2EEixEy @986
    _ZNKSt5arrayIcLy512EE4sizeEv @987
    _ZNKSt5arrayIcLy64EE4sizeEv @988
    _ZNKSt5arrayIhLy400EE4sizeEv @989
    _ZNKSt5arrayIhLy400EEixEy @990
    _ZNKSt6vectorIN7CAN4CQF22CircularRotationBuffer9canfdInfoESaIS2_EE12_M_check_lenEyPKc @991
    _ZNKSt6vectorIN7CAN4CQF22CircularRotationBuffer9canfdInfoESaIS2_EE4sizeEv @992
    _ZNKSt6vectorIN7CAN4CQF22CircularRotationBuffer9canfdInfoESaIS2_EE6cbeginEv @993
    _ZNKSt6vectorIN7CAN4CQF22CircularRotationBuffer9canfdInfoESaIS2_EE8max_sizeEv @994
    _ZNKSt6vectorIN7CAN4CQF24RAEGatewayTransformation10order_infoESaIS2_EE12_M_check_lenEyPKc @995
    _ZNKSt6vectorIN7CAN4CQF24RAEGatewayTransformation10order_infoESaIS2_EE4sizeEv @996
    _ZNKSt6vectorIN7CAN4CQF24RAEGatewayTransformation10order_infoESaIS2_EE8max_sizeEv @997
    _ZNKSt6vectorIN8nlohmann16json_abi_v3_11_310basic_jsonISt3mapS_NSt7__cxx1112basic_stringIcSt11char_traitsIcESaIcEEEbxydSaNS1_14adl_serializerES_IhSaIhEEvEESaISD_EE12_M_check_lenEyPKc @998
    _ZNKSt6vectorIN8nlohmann16json_abi_v3_11_310basic_jsonISt3mapS_NSt7__cxx1112basic_stringIcSt11char_traitsIcESaIcEEEbxydSaNS1_14adl_serializerES_IhSaIhEEvEESaISD_EE3endEv @999
    _ZNKSt6vectorIN8nlohmann16json_abi_v3_11_310basic_jsonISt3mapS_NSt7__cxx1112basic_stringIcSt11char_traitsIcESaIcEEEbxydSaNS1_14adl_serializerES_IhSaIhEEvEESaISD_EE4cendEv @1000
    _ZNKSt6vectorIN8nlohmann16json_abi_v3_11_310basic_jsonISt3mapS_NSt7__cxx1112basic_stringIcSt11char_traitsIcESaIcEEEbxydSaNS1_14adl_serializerES_IhSaIhEEvEESaISD_EE4sizeEv @1001
    _ZNKSt6vectorIN8nlohmann16json_abi_v3_11_310basic_jsonISt3mapS_NSt7__cxx1112basic_stringIcSt11char_traitsIcESaIcEEEbxydSaNS1_14adl_serializerES_IhSaIhEEvEESaISD_EE5beginEv @1002
    _ZNKSt6vectorIN8nlohmann16json_abi_v3_11_310basic_jsonISt3mapS_NSt7__cxx1112basic_stringIcSt11char_traitsIcESaIcEEEbxydSaNS1_14adl_serializerES_IhSaIhEEvEESaISD_EE5emptyEv @1003
    _ZNKSt6vectorIN8nlohmann16json_abi_v3_11_310basic_jsonISt3mapS_NSt7__cxx1112basic_stringIcSt11char_traitsIcESaIcEEEbxydSaNS1_14adl_serializerES_IhSaIhEEvEESaISD_EE6cbeginEv @1004
    _ZNKSt6vectorIN8nlohmann16json_abi_v3_11_310basic_jsonISt3mapS_NSt7__cxx1112basic_stringIcSt11char_traitsIcESaIcEEEbxydSaNS1_14adl_serializerES_IhSaIhEEvEESaISD_EE8capacityEv @1005
    _ZNKSt6vectorIN8nlohmann16json_abi_v3_11_310basic_jsonISt3mapS_NSt7__cxx1112basic_stringIcSt11char_traitsIcESaIcEEEbxydSaNS1_14adl_serializerES_IhSaIhEEvEESaISD_EE8max_sizeEv @1006
    _ZNKSt6vectorISt4pairIPN10FiCo4OMNeT12CanDataFrameEdESaIS4_EE12_M_check_lenEyPKc @1007
    _ZNKSt6vectorISt4pairIPN10FiCo4OMNeT12CanDataFrameEdESaIS4_EE4sizeEv @1008
    _ZNKSt6vectorISt4pairIPN10FiCo4OMNeT12CanDataFrameEdESaIS4_EE8max_sizeEv @1009
    _ZNKSt6vectorIhSaIhEE3endEv @1010
    _ZNKSt6vectorIhSaIhEE4cendEv @1011
    _ZNKSt6vectorIhSaIhEE4sizeEv @1012
    _ZNKSt6vectorIhSaIhEE5beginEv @1013
    _ZNKSt6vectorIhSaIhEE5emptyEv @1014
    _ZNKSt6vectorIhSaIhEE6cbeginEv @1015
    _ZNKSt7__cxx1110_List_baseIPN10FiCo4OMNeT12CanDataFrameESaIS3_EE11_M_get_sizeEv @1016
    _ZNKSt7__cxx1110_List_baseIPN9CoRE4INET6BufferESaIS3_EE11_M_get_sizeEv @1017
    _ZNKSt7__cxx114listIPN10FiCo4OMNeT12CanDataFrameESaIS3_EE13_M_node_countEv @1018
    _ZNKSt7__cxx114listIPN10FiCo4OMNeT12CanDataFrameESaIS3_EE4sizeEv @1019
    _ZNKSt7__cxx114listIPN10FiCo4OMNeT12CanDataFrameESaIS3_EE5emptyEv @1020
    _ZNKSt7__cxx114listIPN9CoRE4INET6BufferESaIS3_EE13_M_node_countEv @1021
    _ZNKSt7__cxx114listIPN9CoRE4INET6BufferESaIS3_EE4sizeEv @1022
    _ZNKSt8_Rb_treeINSt7__cxx1112basic_stringIcSt11char_traitsIcESaIcEEESt4pairIKS5_N8nlohmann16json_abi_v3_11_310basic_jsonISt3mapSt6vectorS5_bxydSaNS9_14adl_serializerESC_IhSaIhEEvEEESt10_Select1stISH_ESt4lessIvESaISH_EE10_Auto_node6_M_keyEv @1023
    _ZNKSt8_Rb_treeINSt7__cxx1112basic_stringIcSt11char_traitsIcESaIcEEESt4pairIKS5_N8nlohmann16json_abi_v3_11_310basic_jsonISt3mapSt6vectorS5_bxydSaNS9_14adl_serializerESC_IhSaIhEEvEEESt10_Select1stISH_ESt4lessIvESaISH_EE11_Alloc_nodeclIRKSH_EEPSt13_Rb_tree_nodeISH_EOT_ @1024
    _ZNKSt8_Rb_treeINSt7__cxx1112basic_stringIcSt11char_traitsIcESaIcEEESt4pairIKS5_N8nlohmann16json_abi_v3_11_310basic_jsonISt3mapSt6vectorS5_bxydSaNS9_14adl_serializerESC_IhSaIhEEvEEESt10_Select1stISH_ESt4lessIvESaISH_EE3endEv @1025
    _ZNKSt8_Rb_treeINSt7__cxx1112basic_stringIcSt11char_traitsIcESaIcEEESt4pairIKS5_N8nlohmann16json_abi_v3_11_310basic_jsonISt3mapSt6vectorS5_bxydSaNS9_14adl_serializerESC_IhSaIhEEvEEESt10_Select1stISH_ESt4lessIvESaISH_EE4sizeEv @1026
    _ZNKSt8_Rb_treeINSt7__cxx1112basic_stringIcSt11char_traitsIcESaIcEEESt4pairIKS5_N8nlohmann16json_abi_v3_11_310basic_jsonISt3mapSt6vectorS5_bxydSaNS9_14adl_serializerESC_IhSaIhEEvEEESt10_Select1stISH_ESt4lessIvESaISH_EE5beginEv @1027
    _ZNKSt8_Rb_treeINSt7__cxx1112basic_stringIcSt11char_traitsIcESaIcEEESt4pairIKS5_N8nlohmann16json_abi_v3_11_310basic_jsonISt3mapSt6vectorS5_bxydSaNS9_14adl_serializerESC_IhSaIhEEvEEESt10_Select1stISH_ESt4lessIvESaISH_EE5emptyEv @1028
    _ZNKSt8_Rb_treeINSt7__cxx1112basic_stringIcSt11char_traitsIcESaIcEEESt4pairIKS5_N8nlohmann16json_abi_v3_11_310basic_jsonISt3mapSt6vectorS5_bxydSaNS9_14adl_serializerESC_IhSaIhEEvEEESt10_Select1stISH_ESt4lessIvESaISH_EE7_M_rootEv @1029
    _ZNKSt8_Rb_treeINSt7__cxx1112basic_stringIcSt11char_traitsIcESaIcEEESt4pairIKS5_N8nlohmann16json_abi_v3_11_310basic_jsonISt3mapSt6vectorS5_bxydSaNS9_14adl_serializerESC_IhSaIhEEvEEESt10_Select1stISH_ESt4lessIvESaISH_EE9_M_mbeginEv @1030
    _ZNKSt8_Rb_treeIPN10FiCo4OMNeT12CanDataFrameESt4pairIKS2_N7omnetpp7SimTimeEESt10_Select1stIS7_ESt4lessIS2_ESaIS7_EE10_Auto_node6_M_keyEv @1031
    _ZNKSt8_Rb_treeIPN10FiCo4OMNeT12CanDataFrameESt4pairIKS2_N7omnetpp7SimTimeEESt10_Select1stIS7_ESt4lessIS2_ESaIS7_EE11_Alloc_nodeclIRKS7_EEPSt13_Rb_tree_nodeIS7_EOT_ @1032
    _ZNKSt8_Rb_treeIPN10FiCo4OMNeT12CanDataFrameESt4pairIKS2_N7omnetpp7SimTimeEESt10_Select1stIS7_ESt4lessIS2_ESaIS7_EE4sizeEv @1033
    _ZNKSt8_Rb_treeIPN10FiCo4OMNeT12CanDataFrameESt4pairIKS2_N7omnetpp7SimTimeEESt10_Select1stIS7_ESt4lessIS2_ESaIS7_EE7_M_rootEv @1034
    _ZNKSt8_Rb_treeIPN10FiCo4OMNeT12CanDataFrameESt4pairIKS2_N7omnetpp7SimTimeEESt10_Select1stIS7_ESt4lessIS2_ESaIS7_EE8key_compEv @1035
    _ZNKSt8_Rb_treeIPN10FiCo4OMNeT12CanDataFrameESt4pairIKS2_N7omnetpp7SimTimeEESt10_Select1stIS7_ESt4lessIS2_ESaIS7_EE9_M_mbeginEv @1036
    _ZNKSt8_Rb_treeIPN10FiCo4OMNeT12CanDataFrameESt4pairIKS2_dESt10_Select1stIS5_ESt4lessIS2_ESaIS5_EE10_Auto_node6_M_keyEv @1037
    _ZNKSt8_Rb_treeIPN10FiCo4OMNeT12CanDataFrameESt4pairIKS2_dESt10_Select1stIS5_ESt4lessIS2_ESaIS5_EE11_Alloc_nodeclIRKS5_EEPSt13_Rb_tree_nodeIS5_EOT_ @1038
    _ZNKSt8_Rb_treeIPN10FiCo4OMNeT12CanDataFrameESt4pairIKS2_dESt10_Select1stIS5_ESt4lessIS2_ESaIS5_EE3endEv @1039
    _ZNKSt8_Rb_treeIPN10FiCo4OMNeT12CanDataFrameESt4pairIKS2_dESt10_Select1stIS5_ESt4lessIS2_ESaIS5_EE4sizeEv @1040
    _ZNKSt8_Rb_treeIPN10FiCo4OMNeT12CanDataFrameESt4pairIKS2_dESt10_Select1stIS5_ESt4lessIS2_ESaIS5_EE5beginEv @1041
    _ZNKSt8_Rb_treeIPN10FiCo4OMNeT12CanDataFrameESt4pairIKS2_dESt10_Select1stIS5_ESt4lessIS2_ESaIS5_EE5emptyEv @1042
    _ZNKSt8_Rb_treeIPN10FiCo4OMNeT12CanDataFrameESt4pairIKS2_dESt10_Select1stIS5_ESt4lessIS2_ESaIS5_EE7_M_rootEv @1043
    _ZNKSt8_Rb_treeIPN10FiCo4OMNeT12CanDataFrameESt4pairIKS2_dESt10_Select1stIS5_ESt4lessIS2_ESaIS5_EE8key_compEv @1044
    _ZNKSt8_Rb_treeIPN10FiCo4OMNeT12CanDataFrameESt4pairIKS2_dESt10_Select1stIS5_ESt4lessIS2_ESaIS5_EE9_M_mbeginEv @1045
    _ZNKSt8_Rb_treeIiSt4pairIKiN7CAN4CQF22CircularRotationBuffer14wcrt_data_infoEESt10_Select1stIS5_ESt4lessIiESaIS5_EE10_Auto_node6_M_keyEv @1046
    _ZNKSt8_Rb_treeIiSt4pairIKiN7CAN4CQF22CircularRotationBuffer14wcrt_data_infoEESt10_Select1stIS5_ESt4lessIiESaIS5_EE4sizeEv @1047
    _ZNKSt8_Rb_treeIiSt4pairIKiN7CAN4CQF22CircularRotationBuffer14wcrt_data_infoEESt10_Select1stIS5_ESt4lessIiESaIS5_EE8key_compEv @1048
    _ZNKSt8_Rb_treeIiSt4pairIKiN7CAN4CQF22CircularRotationBuffer14wcrt_data_infoEESt10_Select1stIS5_ESt4lessIiESaIS5_EE9_M_mbeginEv @1049
    _ZNKSt8_Rb_treeIiSt4pairIKiPNSt7__cxx114listIPN7omnetpp8cMessageESaIS6_EEEESt10_Select1stISA_ESt4lessIiESaISA_EE10_Auto_node6_M_keyEv @1050
    _ZNKSt8_Rb_treeIiSt4pairIKiPNSt7__cxx114listIPN7omnetpp8cMessageESaIS6_EEEESt10_Select1stISA_ESt4lessIiESaISA_EE4sizeEv @1051
    _ZNKSt8_Rb_treeIiSt4pairIKiPNSt7__cxx114listIPN7omnetpp8cMessageESaIS6_EEEESt10_Select1stISA_ESt4lessIiESaISA_EE8key_compEv @1052
    _ZNKSt8_Rb_treeIiSt4pairIKiPNSt7__cxx114listIPN7omnetpp8cMessageESaIS6_EEEESt10_Select1stISA_ESt4lessIiESaISA_EE9_M_mbeginEv @1053
    _ZNKSt8_Rb_treeIjSt4pairIKjNSt7__cxx114listIN7CAN4CQF21GatewayTransformation5QInfoESaIS6_EEEESt10_Select1stIS9_ESt4lessIjESaIS9_EE10_Auto_node6_M_keyEv @1054
    _ZNKSt8_Rb_treeIjSt4pairIKjNSt7__cxx114listIN7CAN4CQF21GatewayTransformation5QInfoESaIS6_EEEESt10_Select1stIS9_ESt4lessIjESaIS9_EE4sizeEv @1055
    _ZNKSt8_Rb_treeIjSt4pairIKjNSt7__cxx114listIN7CAN4CQF21GatewayTransformation5QInfoESaIS6_EEEESt10_Select1stIS9_ESt4lessIjESaIS9_EE8key_compEv @1056
    _ZNKSt8_Rb_treeIjSt4pairIKjNSt7__cxx114listIN7CAN4CQF21GatewayTransformation5QInfoESaIS6_EEEESt10_Select1stIS9_ESt4lessIjESaIS9_EE9_M_mbeginEv @1057
    _ZNKSt8_Rb_treeIjSt4pairIKjNSt7__cxx114listIN7CAN4CQF24EDFGatewayTransformation5QInfoESaIS6_EEEESt10_Select1stIS9_ESt4lessIjESaIS9_EE10_Auto_node6_M_keyEv @1058
    _ZNKSt8_Rb_treeIjSt4pairIKjNSt7__cxx114listIN7CAN4CQF24EDFGatewayTransformation5QInfoESaIS6_EEEESt10_Select1stIS9_ESt4lessIjESaIS9_EE4sizeEv @1059
    _ZNKSt8_Rb_treeIjSt4pairIKjNSt7__cxx114listIN7CAN4CQF24EDFGatewayTransformation5QInfoESaIS6_EEEESt10_Select1stIS9_ESt4lessIjESaIS9_EE8key_compEv @1060
    _ZNKSt8_Rb_treeIjSt4pairIKjNSt7__cxx114listIN7CAN4CQF24EDFGatewayTransformation5QInfoESaIS6_EEEESt10_Select1stIS9_ESt4lessIjESaIS9_EE9_M_mbeginEv @1061
    _ZNKSt8_Rb_treeIjSt4pairIKjNSt7__cxx114listIN7CAN4CQF24RAEGatewayTransformation5QInfoESaIS6_EEEESt10_Select1stIS9_ESt4lessIjESaIS9_EE10_Auto_node6_M_keyEv @1062
    _ZNKSt8_Rb_treeIjSt4pairIKjNSt7__cxx114listIN7CAN4CQF24RAEGatewayTransformation5QInfoESaIS6_EEEESt10_Select1stIS9_ESt4lessIjESaIS9_EE4sizeEv @1063
    _ZNKSt8_Rb_treeIjSt4pairIKjNSt7__cxx114listIN7CAN4CQF24RAEGatewayTransformation5QInfoESaIS6_EEEESt10_Select1stIS9_ESt4lessIjESaIS9_EE8key_compEv @1064
    _ZNKSt8_Rb_treeIjSt4pairIKjNSt7__cxx114listIN7CAN4CQF24RAEGatewayTransformation5QInfoESaIS6_EEEESt10_Select1stIS9_ESt4lessIjESaIS9_EE9_M_mbeginEv @1065
    _ZNKSt8_Rb_treeIjSt4pairIKjNSt7__cxx114listIN7CAN4CQF24VarGatewayTransformation5QInfoESaIS6_EEEESt10_Select1stIS9_ESt4lessIjESaIS9_EE10_Auto_node6_M_keyEv @1066
    _ZNKSt8_Rb_treeIjSt4pairIKjNSt7__cxx114listIN7CAN4CQF24VarGatewayTransformation5QInfoESaIS6_EEEESt10_Select1stIS9_ESt4lessIjESaIS9_EE4sizeEv @1067
    _ZNKSt8_Rb_treeIjSt4pairIKjNSt7__cxx114listIN7CAN4CQF24VarGatewayTransformation5QInfoESaIS6_EEEESt10_Select1stIS9_ESt4lessIjESaIS9_EE8key_compEv @1068
    _ZNKSt8_Rb_treeIjSt4pairIKjNSt7__cxx114listIN7CAN4CQF24VarGatewayTransformation5QInfoESaIS6_EEEESt10_Select1stIS9_ESt4lessIjESaIS9_EE9_M_mbeginEv @1069
    _ZNKSt8_Rb_treeIjSt4pairIKjNSt7__cxx114listIN7CAN4CQF28TimeoutGatewayTransformation5QInfoESaIS6_EEEESt10_Select1stIS9_ESt4lessIjESaIS9_EE10_Auto_node6_M_keyEv @1070
    _ZNKSt8_Rb_treeIjSt4pairIKjNSt7__cxx114listIN7CAN4CQF28TimeoutGatewayTransformation5QInfoESaIS6_EEEESt10_Select1stIS9_ESt4lessIjESaIS9_EE4sizeEv @1071
    _ZNKSt8_Rb_treeIjSt4pairIKjNSt7__cxx114listIN7CAN4CQF28TimeoutGatewayTransformation5QInfoESaIS6_EEEESt10_Select1stIS9_ESt4lessIjESaIS9_EE8key_compEv @1072
    _ZNKSt8_Rb_treeIjSt4pairIKjNSt7__cxx114listIN7CAN4CQF28TimeoutGatewayTransformation5QInfoESaIS6_EEEESt10_Select1stIS9_ESt4lessIjESaIS9_EE9_M_mbeginEv @1073
    _ZNKSt8__detail10_Hash_nodeISt4pairIKtNSt7__cxx114listIPN9CoRE4INET6BufferESaIS7_EEEELb0EE7_M_nextEv @1074
    _ZNKSt8__detail10_Select1stclIRKSt4pairIKtNSt7__cxx114listIPN9CoRE4INET6BufferESaIS8_EEEEEEONS0_10__1st_typeIT_E4typeEOSF_ @1075
    _ZNKSt8__detail14_Node_iteratorISt4pairIKtNSt7__cxx114listIPN9CoRE4INET6BufferESaIS7_EEEELb0ELb0EEdeEv @1076
    _ZNKSt8__detail14_Node_iteratorISt4pairIKtNSt7__cxx114listIPN9CoRE4INET6BufferESaIS7_EEEELb0ELb0EEptEv @1077
    _ZNKSt8__detail15_Hash_code_baseItSt4pairIKtNSt7__cxx114listIPN9CoRE4INET6BufferESaIS7_EEEENS_10_Select1stESt4hashItENS_18_Mod_range_hashingENS_20_Default_ranged_hashELb0EE12_M_hash_codeERS2_ @1078
    _ZNKSt8__detail15_Hash_code_baseItSt4pairIKtNSt7__cxx114listIPN9CoRE4INET6BufferESaIS7_EEEENS_10_Select1stESt4hashItENS_18_Mod_range_hashingENS_20_Default_ranged_hashELb0EE13_M_store_codeERNS_21_Hash_node_code_cacheILb0EEEy @1079
    _ZNKSt8__detail15_Hash_code_baseItSt4pairIKtNSt7__cxx114listIPN9CoRE4INET6BufferESaIS7_EEEENS_10_Select1stESt4hashItENS_18_Mod_range_hashingENS_20_Default_ranged_hashELb0EE15_M_bucket_indexERKNS_16_Hash_node_valueISA_Lb0EEEy @1080
    _ZNKSt8__detail15_Hash_code_baseItSt4pairIKtNSt7__cxx114listIPN9CoRE4INET6BufferESaIS7_EEEENS_10_Select1stESt4hashItENS_18_Mod_range_hashingENS_20_Default_ranged_hashELb0EE15_M_bucket_indexEyy @1081
    _ZNKSt8__detail15_Hash_code_baseItSt4pairIKtNSt7__cxx114listIPN9CoRE4INET6BufferESaIS7_EEEENS_10_Select1stESt4hashItENS_18_Mod_range_hashingENS_20_Default_ranged_hashELb0EE7_M_hashEv @1082
    _ZNKSt8__detail15_Hashtable_baseItSt4pairIKtNSt7__cxx114listIPN9CoRE4INET6BufferESaIS7_EEEENS_10_Select1stESt8equal_toItESt4hashItENS_18_Mod_range_hashingENS_20_Default_ranged_hashENS_17_Hashtable_traitsILb0ELb0ELb1EEEE13_M_key_equalsERS2_RKNS_16_Hash_node_valueISA_Lb0EEE @1083
    _ZNKSt8__detail15_Hashtable_baseItSt4pairIKtNSt7__cxx114listIPN9CoRE4INET6BufferESaIS7_EEEENS_10_Select1stESt8equal_toItESt4hashItENS_18_Mod_range_hashingENS_20_Default_ranged_hashENS_17_Hashtable_traitsILb0ELb0ELb1EEEE5_M_eqEv @1084
    _ZNKSt8__detail15_Hashtable_baseItSt4pairIKtNSt7__cxx114listIPN9CoRE4INET6BufferESaIS7_EEEENS_10_Select1stESt8equal_toItESt4hashItENS_18_Mod_range_hashingENS_20_Default_ranged_hashENS_17_Hashtable_traitsILb0ELb0ELb1EEEE9_M_equalsERS2_yRKNS_16_Hash_node_valueISA_Lb0EEE @1085
    _ZNKSt8__detail21_Hash_node_value_baseISt4pairIKtNSt7__cxx114listIPN9CoRE4INET6BufferESaIS7_EEEEE4_M_vEv @1086
    _ZNKSt8__detail21_Hash_node_value_baseISt4pairIKtNSt7__cxx114listIPN9CoRE4INET6BufferESaIS7_EEEEE9_M_valptrEv @1087
    _ZNKSt9type_info4nameEv @1088
    _ZNSaIN7CAN4CQF22CircularRotationBuffer9canfdInfoEEC2Ev @1089
    _ZNSaIN7CAN4CQF22CircularRotationBuffer9canfdInfoEED2Ev @1090
    _ZNSaIN7CAN4CQF24RAEGatewayTransformation10order_infoEEC2Ev @1091
    _ZNSaIN7CAN4CQF24RAEGatewayTransformation10order_infoEED2Ev @1092
    _ZNSaIN8nlohmann16json_abi_v3_11_310basic_jsonISt3mapSt6vectorNSt7__cxx1112basic_stringIcSt11char_traitsIcESaIcEEEbxydSaNS0_14adl_serializerES3_IhSaIhEEvEEEC2ERKSE_ @1093
    _ZNSaIN8nlohmann16json_abi_v3_11_310basic_jsonISt3mapSt6vectorNSt7__cxx1112basic_stringIcSt11char_traitsIcESaIcEEEbxydSaNS0_14adl_serializerES3_IhSaIhEEvEEEC2Ev @1094
    _ZNSaIN8nlohmann16json_abi_v3_11_310basic_jsonISt3mapSt6vectorNSt7__cxx1112basic_stringIcSt11char_traitsIcESaIcEEEbxydSaNS0_14adl_serializerES3_IhSaIhEEvEEED2Ev @1095
    _ZNSaIN8nlohmann16json_abi_v3_11_327byte_container_with_subtypeISt6vectorIhSaIhEEEEEC2Ev @1096
    _ZNSaIN8nlohmann16json_abi_v3_11_327byte_container_with_subtypeISt6vectorIhSaIhEEEEED2Ev @1097
    _ZNSaINSt8__detail10_Hash_nodeISt4pairIKtNSt7__cxx114listIPN9CoRE4INET6BufferESaIS7_EEEELb0EEEEC2Ev @1098
    _ZNSaINSt8__detail10_Hash_nodeISt4pairIKtNSt7__cxx114listIPN9CoRE4INET6BufferESaIS7_EEEELb0EEEED2Ev @1099
    _ZNSaIPNSt8__detail15_Hash_node_baseEEC2INS_10_Hash_nodeISt4pairIKtNSt7__cxx114listIPN9CoRE4INET6BufferESaISB_EEEELb0EEEEERKSaIT_E @1100
    _ZNSaISt10_List_nodeIN7CAN4CQF21GatewayTransformation5QInfoEEEC2Ev @1101
    _ZNSaISt10_List_nodeIN7CAN4CQF21GatewayTransformation5QInfoEEED2Ev @1102
    _ZNSaISt10_List_nodeIN7CAN4CQF24EDFGatewayTransformation5QInfoEEEC2Ev @1103
    _ZNSaISt10_List_nodeIN7CAN4CQF24EDFGatewayTransformation5QInfoEEED2Ev @1104
    _ZNSaISt10_List_nodeIN7CAN4CQF24RAEGatewayTransformation5QInfoEEEC2Ev @1105
    _ZNSaISt10_List_nodeIN7CAN4CQF24RAEGatewayTransformation5QInfoEEED2Ev @1106
    _ZNSaISt10_List_nodeIN7CAN4CQF24VarGatewayTransformation5QInfoEEEC2Ev @1107
    _ZNSaISt10_List_nodeIN7CAN4CQF24VarGatewayTransformation5QInfoEEED2Ev @1108
    _ZNSaISt10_List_nodeIN7CAN4CQF28TimeoutGatewayTransformation5QInfoEEEC2Ev @1109
    _ZNSaISt10_List_nodeIN7CAN4CQF28TimeoutGatewayTransformation5QInfoEEED2Ev @1110
    _ZNSaISt10_List_nodeIPN9CoRE4INET6BufferEEEC2Ev @1111
    _ZNSaISt10_List_nodeIPN9CoRE4INET6BufferEEED2Ev @1112
    _ZNSaISt13_Rb_tree_nodeISt4pairIKNSt7__cxx1112basic_stringIcSt11char_traitsIcESaIcEEEN8nlohmann16json_abi_v3_11_310basic_jsonISt3mapSt6vectorS6_bxydSaNS9_14adl_serializerESC_IhSaIhEEvEEEEEC2ERKSJ_ @1113
    _ZNSaISt13_Rb_tree_nodeISt4pairIKNSt7__cxx1112basic_stringIcSt11char_traitsIcESaIcEEEN8nlohmann16json_abi_v3_11_310basic_jsonISt3mapSt6vectorS6_bxydSaNS9_14adl_serializerESC_IhSaIhEEvEEEEEC2Ev @1114
    _ZNSaISt13_Rb_tree_nodeISt4pairIKNSt7__cxx1112basic_stringIcSt11char_traitsIcESaIcEEEN8nlohmann16json_abi_v3_11_310basic_jsonISt3mapSt6vectorS6_bxydSaNS9_14adl_serializerESC_IhSaIhEEvEEEEED2Ev @1115
    _ZNSaISt13_Rb_tree_nodeISt4pairIKPN10FiCo4OMNeT12CanDataFrameEN7omnetpp7SimTimeEEEEC2ERKS9_ @1116
    _ZNSaISt13_Rb_tree_nodeISt4pairIKPN10FiCo4OMNeT12CanDataFrameEN7omnetpp7SimTimeEEEEC2Ev @1117
    _ZNSaISt13_Rb_tree_nodeISt4pairIKPN10FiCo4OMNeT12CanDataFrameEN7omnetpp7SimTimeEEEED2Ev @1118
    _ZNSaISt13_Rb_tree_nodeISt4pairIKPN10FiCo4OMNeT12CanDataFrameEdEEEC2ERKS7_ @1119
    _ZNSaISt13_Rb_tree_nodeISt4pairIKPN10FiCo4OMNeT12CanDataFrameEdEEEC2Ev @1120
    _ZNSaISt13_Rb_tree_nodeISt4pairIKPN10FiCo4OMNeT12CanDataFrameEdEEED2Ev @1121
    _ZNSaISt13_Rb_tree_nodeISt4pairIKiN7CAN4CQF22CircularRotationBuffer14wcrt_data_infoEEEEC2Ev @1122
    _ZNSaISt13_Rb_tree_nodeISt4pairIKiN7CAN4CQF22CircularRotationBuffer14wcrt_data_infoEEEED2Ev @1123
    _ZNSaISt13_Rb_tree_nodeISt4pairIKiPNSt7__cxx114listIPN7omnetpp8cMessageESaIS6_EEEEEEC2Ev @1124
    _ZNSaISt13_Rb_tree_nodeISt4pairIKiPNSt7__cxx114listIPN7omnetpp8cMessageESaIS6_EEEEEED2Ev @1125
    _ZNSaISt13_Rb_tree_nodeISt4pairIKjNSt7__cxx114listIN7CAN4CQF21GatewayTransformation5QInfoESaIS6_EEEEEEC2Ev @1126
    _ZNSaISt13_Rb_tree_nodeISt4pairIKjNSt7__cxx114listIN7CAN4CQF21GatewayTransformation5QInfoESaIS6_EEEEEED2Ev @1127
    _ZNSaISt13_Rb_tree_nodeISt4pairIKjNSt7__cxx114listIN7CAN4CQF24EDFGatewayTransformation5QInfoESaIS6_EEEEEEC2Ev @1128
    _ZNSaISt13_Rb_tree_nodeISt4pairIKjNSt7__cxx114listIN7CAN4CQF24EDFGatewayTransformation5QInfoESaIS6_EEEEEED2Ev @1129
    _ZNSaISt13_Rb_tree_nodeISt4pairIKjNSt7__cxx114listIN7CAN4CQF24RAEGatewayTransformation5QInfoESaIS6_EEEEEEC2Ev @1130
    _ZNSaISt13_Rb_tree_nodeISt4pairIKjNSt7__cxx114listIN7CAN4CQF24RAEGatewayTransformation5QInfoESaIS6_EEEEEED2Ev @1131
    _ZNSaISt13_Rb_tree_nodeISt4pairIKjNSt7__cxx114listIN7CAN4CQF24VarGatewayTransformation5QInfoESaIS6_EEEEEEC2Ev @1132
    _ZNSaISt13_Rb_tree_nodeISt4pairIKjNSt7__cxx114listIN7CAN4CQF24VarGatewayTransformation5QInfoESaIS6_EEEEEED2Ev @1133
    _ZNSaISt13_Rb_tree_nodeISt4pairIKjNSt7__cxx114listIN7CAN4CQF28TimeoutGatewayTransformation5QInfoESaIS6_EEEEEEC2Ev @1134
    _ZNSaISt13_Rb_tree_nodeISt4pairIKjNSt7__cxx114listIN7CAN4CQF28TimeoutGatewayTransformation5QInfoESaIS6_EEEEEED2Ev @1135
    _ZNSaISt23_Sp_counted_ptr_inplaceIN8nlohmann16json_abi_v3_11_36detail21output_string_adapterIcNSt7__cxx1112basic_stringIcSt11char_traitsIcESaIcEEEEESaIvELN9__gnu_cxx12_Lock_policyE2EEEC2IvEERKSaIT_E @1136
    _ZNSaISt23_Sp_counted_ptr_inplaceIN8nlohmann16json_abi_v3_11_36detail21output_string_adapterIcNSt7__cxx1112basic_stringIcSt11char_traitsIcESaIcEEEEESaIvELN9__gnu_cxx12_Lock_policyE2EEED2Ev @1137
    _ZNSaISt3mapINSt7__cxx1112basic_stringIcSt11char_traitsIcESaIcEEEN8nlohmann16json_abi_v3_11_310basic_jsonIS_St6vectorS5_bxydSaNS7_14adl_serializerES9_IhSaIhEEvEESt4lessIvESaISt4pairIKS5_SD_EEEEC2Ev @1138
    _ZNSaISt3mapINSt7__cxx1112basic_stringIcSt11char_traitsIcESaIcEEEN8nlohmann16json_abi_v3_11_310basic_jsonIS_St6vectorS5_bxydSaNS7_14adl_serializerES9_IhSaIhEEvEESt4lessIvESaISt4pairIKS5_SD_EEEED2Ev @1139
    _ZNSaISt4pairIPN10FiCo4OMNeT12CanDataFrameEdEEC2Ev @1140
    _ZNSaISt4pairIPN10FiCo4OMNeT12CanDataFrameEdEED2Ev @1141
    _ZNSaISt6vectorIN8nlohmann16json_abi_v3_11_310basic_jsonISt3mapS_NSt7__cxx1112basic_stringIcSt11char_traitsIcESaIcEEEbxydSaNS1_14adl_serializerES_IhSaIhEEvEESaISD_EEEC2Ev @1142
    _ZNSaISt6vectorIN8nlohmann16json_abi_v3_11_310basic_jsonISt3mapS_NSt7__cxx1112basic_stringIcSt11char_traitsIcESaIcEEEbxydSaNS1_14adl_serializerES_IhSaIhEEvEESaISD_EEED2Ev @1143
    _ZNSaIhEC2ERKS_ @1144
    _ZNSaIhEC2Ev @1145
    _ZNSaIhED2Ev @1146
    _ZNSt10_HashtableItSt4pairIKtNSt7__cxx114listIPN9CoRE4INET6BufferESaIS6_EEEESaIS9_ENSt8__detail10_Select1stESt8equal_toItESt4hashItENSB_18_Mod_range_hashingENSB_20_Default_ranged_hashENSB_20_Prime_rehash_policyENSB_17_Hashtable_traitsILb0ELb0ELb1EEEE12_Scoped_nodeC2IJRKSt21piecewise_construct_tSt5tupleIJOtEESS_IJEEEEEPNSB_16_Hashtable_allocISaINSB_10_Hash_nodeIS9_Lb0EEEEEEDpOT_ @1147
    _ZNSt10_HashtableItSt4pairIKtNSt7__cxx114listIPN9CoRE4INET6BufferESaIS6_EEEESaIS9_ENSt8__detail10_Select1stESt8equal_toItESt4hashItENSB_18_Mod_range_hashingENSB_20_Default_ranged_hashENSB_20_Prime_rehash_policyENSB_17_Hashtable_traitsILb0ELb0ELb1EEEE12_Scoped_nodeD2Ev @1148
    _ZNSt10_HashtableItSt4pairIKtNSt7__cxx114listIPN9CoRE4INET6BufferESaIS6_EEEESaIS9_ENSt8__detail10_Select1stESt8equal_toItESt4hashItENSB_18_Mod_range_hashingENSB_20_Default_ranged_hashENSB_20_Prime_rehash_policyENSB_17_Hashtable_traitsILb0ELb0ELb1EEEE13_M_rehash_auxEySt17integral_constantIbLb1EE @1149
    _ZNSt10_HashtableItSt4pairIKtNSt7__cxx114listIPN9CoRE4INET6BufferESaIS6_EEEESaIS9_ENSt8__detail10_Select1stESt8equal_toItESt4hashItENSB_18_Mod_range_hashingENSB_20_Default_ranged_hashENSB_20_Prime_rehash_policyENSB_17_Hashtable_traitsILb0ELb0ELb1EEEE19_M_allocate_bucketsEy @1150
    _ZNSt10_HashtableItSt4pairIKtNSt7__cxx114listIPN9CoRE4INET6BufferESaIS6_EEEESaIS9_ENSt8__detail10_Select1stESt8equal_toItESt4hashItENSB_18_Mod_range_hashingENSB_20_Default_ranged_hashENSB_20_Prime_rehash_policyENSB_17_Hashtable_traitsILb0ELb0ELb1EEEE21_M_deallocate_bucketsEPPNSB_15_Hash_node_baseEy @1151
    _ZNSt10_HashtableItSt4pairIKtNSt7__cxx114listIPN9CoRE4INET6BufferESaIS6_EEEESaIS9_ENSt8__detail10_Select1stESt8equal_toItESt4hashItENSB_18_Mod_range_hashingENSB_20_Default_ranged_hashENSB_20_Prime_rehash_policyENSB_17_Hashtable_traitsILb0ELb0ELb1EEEE21_M_deallocate_bucketsEv @1152
    _ZNSt10_HashtableItSt4pairIKtNSt7__cxx114listIPN9CoRE4INET6BufferESaIS6_EEEESaIS9_ENSt8__detail10_Select1stESt8equal_toItESt4hashItENSB_18_Mod_range_hashingENSB_20_Default_ranged_hashENSB_20_Prime_rehash_policyENSB_17_Hashtable_traitsILb0ELb0ELb1EEEE21_M_insert_unique_nodeEyyPNSB_10_Hash_nodeIS9_Lb0EEEy @1153
    _ZNSt10_HashtableItSt4pairIKtNSt7__cxx114listIPN9CoRE4INET6BufferESaIS6_EEEESaIS9_ENSt8__detail10_Select1stESt8equal_toItESt4hashItENSB_18_Mod_range_hashingENSB_20_Default_ranged_hashENSB_20_Prime_rehash_policyENSB_17_Hashtable_traitsILb0ELb0ELb1EEEE22_M_insert_bucket_beginEyPNSB_10_Hash_nodeIS9_Lb0EEE @1154
    _ZNSt10_HashtableItSt4pairIKtNSt7__cxx114listIPN9CoRE4INET6BufferESaIS6_EEEESaIS9_ENSt8__detail10_Select1stESt8equal_toItESt4hashItENSB_18_Mod_range_hashingENSB_20_Default_ranged_hashENSB_20_Prime_rehash_policyENSB_17_Hashtable_traitsILb0ELb0ELb1EEEE3endEv @1155
    _ZNSt10_HashtableItSt4pairIKtNSt7__cxx114listIPN9CoRE4INET6BufferESaIS6_EEEESaIS9_ENSt8__detail10_Select1stESt8equal_toItESt4hashItENSB_18_Mod_range_hashingENSB_20_Default_ranged_hashENSB_20_Prime_rehash_policyENSB_17_Hashtable_traitsILb0ELb0ELb1EEEE5beginEv @1156
    _ZNSt10_HashtableItSt4pairIKtNSt7__cxx114listIPN9CoRE4INET6BufferESaIS6_EEEESaIS9_ENSt8__detail10_Select1stESt8equal_toItESt4hashItENSB_18_Mod_range_hashingENSB_20_Default_ranged_hashENSB_20_Prime_rehash_policyENSB_17_Hashtable_traitsILb0ELb0ELb1EEEE5clearEv @1157
    _ZNSt10_HashtableItSt4pairIKtNSt7__cxx114listIPN9CoRE4INET6BufferESaIS6_EEEESaIS9_ENSt8__detail10_Select1stESt8equal_toItESt4hashItENSB_18_Mod_range_hashingENSB_20_Default_ranged_hashENSB_20_Prime_rehash_policyENSB_17_Hashtable_traitsILb0ELb0ELb1EEEE9_M_rehashEyRKy @1158
    _ZNSt10_HashtableItSt4pairIKtNSt7__cxx114listIPN9CoRE4INET6BufferESaIS6_EEEESaIS9_ENSt8__detail10_Select1stESt8equal_toItESt4hashItENSB_18_Mod_range_hashingENSB_20_Default_ranged_hashENSB_20_Prime_rehash_policyENSB_17_Hashtable_traitsILb0ELb0ELb1EEEEC2Ev @1159
    _ZNSt10_HashtableItSt4pairIKtNSt7__cxx114listIPN9CoRE4INET6BufferESaIS6_EEEESaIS9_ENSt8__detail10_Select1stESt8equal_toItESt4hashItENSB_18_Mod_range_hashingENSB_20_Default_ranged_hashENSB_20_Prime_rehash_policyENSB_17_Hashtable_traitsILb0ELb0ELb1EEEED2Ev @1160
    _ZNSt10_Head_baseILy0EOiLb0EE7_M_headERS1_ @1161
    _ZNSt10_Head_baseILy0EOiLb0EEC2IiEEOT_ @1162
    _ZNSt10_Head_baseILy0EPN8nlohmann16json_abi_v3_11_327byte_container_with_subtypeISt6vectorIhSaIhEEEELb0EE7_M_headERKS8_ @1163
    _ZNSt10_Head_baseILy0EPN8nlohmann16json_abi_v3_11_327byte_container_with_subtypeISt6vectorIhSaIhEEEELb0EE7_M_headERS8_ @1164
    _ZNSt10_Head_baseILy0EPN8nlohmann16json_abi_v3_11_327byte_container_with_subtypeISt6vectorIhSaIhEEEELb0EEC2IRS7_EEOT_ @1165
    _ZNSt10_Head_baseILy0EPNSt7__cxx1112basic_stringIcSt11char_traitsIcESaIcEEELb0EE7_M_headERKS7_ @1166
    _ZNSt10_Head_baseILy0EPNSt7__cxx1112basic_stringIcSt11char_traitsIcESaIcEEELb0EE7_M_headERS7_ @1167
    _ZNSt10_Head_baseILy0EPNSt7__cxx1112basic_stringIcSt11char_traitsIcESaIcEEELb0EEC2IRS6_EEOT_ @1168
    _ZNSt10_Head_baseILy0EPSt3mapINSt7__cxx1112basic_stringIcSt11char_traitsIcESaIcEEEN8nlohmann16json_abi_v3_11_310basic_jsonIS0_St6vectorS6_bxydSaNS8_14adl_serializerESA_IhSaIhEEvEESt4lessIvESaISt4pairIKS6_SE_EEELb0EE7_M_headERKSN_ @1169
    _ZNSt10_Head_baseILy0EPSt3mapINSt7__cxx1112basic_stringIcSt11char_traitsIcESaIcEEEN8nlohmann16json_abi_v3_11_310basic_jsonIS0_St6vectorS6_bxydSaNS8_14adl_serializerESA_IhSaIhEEvEESt4lessIvESaISt4pairIKS6_SE_EEELb0EE7_M_headERSN_ @1170
    _ZNSt10_Head_baseILy0EPSt3mapINSt7__cxx1112basic_stringIcSt11char_traitsIcESaIcEEEN8nlohmann16json_abi_v3_11_310basic_jsonIS0_St6vectorS6_bxydSaNS8_14adl_serializerESA_IhSaIhEEvEESt4lessIvESaISt4pairIKS6_SE_EEELb0EEC2IRSM_EEOT_ @1171
    _ZNSt10_Head_baseILy0EPSt6vectorIN8nlohmann16json_abi_v3_11_310basic_jsonISt3mapS0_NSt7__cxx1112basic_stringIcSt11char_traitsIcESaIcEEEbxydSaNS2_14adl_serializerES0_IhSaIhEEvEESaISE_EELb0EE7_M_headERKSI_ @1172
    _ZNSt10_Head_baseILy0EPSt6vectorIN8nlohmann16json_abi_v3_11_310basic_jsonISt3mapS0_NSt7__cxx1112basic_stringIcSt11char_traitsIcESaIcEEEbxydSaNS2_14adl_serializerES0_IhSaIhEEvEESaISE_EELb0EE7_M_headERSI_ @1173
    _ZNSt10_Head_baseILy0EPSt6vectorIN8nlohmann16json_abi_v3_11_310basic_jsonISt3mapS0_NSt7__cxx1112basic_stringIcSt11char_traitsIcESaIcEEEbxydSaNS2_14adl_serializerES0_IhSaIhEEvEESaISE_EELb0EEC2IRSH_EEOT_ @1174
    _ZNSt10_Head_baseILy0ERKPN10FiCo4OMNeT12CanDataFrameELb0EE7_M_headERS5_ @1175
    _ZNSt10_Head_baseILy0ERKPN10FiCo4OMNeT12CanDataFrameELb0EEC2ES4_ @1176
    _ZNSt10_Head_baseILy1EZN8nlohmann16json_abi_v3_11_310basic_jsonISt3mapSt6vectorNSt7__cxx1112basic_stringIcSt11char_traitsIcESaIcEEEbxydSaNS1_14adl_serializerES4_IhSaIhEEvE6createINS1_27byte_container_with_subtypeISD_EEJEEEPT_DpOT0_EUlPSH_E_Lb0EE7_M_headERSP_ @1177
    _ZNSt10_Head_baseILy1EZN8nlohmann16json_abi_v3_11_310basic_jsonISt3mapSt6vectorNSt7__cxx1112basic_stringIcSt11char_traitsIcESaIcEEEbxydSaNS1_14adl_serializerES4_IhSaIhEEvE6createINS1_27byte_container_with_subtypeISD_EEJEEEPT_DpOT0_EUlPSH_E_Lb0EEC2ERKSO_ @1178
    _ZNSt10_Head_baseILy1EZN8nlohmann16json_abi_v3_11_310basic_jsonISt3mapSt6vectorNSt7__cxx1112basic_stringIcSt11char_traitsIcESaIcEEEbxydSaNS1_14adl_serializerES4_IhSaIhEEvE6createINS1_27byte_container_with_subtypeISD_EEJRKSH_EEEPT_DpOT0_EUlPSH_E_Lb0EE7_M_headERSR_ @1179
    _ZNSt10_Head_baseILy1EZN8nlohmann16json_abi_v3_11_310basic_jsonISt3mapSt6vectorNSt7__cxx1112basic_stringIcSt11char_traitsIcESaIcEEEbxydSaNS1_14adl_serializerES4_IhSaIhEEvE6createINS1_27byte_container_with_subtypeISD_EEJRKSH_EEEPT_DpOT0_EUlPSH_E_Lb0EEC2ERKSQ_ @1180
    _ZNSt10_Head_baseILy1EZN8nlohmann16json_abi_v3_11_310basic_jsonISt3mapSt6vectorNSt7__cxx1112basic_stringIcSt11char_traitsIcESaIcEEEbxydSaNS1_14adl_serializerES4_IhSaIhEEvE6createIS3_ISA_SE_St4lessIvESaISt4pairIKSA_SE_EEEJEEEPT_DpOT0_EUlPSM_E_Lb0EE7_M_headERSU_ @1181
    _ZNSt10_Head_baseILy1EZN8nlohmann16json_abi_v3_11_310basic_jsonISt3mapSt6vectorNSt7__cxx1112basic_stringIcSt11char_traitsIcESaIcEEEbxydSaNS1_14adl_serializerES4_IhSaIhEEvE6createIS3_ISA_SE_St4lessIvESaISt4pairIKSA_SE_EEEJEEEPT_DpOT0_EUlPSM_E_Lb0EEC2ERKST_ @1182
    _ZNSt10_Head_baseILy1EZN8nlohmann16json_abi_v3_11_310basic_jsonISt3mapSt6vectorNSt7__cxx1112basic_stringIcSt11char_traitsIcESaIcEEEbxydSaNS1_14adl_serializerES4_IhSaIhEEvE6createIS3_ISA_SE_St4lessIvESaISt4pairIKSA_SE_EEEJRKSM_EEEPT_DpOT0_EUlPSM_E_Lb0EE7_M_headERSW_ @1183
    _ZNSt10_Head_baseILy1EZN8nlohmann16json_abi_v3_11_310basic_jsonISt3mapSt6vectorNSt7__cxx1112basic_stringIcSt11char_traitsIcESaIcEEEbxydSaNS1_14adl_serializerES4_IhSaIhEEvE6createIS3_ISA_SE_St4lessIvESaISt4pairIKSA_SE_EEEJRKSM_EEEPT_DpOT0_EUlPSM_E_Lb0EEC2ERKSV_ @1184
    _ZNSt10_Head_baseILy1EZN8nlohmann16json_abi_v3_11_310basic_jsonISt3mapSt6vectorNSt7__cxx1112basic_stringIcSt11char_traitsIcESaIcEEEbxydSaNS1_14adl_serializerES4_IhSaIhEEvE6createIS4_ISE_SaISE_EEJEEEPT_DpOT0_EUlPSH_E_Lb0EE7_M_headERSP_ @1185
    _ZNSt10_Head_baseILy1EZN8nlohmann16json_abi_v3_11_310basic_jsonISt3mapSt6vectorNSt7__cxx1112basic_stringIcSt11char_traitsIcESaIcEEEbxydSaNS1_14adl_serializerES4_IhSaIhEEvE6createIS4_ISE_SaISE_EEJEEEPT_DpOT0_EUlPSH_E_Lb0EEC2ERKSO_ @1186
    _ZNSt10_Head_baseILy1EZN8nlohmann16json_abi_v3_11_310basic_jsonISt3mapSt6vectorNSt7__cxx1112basic_stringIcSt11char_traitsIcESaIcEEEbxydSaNS1_14adl_serializerES4_IhSaIhEEvE6createIS4_ISE_SaISE_EEJPKNS1_6detail8json_refISE_EESM_EEEPT_DpOT0_EUlPSH_E_Lb0EE7_M_headERSU_ @1187
    _ZNSt10_Head_baseILy1EZN8nlohmann16json_abi_v3_11_310basic_jsonISt3mapSt6vectorNSt7__cxx1112basic_stringIcSt11char_traitsIcESaIcEEEbxydSaNS1_14adl_serializerES4_IhSaIhEEvE6createIS4_ISE_SaISE_EEJPKNS1_6detail8json_refISE_EESM_EEEPT_DpOT0_EUlPSH_E_Lb0EEC2ERKST_ @1188
    _ZNSt10_Head_baseILy1EZN8nlohmann16json_abi_v3_11_310basic_jsonISt3mapSt6vectorNSt7__cxx1112basic_stringIcSt11char_traitsIcESaIcEEEbxydSaNS1_14adl_serializerES4_IhSaIhEEvE6createIS4_ISE_SaISE_EEJRKSH_EEEPT_DpOT0_EUlPSH_E_Lb0EE7_M_headERSR_ @1189
    _ZNSt10_Head_baseILy1EZN8nlohmann16json_abi_v3_11_310basic_jsonISt3mapSt6vectorNSt7__cxx1112basic_stringIcSt11char_traitsIcESaIcEEEbxydSaNS1_14adl_serializerES4_IhSaIhEEvE6createIS4_ISE_SaISE_EEJRKSH_EEEPT_DpOT0_EUlPSH_E_Lb0EEC2ERKSQ_ @1190
    _ZNSt10_Head_baseILy1EZN8nlohmann16json_abi_v3_11_310basic_jsonISt3mapSt6vectorNSt7__cxx1112basic_stringIcSt11char_traitsIcESaIcEEEbxydSaNS1_14adl_serializerES4_IhSaIhEEvE6createISA_JRA1_KcEEEPT_DpOT0_EUlPSA_E_Lb0EE7_M_headERSQ_ @1191
    _ZNSt10_Head_baseILy1EZN8nlohmann16json_abi_v3_11_310basic_jsonISt3mapSt6vectorNSt7__cxx1112basic_stringIcSt11char_traitsIcESaIcEEEbxydSaNS1_14adl_serializerES4_IhSaIhEEvE6createISA_JRA1_KcEEEPT_DpOT0_EUlPSA_E_Lb0EEC2ERKSP_ @1192
    _ZNSt10_Head_baseILy1EZN8nlohmann16json_abi_v3_11_310basic_jsonISt3mapSt6vectorNSt7__cxx1112basic_stringIcSt11char_traitsIcESaIcEEEbxydSaNS1_14adl_serializerES4_IhSaIhEEvE6createISA_JRKSA_EEEPT_DpOT0_EUlPSA_E_Lb0EE7_M_headERSP_ @1193
    _ZNSt10_Head_baseILy1EZN8nlohmann16json_abi_v3_11_310basic_jsonISt3mapSt6vectorNSt7__cxx1112basic_stringIcSt11char_traitsIcESaIcEEEbxydSaNS1_14adl_serializerES4_IhSaIhEEvE6createISA_JRKSA_EEEPT_DpOT0_EUlPSA_E_Lb0EEC2ERKSO_ @1194
    _ZNSt10_List_nodeIN7CAN4CQF21GatewayTransformation5QInfoEE9_M_valptrEv @1195
    _ZNSt10_List_nodeIN7CAN4CQF24EDFGatewayTransformation5QInfoEE9_M_valptrEv @1196
    _ZNSt10_List_nodeIN7CAN4CQF24RAEGatewayTransformation5QInfoEE9_M_valptrEv @1197
    _ZNSt10_List_nodeIN7CAN4CQF24VarGatewayTransformation5QInfoEE9_M_valptrEv @1198
    _ZNSt10_List_nodeIN7CAN4CQF28TimeoutGatewayTransformation5QInfoEE9_M_valptrEv @1199
    _ZNSt10_List_nodeIPN9CoRE4INET6BufferEE9_M_valptrEv @1200
    _ZNSt10shared_ptrIN8nlohmann16json_abi_v3_11_36detail21output_string_adapterIcNSt7__cxx1112basic_stringIcSt11char_traitsIcESaIcEEEEEEC2ISaIvEJRS9_EEESt20_Sp_alloc_shared_tagIT_EDpOT0_ @1201
    _ZNSt10shared_ptrIN8nlohmann16json_abi_v3_11_36detail21output_string_adapterIcNSt7__cxx1112basic_stringIcSt11char_traitsIcESaIcEEEEEED2Ev @1202
    _ZNSt10shared_ptrIN8nlohmann16json_abi_v3_11_36detail23output_adapter_protocolIcEEEC2EOS5_ @1203
    _ZNSt10shared_ptrIN8nlohmann16json_abi_v3_11_36detail23output_adapter_protocolIcEEEC2ERKS5_ @1204
    _ZNSt10shared_ptrIN8nlohmann16json_abi_v3_11_36detail23output_adapter_protocolIcEEEC2INS2_21output_string_adapterIcNSt7__cxx1112basic_stringIcSt11char_traitsIcESaIcEEEEEvEEOS_IT_E @1205
    _ZNSt10shared_ptrIN8nlohmann16json_abi_v3_11_36detail23output_adapter_protocolIcEEED2Ev @1206
    _ZNSt10unique_ptrIN8nlohmann16json_abi_v3_11_327byte_container_with_subtypeISt6vectorIhSaIhEEEEZNS1_10basic_jsonISt3mapS3_NSt7__cxx1112basic_stringIcSt11char_traitsIcESaIcEEEbxydSaNS1_14adl_serializerES5_vE6createIS6_JEEEPT_DpOT0_EUlPS6_E_E11get_deleterEv @1207
    _ZNSt10unique_ptrIN8nlohmann16json_abi_v3_11_327byte_container_with_subtypeISt6vectorIhSaIhEEEEZNS1_10basic_jsonISt3mapS3_NSt7__cxx1112basic_stringIcSt11char_traitsIcESaIcEEEbxydSaNS1_14adl_serializerES5_vE6createIS6_JEEEPT_DpOT0_EUlPS6_E_E7releaseEv @1208
    _ZNSt10unique_ptrIN8nlohmann16json_abi_v3_11_327byte_container_with_subtypeISt6vectorIhSaIhEEEEZNS1_10basic_jsonISt3mapS3_NSt7__cxx1112basic_stringIcSt11char_traitsIcESaIcEEEbxydSaNS1_14adl_serializerES5_vE6createIS6_JEEEPT_DpOT0_EUlPS6_E_EC2ISO_vEESN_RKSO_ @1209
    _ZNSt10unique_ptrIN8nlohmann16json_abi_v3_11_327byte_container_with_subtypeISt6vectorIhSaIhEEEEZNS1_10basic_jsonISt3mapS3_NSt7__cxx1112basic_stringIcSt11char_traitsIcESaIcEEEbxydSaNS1_14adl_serializerES5_vE6createIS6_JEEEPT_DpOT0_EUlPS6_E_ED2Ev @1210
    _ZNSt10unique_ptrIN8nlohmann16json_abi_v3_11_327byte_container_with_subtypeISt6vectorIhSaIhEEEEZNS1_10basic_jsonISt3mapS3_NSt7__cxx1112basic_stringIcSt11char_traitsIcESaIcEEEbxydSaNS1_14adl_serializerES5_vE6createIS6_JRKS6_EEEPT_DpOT0_EUlPS6_E_E11get_deleterEv @1211
    _ZNSt10unique_ptrIN8nlohmann16json_abi_v3_11_327byte_container_with_subtypeISt6vectorIhSaIhEEEEZNS1_10basic_jsonISt3mapS3_NSt7__cxx1112basic_stringIcSt11char_traitsIcESaIcEEEbxydSaNS1_14adl_serializerES5_vE6createIS6_JRKS6_EEEPT_DpOT0_EUlPS6_E_E7releaseEv @1212
    _ZNSt10unique_ptrIN8nlohmann16json_abi_v3_11_327byte_container_with_subtypeISt6vectorIhSaIhEEEEZNS1_10basic_jsonISt3mapS3_NSt7__cxx1112basic_stringIcSt11char_traitsIcESaIcEEEbxydSaNS1_14adl_serializerES5_vE6createIS6_JRKS6_EEEPT_DpOT0_EUlPS6_E_EC2ISQ_vEESP_RKSQ_ @1213
    _ZNSt10unique_ptrIN8nlohmann16json_abi_v3_11_327byte_container_with_subtypeISt6vectorIhSaIhEEEEZNS1_10basic_jsonISt3mapS3_NSt7__cxx1112basic_stringIcSt11char_traitsIcESaIcEEEbxydSaNS1_14adl_serializerES5_vE6createIS6_JRKS6_EEEPT_DpOT0_EUlPS6_E_ED2Ev @1214
    _ZNSt10unique_ptrINSt7__cxx1112basic_stringIcSt11char_traitsIcESaIcEEEZN8nlohmann16json_abi_v3_11_310basic_jsonISt3mapSt6vectorS5_bxydSaNS7_14adl_serializerESA_IhSaIhEEvE6createIS5_JRA1_KcEEEPT_DpOT0_EUlPS5_E_E11get_deleterEv @1215
    _ZNSt10unique_ptrINSt7__cxx1112basic_stringIcSt11char_traitsIcESaIcEEEZN8nlohmann16json_abi_v3_11_310basic_jsonISt3mapSt6vectorS5_bxydSaNS7_14adl_serializerESA_IhSaIhEEvE6createIS5_JRA1_KcEEEPT_DpOT0_EUlPS5_E_E7releaseEv @1216
    _ZNSt10unique_ptrINSt7__cxx1112basic_stringIcSt11char_traitsIcESaIcEEEZN8nlohmann16json_abi_v3_11_310basic_jsonISt3mapSt6vectorS5_bxydSaNS7_14adl_serializerESA_IhSaIhEEvE6createIS5_JRA1_KcEEEPT_DpOT0_EUlPS5_E_EC2ISP_vEESO_RKSP_ @1217
    _ZNSt10unique_ptrINSt7__cxx1112basic_stringIcSt11char_traitsIcESaIcEEEZN8nlohmann16json_abi_v3_11_310basic_jsonISt3mapSt6vectorS5_bxydSaNS7_14adl_serializerESA_IhSaIhEEvE6createIS5_JRA1_KcEEEPT_DpOT0_EUlPS5_E_ED2Ev @1218
    _ZNSt10unique_ptrINSt7__cxx1112basic_stringIcSt11char_traitsIcESaIcEEEZN8nlohmann16json_abi_v3_11_310basic_jsonISt3mapSt6vectorS5_bxydSaNS7_14adl_serializerESA_IhSaIhEEvE6createIS5_JRKS5_EEEPT_DpOT0_EUlPS5_E_E11get_deleterEv @1219
    _ZNSt10unique_ptrINSt7__cxx1112basic_stringIcSt11char_traitsIcESaIcEEEZN8nlohmann16json_abi_v3_11_310basic_jsonISt3mapSt6vectorS5_bxydSaNS7_14adl_serializerESA_IhSaIhEEvE6createIS5_JRKS5_EEEPT_DpOT0_EUlPS5_E_E7releaseEv @1220
    _ZNSt10unique_ptrINSt7__cxx1112basic_stringIcSt11char_traitsIcESaIcEEEZN8nlohmann16json_abi_v3_11_310basic_jsonISt3mapSt6vectorS5_bxydSaNS7_14adl_serializerESA_IhSaIhEEvE6createIS5_JRKS5_EEEPT_DpOT0_EUlPS5_E_EC2ISO_vEESN_RKSO_ @1221
    _ZNSt10unique_ptrINSt7__cxx1112basic_stringIcSt11char_traitsIcESaIcEEEZN8nlohmann16json_abi_v3_11_310basic_jsonISt3mapSt6vectorS5_bxydSaNS7_14adl_serializerESA_IhSaIhEEvE6createIS5_JRKS5_EEEPT_DpOT0_EUlPS5_E_ED2Ev @1222
    _ZNSt10unique_ptrISt3mapINSt7__cxx1112basic_stringIcSt11char_traitsIcESaIcEEEN8nlohmann16json_abi_v3_11_310basic_jsonIS0_St6vectorS6_bxydSaNS8_14adl_serializerESA_IhSaIhEEvEESt4lessIvESaISt4pairIKS6_SE_EEEZNSE_6createISL_JEEEPT_DpOT0_EUlPSL_E_E11get_deleterEv @1223
    _ZNSt10unique_ptrISt3mapINSt7__cxx1112basic_stringIcSt11char_traitsIcESaIcEEEN8nlohmann16json_abi_v3_11_310basic_jsonIS0_St6vectorS6_bxydSaNS8_14adl_serializerESA_IhSaIhEEvEESt4lessIvESaISt4pairIKS6_SE_EEEZNSE_6createISL_JEEEPT_DpOT0_EUlPSL_E_E7releaseEv @1224
    _ZNSt10unique_ptrISt3mapINSt7__cxx1112basic_stringIcSt11char_traitsIcESaIcEEEN8nlohmann16json_abi_v3_11_310basic_jsonIS0_St6vectorS6_bxydSaNS8_14adl_serializerESA_IhSaIhEEvEESt4lessIvESaISt4pairIKS6_SE_EEEZNSE_6createISL_JEEEPT_DpOT0_EUlPSL_E_EC2IST_vEESS_RKST_ @1225
    _ZNSt10unique_ptrISt3mapINSt7__cxx1112basic_stringIcSt11char_traitsIcESaIcEEEN8nlohmann16json_abi_v3_11_310basic_jsonIS0_St6vectorS6_bxydSaNS8_14adl_serializerESA_IhSaIhEEvEESt4lessIvESaISt4pairIKS6_SE_EEEZNSE_6createISL_JEEEPT_DpOT0_EUlPSL_E_ED2Ev @1226
    _ZNSt10unique_ptrISt3mapINSt7__cxx1112basic_stringIcSt11char_traitsIcESaIcEEEN8nlohmann16json_abi_v3_11_310basic_jsonIS0_St6vectorS6_bxydSaNS8_14adl_serializerESA_IhSaIhEEvEESt4lessIvESaISt4pairIKS6_SE_EEEZNSE_6createISL_JRKSL_EEEPT_DpOT0_EUlPSL_E_E11get_deleterEv @1227
    _ZNSt10unique_ptrISt3mapINSt7__cxx1112basic_stringIcSt11char_traitsIcESaIcEEEN8nlohmann16json_abi_v3_11_310basic_jsonIS0_St6vectorS6_bxydSaNS8_14adl_serializerESA_IhSaIhEEvEESt4lessIvESaISt4pairIKS6_SE_EEEZNSE_6createISL_JRKSL_EEEPT_DpOT0_EUlPSL_E_E7releaseEv @1228
    _ZNSt10unique_ptrISt3mapINSt7__cxx1112basic_stringIcSt11char_traitsIcESaIcEEEN8nlohmann16json_abi_v3_11_310basic_jsonIS0_St6vectorS6_bxydSaNS8_14adl_serializerESA_IhSaIhEEvEESt4lessIvESaISt4pairIKS6_SE_EEEZNSE_6createISL_JRKSL_EEEPT_DpOT0_EUlPSL_E_EC2ISV_vEESU_RKSV_ @1229
    _ZNSt10unique_ptrISt3mapINSt7__cxx1112basic_stringIcSt11char_traitsIcESaIcEEEN8nlohmann16json_abi_v3_11_310basic_jsonIS0_St6vectorS6_bxydSaNS8_14adl_serializerESA_IhSaIhEEvEESt4lessIvESaISt4pairIKS6_SE_EEEZNSE_6createISL_JRKSL_EEEPT_DpOT0_EUlPSL_E_ED2Ev @1230
    _ZNSt10unique_ptrISt6vectorIN8nlohmann16json_abi_v3_11_310basic_jsonISt3mapS0_NSt7__cxx1112basic_stringIcSt11char_traitsIcESaIcEEEbxydSaNS2_14adl_serializerES0_IhSaIhEEvEESaISE_EEZNSE_6createISG_JEEEPT_DpOT0_EUlPSG_E_E11get_deleterEv @1231
    _ZNSt10unique_ptrISt6vectorIN8nlohmann16json_abi_v3_11_310basic_jsonISt3mapS0_NSt7__cxx1112basic_stringIcSt11char_traitsIcESaIcEEEbxydSaNS2_14adl_serializerES0_IhSaIhEEvEESaISE_EEZNSE_6createISG_JEEEPT_DpOT0_EUlPSG_E_E7releaseEv @1232
    _ZNSt10unique_ptrISt6vectorIN8nlohmann16json_abi_v3_11_310basic_jsonISt3mapS0_NSt7__cxx1112basic_stringIcSt11char_traitsIcESaIcEEEbxydSaNS2_14adl_serializerES0_IhSaIhEEvEESaISE_EEZNSE_6createISG_JEEEPT_DpOT0_EUlPSG_E_EC2ISO_vEESN_RKSO_ @1233
    _ZNSt10unique_ptrISt6vectorIN8nlohmann16json_abi_v3_11_310basic_jsonISt3mapS0_NSt7__cxx1112basic_stringIcSt11char_traitsIcESaIcEEEbxydSaNS2_14adl_serializerES0_IhSaIhEEvEESaISE_EEZNSE_6createISG_JEEEPT_DpOT0_EUlPSG_E_ED2Ev @1234
    _ZNSt10unique_ptrISt6vectorIN8nlohmann16json_abi_v3_11_310basic_jsonISt3mapS0_NSt7__cxx1112basic_stringIcSt11char_traitsIcESaIcEEEbxydSaNS2_14adl_serializerES0_IhSaIhEEvEESaISE_EEZNSE_6createISG_JPKNS2_6detail8json_refISE_EESM_EEEPT_DpOT0_EUlPSG_E_E11get_deleterEv @1235
    _ZNSt10unique_ptrISt6vectorIN8nlohmann16json_abi_v3_11_310basic_jsonISt3mapS0_NSt7__cxx1112basic_stringIcSt11char_traitsIcESaIcEEEbxydSaNS2_14adl_serializerES0_IhSaIhEEvEESaISE_EEZNSE_6createISG_JPKNS2_6detail8json_refISE_EESM_EEEPT_DpOT0_EUlPSG_E_E7releaseEv @1236
    _ZNSt10unique_ptrISt6vectorIN8nlohmann16json_abi_v3_11_310basic_jsonISt3mapS0_NSt7__cxx1112basic_stringIcSt11char_traitsIcESaIcEEEbxydSaNS2_14adl_serializerES0_IhSaIhEEvEESaISE_EEZNSE_6createISG_JPKNS2_6detail8json_refISE_EESM_EEEPT_DpOT0_EUlPSG_E_EC2IST_vEESS_RKST_ @1237
    _ZNSt10unique_ptrISt6vectorIN8nlohmann16json_abi_v3_11_310basic_jsonISt3mapS0_NSt7__cxx1112basic_stringIcSt11char_traitsIcESaIcEEEbxydSaNS2_14adl_serializerES0_IhSaIhEEvEESaISE_EEZNSE_6createISG_JPKNS2_6detail8json_refISE_EESM_EEEPT_DpOT0_EUlPSG_E_ED2Ev @1238
    _ZNSt10unique_ptrISt6vectorIN8nlohmann16json_abi_v3_11_310basic_jsonISt3mapS0_NSt7__cxx1112basic_stringIcSt11char_traitsIcESaIcEEEbxydSaNS2_14adl_serializerES0_IhSaIhEEvEESaISE_EEZNSE_6createISG_JRKSG_EEEPT_DpOT0_EUlPSG_E_E11get_deleterEv @1239
    _ZNSt10unique_ptrISt6vectorIN8nlohmann16json_abi_v3_11_310basic_jsonISt3mapS0_NSt7__cxx1112basic_stringIcSt11char_traitsIcESaIcEEEbxydSaNS2_14adl_serializerES0_IhSaIhEEvEESaISE_EEZNSE_6createISG_JRKSG_EEEPT_DpOT0_EUlPSG_E_E7releaseEv @1240
    _ZNSt10unique_ptrISt6vectorIN8nlohmann16json_abi_v3_11_310basic_jsonISt3mapS0_NSt7__cxx1112basic_stringIcSt11char_traitsIcESaIcEEEbxydSaNS2_14adl_serializerES0_IhSaIhEEvEESaISE_EEZNSE_6createISG_JRKSG_EEEPT_DpOT0_EUlPSG_E_EC2ISQ_vEESP_RKSQ_ @1241
    _ZNSt10unique_ptrISt6vectorIN8nlohmann16json_abi_v3_11_310basic_jsonISt3mapS0_NSt7__cxx1112basic_stringIcSt11char_traitsIcESaIcEEEbxydSaNS2_14adl_serializerES0_IhSaIhEEvEESaISE_EEZNSE_6createISG_JRKSG_EEEPT_DpOT0_EUlPSG_E_ED2Ev @1242
    _ZNSt11_Tuple_implILy0EJOiEE7_M_headERS1_ @1243
    _ZNSt11_Tuple_implILy0EJOiEEC2EOS1_ @1244
    _ZNSt11_Tuple_implILy0EJOiEEC2IiEEOT_ @1245
    _ZNSt11_Tuple_implILy0EJPN8nlohmann16json_abi_v3_11_327byte_container_with_subtypeISt6vectorIhSaIhEEEEZNS1_10basic_jsonISt3mapS3_NSt7__cxx1112basic_stringIcSt11char_traitsIcESaIcEEEbxydSaNS1_14adl_serializerES5_vE6createIS6_JEEEPT_DpOT0_EUlS7_E_EE7_M_headERKSP_ @1246
    _ZNSt11_Tuple_implILy0EJPN8nlohmann16json_abi_v3_11_327byte_container_with_subtypeISt6vectorIhSaIhEEEEZNS1_10basic_jsonISt3mapS3_NSt7__cxx1112basic_stringIcSt11char_traitsIcESaIcEEEbxydSaNS1_14adl_serializerES5_vE6createIS6_JEEEPT_DpOT0_EUlS7_E_EE7_M_headERSP_ @1247
    _ZNSt11_Tuple_implILy0EJPN8nlohmann16json_abi_v3_11_327byte_container_with_subtypeISt6vectorIhSaIhEEEEZNS1_10basic_jsonISt3mapS3_NSt7__cxx1112basic_stringIcSt11char_traitsIcESaIcEEEbxydSaNS1_14adl_serializerES5_vE6createIS6_JEEEPT_DpOT0_EUlS7_E_EEC2IRS7_JRKSO_EvEEOSJ_SN_ @1248
    _ZNSt11_Tuple_implILy0EJPN8nlohmann16json_abi_v3_11_327byte_container_with_subtypeISt6vectorIhSaIhEEEEZNS1_10basic_jsonISt3mapS3_NSt7__cxx1112basic_stringIcSt11char_traitsIcESaIcEEEbxydSaNS1_14adl_serializerES5_vE6createIS6_JRKS6_EEEPT_DpOT0_EUlS7_E_EE7_M_headERKSR_ @1249
    _ZNSt11_Tuple_implILy0EJPN8nlohmann16json_abi_v3_11_327byte_container_with_subtypeISt6vectorIhSaIhEEEEZNS1_10basic_jsonISt3mapS3_NSt7__cxx1112basic_stringIcSt11char_traitsIcESaIcEEEbxydSaNS1_14adl_serializerES5_vE6createIS6_JRKS6_EEEPT_DpOT0_EUlS7_E_EE7_M_headERSR_ @1250
    _ZNSt11_Tuple_implILy0EJPN8nlohmann16json_abi_v3_11_327byte_container_with_subtypeISt6vectorIhSaIhEEEEZNS1_10basic_jsonISt3mapS3_NSt7__cxx1112basic_stringIcSt11char_traitsIcESaIcEEEbxydSaNS1_14adl_serializerES5_vE6createIS6_JRKS6_EEEPT_DpOT0_EUlS7_E_EEC2IRS7_JRKSQ_EvEEOSL_SP_ @1251
    _ZNSt11_Tuple_implILy0EJPNSt7__cxx1112basic_stringIcSt11char_traitsIcESaIcEEEZN8nlohmann16json_abi_v3_11_310basic_jsonISt3mapSt6vectorS5_bxydSaNS8_14adl_serializerESB_IhSaIhEEvE6createIS5_JRA1_KcEEEPT_DpOT0_EUlS6_E_EE7_M_headERKSQ_ @1252
    _ZNSt11_Tuple_implILy0EJPNSt7__cxx1112basic_stringIcSt11char_traitsIcESaIcEEEZN8nlohmann16json_abi_v3_11_310basic_jsonISt3mapSt6vectorS5_bxydSaNS8_14adl_serializerESB_IhSaIhEEvE6createIS5_JRA1_KcEEEPT_DpOT0_EUlS6_E_EE7_M_headERSQ_ @1253
    _ZNSt11_Tuple_implILy0EJPNSt7__cxx1112basic_stringIcSt11char_traitsIcESaIcEEEZN8nlohmann16json_abi_v3_11_310basic_jsonISt3mapSt6vectorS5_bxydSaNS8_14adl_serializerESB_IhSaIhEEvE6createIS5_JRA1_KcEEEPT_DpOT0_EUlS6_E_EEC2IRS6_JRKSP_EvEEOSK_SO_ @1254
    _ZNSt11_Tuple_implILy0EJPNSt7__cxx1112basic_stringIcSt11char_traitsIcESaIcEEEZN8nlohmann16json_abi_v3_11_310basic_jsonISt3mapSt6vectorS5_bxydSaNS8_14adl_serializerESB_IhSaIhEEvE6createIS5_JRKS5_EEEPT_DpOT0_EUlS6_E_EE7_M_headERKSP_ @1255
    _ZNSt11_Tuple_implILy0EJPNSt7__cxx1112basic_stringIcSt11char_traitsIcESaIcEEEZN8nlohmann16json_abi_v3_11_310basic_jsonISt3mapSt6vectorS5_bxydSaNS8_14adl_serializerESB_IhSaIhEEvE6createIS5_JRKS5_EEEPT_DpOT0_EUlS6_E_EE7_M_headERSP_ @1256
    _ZNSt11_Tuple_implILy0EJPNSt7__cxx1112basic_stringIcSt11char_traitsIcESaIcEEEZN8nlohmann16json_abi_v3_11_310basic_jsonISt3mapSt6vectorS5_bxydSaNS8_14adl_serializerESB_IhSaIhEEvE6createIS5_JRKS5_EEEPT_DpOT0_EUlS6_E_EEC2IRS6_JRKSO_EvEEOSJ_SN_ @1257
    _ZNSt11_Tuple_implILy0EJPSt3mapINSt7__cxx1112basic_stringIcSt11char_traitsIcESaIcEEEN8nlohmann16json_abi_v3_11_310basic_jsonIS0_St6vectorS6_bxydSaNS8_14adl_serializerESA_IhSaIhEEvEESt4lessIvESaISt4pairIKS6_SE_EEEZNSE_6createISL_JEEEPT_DpOT0_EUlSM_E_EE7_M_headERKSU_ @1258
    _ZNSt11_Tuple_implILy0EJPSt3mapINSt7__cxx1112basic_stringIcSt11char_traitsIcESaIcEEEN8nlohmann16json_abi_v3_11_310basic_jsonIS0_St6vectorS6_bxydSaNS8_14adl_serializerESA_IhSaIhEEvEESt4lessIvESaISt4pairIKS6_SE_EEEZNSE_6createISL_JEEEPT_DpOT0_EUlSM_E_EE7_M_headERSU_ @1259
    _ZNSt11_Tuple_implILy0EJPSt3mapINSt7__cxx1112basic_stringIcSt11char_traitsIcESaIcEEEN8nlohmann16json_abi_v3_11_310basic_jsonIS0_St6vectorS6_bxydSaNS8_14adl_serializerESA_IhSaIhEEvEESt4lessIvESaISt4pairIKS6_SE_EEEZNSE_6createISL_JEEEPT_DpOT0_EUlSM_E_EEC2IRSM_JRKST_EvEEOSO_SS_ @1260
    _ZNSt11_Tuple_implILy0EJPSt3mapINSt7__cxx1112basic_stringIcSt11char_traitsIcESaIcEEEN8nlohmann16json_abi_v3_11_310basic_jsonIS0_St6vectorS6_bxydSaNS8_14adl_serializerESA_IhSaIhEEvEESt4lessIvESaISt4pairIKS6_SE_EEEZNSE_6createISL_JRKSL_EEEPT_DpOT0_EUlSM_E_EE7_M_headERKSW_ @1261
    _ZNSt11_Tuple_implILy0EJPSt3mapINSt7__cxx1112basic_stringIcSt11char_traitsIcESaIcEEEN8nlohmann16json_abi_v3_11_310basic_jsonIS0_St6vectorS6_bxydSaNS8_14adl_serializerESA_IhSaIhEEvEESt4lessIvESaISt4pairIKS6_SE_EEEZNSE_6createISL_JRKSL_EEEPT_DpOT0_EUlSM_E_EE7_M_headERSW_ @1262
    _ZNSt11_Tuple_implILy0EJPSt3mapINSt7__cxx1112basic_stringIcSt11char_traitsIcESaIcEEEN8nlohmann16json_abi_v3_11_310basic_jsonIS0_St6vectorS6_bxydSaNS8_14adl_serializerESA_IhSaIhEEvEESt4lessIvESaISt4pairIKS6_SE_EEEZNSE_6createISL_JRKSL_EEEPT_DpOT0_EUlSM_E_EEC2IRSM_JRKSV_EvEEOSQ_SU_ @1263
    _ZNSt11_Tuple_implILy0EJPSt6vectorIN8nlohmann16json_abi_v3_11_310basic_jsonISt3mapS0_NSt7__cxx1112basic_stringIcSt11char_traitsIcESaIcEEEbxydSaNS2_14adl_serializerES0_IhSaIhEEvEESaISE_EEZNSE_6createISG_JEEEPT_DpOT0_EUlSH_E_EE7_M_headERKSP_ @1264
    _ZNSt11_Tuple_implILy0EJPSt6vectorIN8nlohmann16json_abi_v3_11_310basic_jsonISt3mapS0_NSt7__cxx1112basic_stringIcSt11char_traitsIcESaIcEEEbxydSaNS2_14adl_serializerES0_IhSaIhEEvEESaISE_EEZNSE_6createISG_JEEEPT_DpOT0_EUlSH_E_EE7_M_headERSP_ @1265
    _ZNSt11_Tuple_implILy0EJPSt6vectorIN8nlohmann16json_abi_v3_11_310basic_jsonISt3mapS0_NSt7__cxx1112basic_stringIcSt11char_traitsIcESaIcEEEbxydSaNS2_14adl_serializerES0_IhSaIhEEvEESaISE_EEZNSE_6createISG_JEEEPT_DpOT0_EUlSH_E_EEC2IRSH_JRKSO_EvEEOSJ_SN_ @1266
    _ZNSt11_Tuple_implILy0EJPSt6vectorIN8nlohmann16json_abi_v3_11_310basic_jsonISt3mapS0_NSt7__cxx1112basic_stringIcSt11char_traitsIcESaIcEEEbxydSaNS2_14adl_serializerES0_IhSaIhEEvEESaISE_EEZNSE_6createISG_JPKNS2_6detail8json_refISE_EESN_EEEPT_DpOT0_EUlSH_E_EE7_M_headERKSU_ @1267
    _ZNSt11_Tuple_implILy0EJPSt6vectorIN8nlohmann16json_abi_v3_11_310basic_jsonISt3mapS0_NSt7__cxx1112basic_stringIcSt11char_traitsIcESaIcEEEbxydSaNS2_14adl_serializerES0_IhSaIhEEvEESaISE_EEZNSE_6createISG_JPKNS2_6detail8json_refISE_EESN_EEEPT_DpOT0_EUlSH_E_EE7_M_headERSU_ @1268
    _ZNSt11_Tuple_implILy0EJPSt6vectorIN8nlohmann16json_abi_v3_11_310basic_jsonISt3mapS0_NSt7__cxx1112basic_stringIcSt11char_traitsIcESaIcEEEbxydSaNS2_14adl_serializerES0_IhSaIhEEvEESaISE_EEZNSE_6createISG_JPKNS2_6detail8json_refISE_EESN_EEEPT_DpOT0_EUlSH_E_EEC2IRSH_JRKST_EvEEOSO_SS_ @1269
    _ZNSt11_Tuple_implILy0EJPSt6vectorIN8nlohmann16json_abi_v3_11_310basic_jsonISt3mapS0_NSt7__cxx1112basic_stringIcSt11char_traitsIcESaIcEEEbxydSaNS2_14adl_serializerES0_IhSaIhEEvEESaISE_EEZNSE_6createISG_JRKSG_EEEPT_DpOT0_EUlSH_E_EE7_M_headERKSR_ @1270
    _ZNSt11_Tuple_implILy0EJPSt6vectorIN8nlohmann16json_abi_v3_11_310basic_jsonISt3mapS0_NSt7__cxx1112basic_stringIcSt11char_traitsIcESaIcEEEbxydSaNS2_14adl_serializerES0_IhSaIhEEvEESaISE_EEZNSE_6createISG_JRKSG_EEEPT_DpOT0_EUlSH_E_EE7_M_headERSR_ @1271
    _ZNSt11_Tuple_implILy0EJPSt6vectorIN8nlohmann16json_abi_v3_11_310basic_jsonISt3mapS0_NSt7__cxx1112basic_stringIcSt11char_traitsIcESaIcEEEbxydSaNS2_14adl_serializerES0_IhSaIhEEvEESaISE_EEZNSE_6createISG_JRKSG_EEEPT_DpOT0_EUlSH_E_EEC2IRSH_JRKSQ_EvEEOSL_SP_ @1272
    _ZNSt11_Tuple_implILy0EJRKPN10FiCo4OMNeT12CanDataFrameEEE7_M_headERS5_ @1273
    _ZNSt11_Tuple_implILy0EJRKPN10FiCo4OMNeT12CanDataFrameEEEC2EOS5_ @1274
    _ZNSt11_Tuple_implILy0EJRKPN10FiCo4OMNeT12CanDataFrameEEEC2ES4_ @1275
    _ZNSt11_Tuple_implILy1EJZN8nlohmann16json_abi_v3_11_310basic_jsonISt3mapSt6vectorNSt7__cxx1112basic_stringIcSt11char_traitsIcESaIcEEEbxydSaNS1_14adl_serializerES4_IhSaIhEEvE6createINS1_27byte_container_with_subtypeISD_EEJEEEPT_DpOT0_EUlPSH_E_EE7_M_headERSP_ @1276
    _ZNSt11_Tuple_implILy1EJZN8nlohmann16json_abi_v3_11_310basic_jsonISt3mapSt6vectorNSt7__cxx1112basic_stringIcSt11char_traitsIcESaIcEEEbxydSaNS1_14adl_serializerES4_IhSaIhEEvE6createINS1_27byte_container_with_subtypeISD_EEJEEEPT_DpOT0_EUlPSH_E_EEC2ERKSO_ @1277
    _ZNSt11_Tuple_implILy1EJZN8nlohmann16json_abi_v3_11_310basic_jsonISt3mapSt6vectorNSt7__cxx1112basic_stringIcSt11char_traitsIcESaIcEEEbxydSaNS1_14adl_serializerES4_IhSaIhEEvE6createINS1_27byte_container_with_subtypeISD_EEJRKSH_EEEPT_DpOT0_EUlPSH_E_EE7_M_headERSR_ @1278
    _ZNSt11_Tuple_implILy1EJZN8nlohmann16json_abi_v3_11_310basic_jsonISt3mapSt6vectorNSt7__cxx1112basic_stringIcSt11char_traitsIcESaIcEEEbxydSaNS1_14adl_serializerES4_IhSaIhEEvE6createINS1_27byte_container_with_subtypeISD_EEJRKSH_EEEPT_DpOT0_EUlPSH_E_EEC2ERKSQ_ @1279
    _ZNSt11_Tuple_implILy1EJZN8nlohmann16json_abi_v3_11_310basic_jsonISt3mapSt6vectorNSt7__cxx1112basic_stringIcSt11char_traitsIcESaIcEEEbxydSaNS1_14adl_serializerES4_IhSaIhEEvE6createIS3_ISA_SE_St4lessIvESaISt4pairIKSA_SE_EEEJEEEPT_DpOT0_EUlPSM_E_EE7_M_headERSU_ @1280
    _ZNSt11_Tuple_implILy1EJZN8nlohmann16json_abi_v3_11_310basic_jsonISt3mapSt6vectorNSt7__cxx1112basic_stringIcSt11char_traitsIcESaIcEEEbxydSaNS1_14adl_serializerES4_IhSaIhEEvE6createIS3_ISA_SE_St4lessIvESaISt4pairIKSA_SE_EEEJEEEPT_DpOT0_EUlPSM_E_EEC2ERKST_ @1281
    _ZNSt11_Tuple_implILy1EJZN8nlohmann16json_abi_v3_11_310basic_jsonISt3mapSt6vectorNSt7__cxx1112basic_stringIcSt11char_traitsIcESaIcEEEbxydSaNS1_14adl_serializerES4_IhSaIhEEvE6createIS3_ISA_SE_St4lessIvESaISt4pairIKSA_SE_EEEJRKSM_EEEPT_DpOT0_EUlPSM_E_EE7_M_headERSW_ @1282
    _ZNSt11_Tuple_implILy1EJZN8nlohmann16json_abi_v3_11_310basic_jsonISt3mapSt6vectorNSt7__cxx1112basic_stringIcSt11char_traitsIcESaIcEEEbxydSaNS1_14adl_serializerES4_IhSaIhEEvE6createIS3_ISA_SE_St4lessIvESaISt4pairIKSA_SE_EEEJRKSM_EEEPT_DpOT0_EUlPSM_E_EEC2ERKSV_ @1283
    _ZNSt11_Tuple_implILy1EJZN8nlohmann16json_abi_v3_11_310basic_jsonISt3mapSt6vectorNSt7__cxx1112basic_stringIcSt11char_traitsIcESaIcEEEbxydSaNS1_14adl_serializerES4_IhSaIhEEvE6createIS4_ISE_SaISE_EEJEEEPT_DpOT0_EUlPSH_E_EE7_M_headERSP_ @1284
    _ZNSt11_Tuple_implILy1EJZN8nlohmann16json_abi_v3_11_310basic_jsonISt3mapSt6vectorNSt7__cxx1112basic_stringIcSt11char_traitsIcESaIcEEEbxydSaNS1_14adl_serializerES4_IhSaIhEEvE6createIS4_ISE_SaISE_EEJEEEPT_DpOT0_EUlPSH_E_EEC2ERKSO_ @1285
    _ZNSt11_Tuple_implILy1EJZN8nlohmann16json_abi_v3_11_310basic_jsonISt3mapSt6vectorNSt7__cxx1112basic_stringIcSt11char_traitsIcESaIcEEEbxydSaNS1_14adl_serializerES4_IhSaIhEEvE6createIS4_ISE_SaISE_EEJPKNS1_6detail8json_refISE_EESM_EEEPT_DpOT0_EUlPSH_E_EE7_M_headERSU_ @1286
    _ZNSt11_Tuple_implILy1EJZN8nlohmann16json_abi_v3_11_310basic_jsonISt3mapSt6vectorNSt7__cxx1112basic_stringIcSt11char_traitsIcESaIcEEEbxydSaNS1_14adl_serializerES4_IhSaIhEEvE6createIS4_ISE_SaISE_EEJPKNS1_6detail8json_refISE_EESM_EEEPT_DpOT0_EUlPSH_E_EEC2ERKST_ @1287
    _ZNSt11_Tuple_implILy1EJZN8nlohmann16json_abi_v3_11_310basic_jsonISt3mapSt6vectorNSt7__cxx1112basic_stringIcSt11char_traitsIcESaIcEEEbxydSaNS1_14adl_serializerES4_IhSaIhEEvE6createIS4_ISE_SaISE_EEJRKSH_EEEPT_DpOT0_EUlPSH_E_EE7_M_headERSR_ @1288
    _ZNSt11_Tuple_implILy1EJZN8nlohmann16json_abi_v3_11_310basic_jsonISt3mapSt6vectorNSt7__cxx1112basic_stringIcSt11char_traitsIcESaIcEEEbxydSaNS1_14adl_serializerES4_IhSaIhEEvE6createIS4_ISE_SaISE_EEJRKSH_EEEPT_DpOT0_EUlPSH_E_EEC2ERKSQ_ @1289
    _ZNSt11_Tuple_implILy1EJZN8nlohmann16json_abi_v3_11_310basic_jsonISt3mapSt6vectorNSt7__cxx1112basic_stringIcSt11char_traitsIcESaIcEEEbxydSaNS1_14adl_serializerES4_IhSaIhEEvE6createISA_JRA1_KcEEEPT_DpOT0_EUlPSA_E_EE7_M_headERSQ_ @1290
    _ZNSt11_Tuple_implILy1EJZN8nlohmann16json_abi_v3_11_310basic_jsonISt3mapSt6vectorNSt7__cxx1112basic_stringIcSt11char_traitsIcESaIcEEEbxydSaNS1_14adl_serializerES4_IhSaIhEEvE6createISA_JRA1_KcEEEPT_DpOT0_EUlPSA_E_EEC2ERKSP_ @1291
    _ZNSt11_Tuple_implILy1EJZN8nlohmann16json_abi_v3_11_310basic_jsonISt3mapSt6vectorNSt7__cxx1112basic_stringIcSt11char_traitsIcESaIcEEEbxydSaNS1_14adl_serializerES4_IhSaIhEEvE6createISA_JRKSA_EEEPT_DpOT0_EUlPSA_E_EE7_M_headERSP_ @1292
    _ZNSt11_Tuple_implILy1EJZN8nlohmann16json_abi_v3_11_310basic_jsonISt3mapSt6vectorNSt7__cxx1112basic_stringIcSt11char_traitsIcESaIcEEEbxydSaNS1_14adl_serializerES4_IhSaIhEEvE6createISA_JRKSA_EEEPT_DpOT0_EUlPSA_E_EEC2ERKSO_ @1293
    _ZNSt11__copy_moveILb0ELb1ESt26random_access_iterator_tagE8__copy_mIhEEPT_PKS3_S6_S4_ @1294
    _ZNSt11__copy_moveILb1ELb0ESt26random_access_iterator_tagE8__copy_mIPN7CAN4CQF22CircularRotationBuffer9canfdInfoES6_EET0_T_S8_S7_ @1295
    _ZNSt11__copy_moveILb1ELb0ESt26random_access_iterator_tagE8__copy_mIPN8nlohmann16json_abi_v3_11_310basic_jsonISt3mapSt6vectorNSt7__cxx1112basic_stringIcSt11char_traitsIcESaIcEEEbxydSaNS4_14adl_serializerES7_IhSaIhEEvEESt20back_insert_iteratorIS7_ISH_SaISH_EEEEET0_T_SO_SN_ @1296
    _ZNSt11char_traitsIcE12to_char_typeERKi @1297
    _ZNSt12_Destroy_auxILb0EE9__destroyIPN8nlohmann16json_abi_v3_11_310basic_jsonISt3mapSt6vectorNSt7__cxx1112basic_stringIcSt11char_traitsIcESaIcEEEbxydSaNS3_14adl_serializerES6_IhSaIhEEvEEEEvT_SI_ @1298
    _ZNSt12_Destroy_auxILb1EE9__destroyIPN7CAN4CQF22CircularRotationBuffer9canfdInfoEEEvT_S6_ @1299
    _ZNSt12_Destroy_auxILb1EE9__destroyIPN7CAN4CQF24RAEGatewayTransformation10order_infoEEEvT_S6_ @1300
    _ZNSt12_Destroy_auxILb1EE9__destroyIPSt4pairIPN10FiCo4OMNeT12CanDataFrameEdEEEvT_S8_ @1301
    _ZNSt12_Destroy_auxILb1EE9__destroyIPhEEvT_S3_ @1302
    _ZNSt12_Vector_baseIN7CAN4CQF22CircularRotationBuffer9canfdInfoESaIS2_EE11_M_allocateEy @1303
    _ZNSt12_Vector_baseIN7CAN4CQF22CircularRotationBuffer9canfdInfoESaIS2_EE12_Vector_implC2Ev @1304
    _ZNSt12_Vector_baseIN7CAN4CQF22CircularRotationBuffer9canfdInfoESaIS2_EE12_Vector_implD2Ev @1305
    _ZNSt12_Vector_baseIN7CAN4CQF22CircularRotationBuffer9canfdInfoESaIS2_EE13_M_deallocateEPS2_y @1306
    _ZNSt12_Vector_baseIN7CAN4CQF22CircularRotationBuffer9canfdInfoESaIS2_EE17_Vector_impl_dataC2Ev @1307
    _ZNSt12_Vector_baseIN7CAN4CQF22CircularRotationBuffer9canfdInfoESaIS2_EE19_M_get_Tp_allocatorEv @1308
    _ZNSt12_Vector_baseIN7CAN4CQF22CircularRotationBuffer9canfdInfoESaIS2_EEC2Ev @1309
    _ZNSt12_Vector_baseIN7CAN4CQF22CircularRotationBuffer9canfdInfoESaIS2_EED2Ev @1310
    _ZNSt12_Vector_baseIN7CAN4CQF24RAEGatewayTransformation10order_infoESaIS2_EE11_M_allocateEy @1311
    _ZNSt12_Vector_baseIN7CAN4CQF24RAEGatewayTransformation10order_infoESaIS2_EE12_Vector_implC2Ev @1312
    _ZNSt12_Vector_baseIN7CAN4CQF24RAEGatewayTransformation10order_infoESaIS2_EE12_Vector_implD2Ev @1313
    _ZNSt12_Vector_baseIN7CAN4CQF24RAEGatewayTransformation10order_infoESaIS2_EE13_M_deallocateEPS2_y @1314
    _ZNSt12_Vector_baseIN7CAN4CQF24RAEGatewayTransformation10order_infoESaIS2_EE17_Vector_impl_dataC2Ev @1315
    _ZNSt12_Vector_baseIN7CAN4CQF24RAEGatewayTransformation10order_infoESaIS2_EE19_M_get_Tp_allocatorEv @1316
    _ZNSt12_Vector_baseIN7CAN4CQF24RAEGatewayTransformation10order_infoESaIS2_EEC2Ev @1317
    _ZNSt12_Vector_baseIN7CAN4CQF24RAEGatewayTransformation10order_infoESaIS2_EED2Ev @1318
    _ZNSt12_Vector_baseIN8nlohmann16json_abi_v3_11_310basic_jsonISt3mapSt6vectorNSt7__cxx1112basic_stringIcSt11char_traitsIcESaIcEEEbxydSaNS1_14adl_serializerES4_IhSaIhEEvEESaISE_EE11_M_allocateEy @1319
    _ZNSt12_Vector_baseIN8nlohmann16json_abi_v3_11_310basic_jsonISt3mapSt6vectorNSt7__cxx1112basic_stringIcSt11char_traitsIcESaIcEEEbxydSaNS1_14adl_serializerES4_IhSaIhEEvEESaISE_EE12_Vector_implC2ERKSF_ @1320
    _ZNSt12_Vector_baseIN8nlohmann16json_abi_v3_11_310basic_jsonISt3mapSt6vectorNSt7__cxx1112basic_stringIcSt11char_traitsIcESaIcEEEbxydSaNS1_14adl_serializerES4_IhSaIhEEvEESaISE_EE12_Vector_implC2Ev @1321
    _ZNSt12_Vector_baseIN8nlohmann16json_abi_v3_11_310basic_jsonISt3mapSt6vectorNSt7__cxx1112basic_stringIcSt11char_traitsIcESaIcEEEbxydSaNS1_14adl_serializerES4_IhSaIhEEvEESaISE_EE12_Vector_implD2Ev @1322
    _ZNSt12_Vector_baseIN8nlohmann16json_abi_v3_11_310basic_jsonISt3mapSt6vectorNSt7__cxx1112basic_stringIcSt11char_traitsIcESaIcEEEbxydSaNS1_14adl_serializerES4_IhSaIhEEvEESaISE_EE13_M_deallocateEPSE_y @1323
    _ZNSt12_Vector_baseIN8nlohmann16json_abi_v3_11_310basic_jsonISt3mapSt6vectorNSt7__cxx1112basic_stringIcSt11char_traitsIcESaIcEEEbxydSaNS1_14adl_serializerES4_IhSaIhEEvEESaISE_EE17_M_create_storageEy @1324
    _ZNSt12_Vector_baseIN8nlohmann16json_abi_v3_11_310basic_jsonISt3mapSt6vectorNSt7__cxx1112basic_stringIcSt11char_traitsIcESaIcEEEbxydSaNS1_14adl_serializerES4_IhSaIhEEvEESaISE_EE17_Vector_impl_dataC2Ev @1325
    _ZNSt12_Vector_baseIN8nlohmann16json_abi_v3_11_310basic_jsonISt3mapSt6vectorNSt7__cxx1112basic_stringIcSt11char_traitsIcESaIcEEEbxydSaNS1_14adl_serializerES4_IhSaIhEEvEESaISE_EE19_M_get_Tp_allocatorEv @1326
    _ZNSt12_Vector_baseIN8nlohmann16json_abi_v3_11_310basic_jsonISt3mapSt6vectorNSt7__cxx1112basic_stringIcSt11char_traitsIcESaIcEEEbxydSaNS1_14adl_serializerES4_IhSaIhEEvEESaISE_EEC2ERKSF_ @1327
    _ZNSt12_Vector_baseIN8nlohmann16json_abi_v3_11_310basic_jsonISt3mapSt6vectorNSt7__cxx1112basic_stringIcSt11char_traitsIcESaIcEEEbxydSaNS1_14adl_serializerES4_IhSaIhEEvEESaISE_EEC2Ev @1328
    _ZNSt12_Vector_baseIN8nlohmann16json_abi_v3_11_310basic_jsonISt3mapSt6vectorNSt7__cxx1112basic_stringIcSt11char_traitsIcESaIcEEEbxydSaNS1_14adl_serializerES4_IhSaIhEEvEESaISE_EEC2EyRKSF_ @1329
    _ZNSt12_Vector_baseIN8nlohmann16json_abi_v3_11_310basic_jsonISt3mapSt6vectorNSt7__cxx1112basic_stringIcSt11char_traitsIcESaIcEEEbxydSaNS1_14adl_serializerES4_IhSaIhEEvEESaISE_EED2Ev @1330
    _ZNSt12_Vector_baseISt4pairIPN10FiCo4OMNeT12CanDataFrameEdESaIS4_EE11_M_allocateEy @1331
    _ZNSt12_Vector_baseISt4pairIPN10FiCo4OMNeT12CanDataFrameEdESaIS4_EE12_Vector_implC2Ev @1332
    _ZNSt12_Vector_baseISt4pairIPN10FiCo4OMNeT12CanDataFrameEdESaIS4_EE12_Vector_implD2Ev @1333
    _ZNSt12_Vector_baseISt4pairIPN10FiCo4OMNeT12CanDataFrameEdESaIS4_EE13_M_deallocateEPS4_y @1334
    _ZNSt12_Vector_baseISt4pairIPN10FiCo4OMNeT12CanDataFrameEdESaIS4_EE17_Vector_impl_dataC2Ev @1335
    _ZNSt12_Vector_baseISt4pairIPN10FiCo4OMNeT12CanDataFrameEdESaIS4_EE19_M_get_Tp_allocatorEv @1336
    _ZNSt12_Vector_baseISt4pairIPN10FiCo4OMNeT12CanDataFrameEdESaIS4_EEC2Ev @1337
    _ZNSt12_Vector_baseISt4pairIPN10FiCo4OMNeT12CanDataFrameEdESaIS4_EED2Ev @1338
    _ZNSt12_Vector_baseIhSaIhEE11_M_allocateEy @1339
    _ZNSt12_Vector_baseIhSaIhEE12_Vector_implC2ERKS0_ @1340
    _ZNSt12_Vector_baseIhSaIhEE12_Vector_implC2Ev @1341
    _ZNSt12_Vector_baseIhSaIhEE12_Vector_implD2Ev @1342
    _ZNSt12_Vector_baseIhSaIhEE13_M_deallocateEPhy @1343
    _ZNSt12_Vector_baseIhSaIhEE17_M_create_storageEy @1344
    _ZNSt12_Vector_baseIhSaIhEE17_Vector_impl_dataC2Ev @1345
    _ZNSt12_Vector_baseIhSaIhEE19_M_get_Tp_allocatorEv @1346
    _ZNSt12_Vector_baseIhSaIhEEC2Ev @1347
    _ZNSt12_Vector_baseIhSaIhEEC2EyRKS0_ @1348
    _ZNSt12_Vector_baseIhSaIhEED2Ev @1349
    _ZNSt12__shared_ptrIN8nlohmann16json_abi_v3_11_36detail21output_string_adapterIcNSt7__cxx1112basic_stringIcSt11char_traitsIcESaIcEEEEELN9__gnu_cxx12_Lock_policyE2EE31_M_enable_shared_from_this_withISA_SA_EENSt9enable_ifIXntsr15__has_esft_baseIT0_EE5valueEvE4typeEPT_ @1350
    _ZNSt12__shared_ptrIN8nlohmann16json_abi_v3_11_36detail21output_string_adapterIcNSt7__cxx1112basic_stringIcSt11char_traitsIcESaIcEEEEELN9__gnu_cxx12_Lock_policyE2EEC2ISaIvEJRS9_EEESt20_Sp_alloc_shared_tagIT_EDpOT0_ @1351
    _ZNSt12__shared_ptrIN8nlohmann16json_abi_v3_11_36detail21output_string_adapterIcNSt7__cxx1112basic_stringIcSt11char_traitsIcESaIcEEEEELN9__gnu_cxx12_Lock_policyE2EED2Ev @1352
    _ZNSt12__shared_ptrIN8nlohmann16json_abi_v3_11_36detail23output_adapter_protocolIcEELN9__gnu_cxx12_Lock_policyE2EEC2EOS7_ @1353
    _ZNSt12__shared_ptrIN8nlohmann16json_abi_v3_11_36detail23output_adapter_protocolIcEELN9__gnu_cxx12_Lock_policyE2EEC2ERKS7_ @1354
    _ZNSt12__shared_ptrIN8nlohmann16json_abi_v3_11_36detail23output_adapter_protocolIcEELN9__gnu_cxx12_Lock_policyE2EEC2INS2_21output_string_adapterIcNSt7__cxx1112basic_stringIcSt11char_traitsIcESaIcEEEEEvEEOS_IT_LS6_2EE @1355
    _ZNSt12__shared_ptrIN8nlohmann16json_abi_v3_11_36detail23output_adapter_protocolIcEELN9__gnu_cxx12_Lock_policyE2EED2Ev @1356
    _ZNSt13_Rb_tree_nodeISt4pairIKNSt7__cxx1112basic_stringIcSt11char_traitsIcESaIcEEEN8nlohmann16json_abi_v3_11_310basic_jsonISt3mapSt6vectorS6_bxydSaNS9_14adl_serializerESC_IhSaIhEEvEEEE9_M_valptrEv @1357
    _ZNSt13_Rb_tree_nodeISt4pairIKPN10FiCo4OMNeT12CanDataFrameEN7omnetpp7SimTimeEEE9_M_valptrEv @1358
    _ZNSt13_Rb_tree_nodeISt4pairIKPN10FiCo4OMNeT12CanDataFrameEdEE9_M_valptrEv @1359
    _ZNSt13_Rb_tree_nodeISt4pairIKiN7CAN4CQF22CircularRotationBuffer14wcrt_data_infoEEE9_M_valptrEv @1360
    _ZNSt13_Rb_tree_nodeISt4pairIKiPNSt7__cxx114listIPN7omnetpp8cMessageESaIS6_EEEEE9_M_valptrEv @1361
    _ZNSt13_Rb_tree_nodeISt4pairIKjNSt7__cxx114listIN7CAN4CQF21GatewayTransformation5QInfoESaIS6_EEEEE9_M_valptrEv @1362
    _ZNSt13_Rb_tree_nodeISt4pairIKjNSt7__cxx114listIN7CAN4CQF24EDFGatewayTransformation5QInfoESaIS6_EEEEE9_M_valptrEv @1363
    _ZNSt13_Rb_tree_nodeISt4pairIKjNSt7__cxx114listIN7CAN4CQF24RAEGatewayTransformation5QInfoESaIS6_EEEEE9_M_valptrEv @1364
    _ZNSt13_Rb_tree_nodeISt4pairIKjNSt7__cxx114listIN7CAN4CQF24VarGatewayTransformation5QInfoESaIS6_EEEEE9_M_valptrEv @1365
    _ZNSt13_Rb_tree_nodeISt4pairIKjNSt7__cxx114listIN7CAN4CQF28TimeoutGatewayTransformation5QInfoESaIS6_EEEEE9_M_valptrEv @1366
    _ZNSt13unordered_mapItNSt7__cxx114listIPN9CoRE4INET6BufferESaIS4_EEESt4hashItESt8equal_toItESaISt4pairIKtS6_EEE3endEv @1367
    _ZNSt13unordered_mapItNSt7__cxx114listIPN9CoRE4INET6BufferESaIS4_EEESt4hashItESt8equal_toItESaISt4pairIKtS6_EEE5beginEv @1368
    _ZNSt13unordered_mapItNSt7__cxx114listIPN9CoRE4INET6BufferESaIS4_EEESt4hashItESt8equal_toItESaISt4pairIKtS6_EEE5clearEv @1369
    _ZNSt13unordered_mapItNSt7__cxx114listIPN9CoRE4INET6BufferESaIS4_EEESt4hashItESt8equal_toItESaISt4pairIKtS6_EEEC2Ev @1370
    _ZNSt13unordered_mapItNSt7__cxx114listIPN9CoRE4INET6BufferESaIS4_EEESt4hashItESt8equal_toItESaISt4pairIKtS6_EEED2Ev @1371
    _ZNSt13unordered_mapItNSt7__cxx114listIPN9CoRE4INET6BufferESaIS4_EEESt4hashItESt8equal_toItESaISt4pairIKtS6_EEEixEOt @1372
    _ZNSt14_List_iteratorIN7CAN4CQF21GatewayTransformation5QInfoEEC2EPNSt8__detail15_List_node_baseE @1373
    _ZNSt14_List_iteratorIN7CAN4CQF21GatewayTransformation5QInfoEEppEv @1374
    _ZNSt14_List_iteratorIN7CAN4CQF24EDFGatewayTransformation5QInfoEEC2EPNSt8__detail15_List_node_baseE @1375
    _ZNSt14_List_iteratorIN7CAN4CQF24EDFGatewayTransformation5QInfoEEppEv @1376
    _ZNSt14_List_iteratorIN7CAN4CQF24RAEGatewayTransformation5QInfoEEC2EPNSt8__detail15_List_node_baseE @1377
    _ZNSt14_List_iteratorIN7CAN4CQF24RAEGatewayTransformation5QInfoEEppEv @1378
    _ZNSt14_List_iteratorIN7CAN4CQF24VarGatewayTransformation5QInfoEEC2EPNSt8__detail15_List_node_baseE @1379
    _ZNSt14_List_iteratorIN7CAN4CQF24VarGatewayTransformation5QInfoEEppEv @1380
    _ZNSt14_List_iteratorIN7CAN4CQF28TimeoutGatewayTransformation5QInfoEEC2EPNSt8__detail15_List_node_baseE @1381
    _ZNSt14_List_iteratorIN7CAN4CQF28TimeoutGatewayTransformation5QInfoEEppEv @1382
    _ZNSt14_List_iteratorIPN9CoRE4INET6BufferEEC2EPNSt8__detail15_List_node_baseE @1383
    _ZNSt14_List_iteratorIPN9CoRE4INET6BufferEEC2Ev @1384
    _ZNSt14_List_iteratorIPN9CoRE4INET6BufferEEppEv @1385
    _ZNSt14_Sp_ebo_helperILi0ESaIvELb1EE6_S_getERS1_ @1386
    _ZNSt14_Sp_ebo_helperILi0ESaIvELb1EEC2ERKS0_ @1387
    _ZNSt14__array_traitsIN8nlohmann16json_abi_v3_11_36detail9dtoa_impl12cached_powerELy79EE6_S_refERA79_KS4_y @1388
    _ZNSt14__array_traitsISt5arrayIcLy2EELy100EE6_S_refERA100_KS1_y @1389
    _ZNSt14__array_traitsIcLy2EE6_S_refERA2_Kcy @1390
    _ZNSt14__array_traitsIcLy512EE6_S_ptrERA512_Kc @1391
    _ZNSt14__array_traitsIcLy512EE6_S_refERA512_Kcy @1392
    _ZNSt14__array_traitsIcLy64EE6_S_ptrERA64_Kc @1393
    _ZNSt14__array_traitsIhLy400EE6_S_refERA400_Khy @1394
    _ZNSt14__shared_countILN9__gnu_cxx12_Lock_policyE2EE7_M_swapERS2_ @1395
    _ZNSt14__shared_countILN9__gnu_cxx12_Lock_policyE2EEC2ERKS2_ @1396
    _ZNSt14__shared_countILN9__gnu_cxx12_Lock_policyE2EEC2Ev @1397
    _ZNSt14__shared_countILN9__gnu_cxx12_Lock_policyE2EEC2IN8nlohmann16json_abi_v3_11_36detail21output_string_adapterIcNSt7__cxx1112basic_stringIcSt11char_traitsIcESaIcEEEEESaIvEJRSD_EEERPT_St20_Sp_alloc_shared_tagIT0_EDpOT1_ @1398
    _ZNSt14__shared_countILN9__gnu_cxx12_Lock_policyE2EED2Ev @1399
    _ZNSt14numeric_limitsIxE3maxEv @1400
    _ZNSt14numeric_limitsIyE3maxEv @1401
    _ZNSt15_Rb_tree_header12_M_move_dataERS_ @1402
    _ZNSt15__allocated_ptrISaISt10_List_nodeIN7CAN4CQF21GatewayTransformation5QInfoEEEEC2ERS5_PS4_ @1403
    _ZNSt15__allocated_ptrISaISt10_List_nodeIN7CAN4CQF21GatewayTransformation5QInfoEEEED2Ev @1404
    _ZNSt15__allocated_ptrISaISt10_List_nodeIN7CAN4CQF21GatewayTransformation5QInfoEEEEaSEDn @1405
    _ZNSt15__allocated_ptrISaISt10_List_nodeIN7CAN4CQF24EDFGatewayTransformation5QInfoEEEEC2ERS5_PS4_ @1406
    _ZNSt15__allocated_ptrISaISt10_List_nodeIN7CAN4CQF24EDFGatewayTransformation5QInfoEEEED2Ev @1407
    _ZNSt15__allocated_ptrISaISt10_List_nodeIN7CAN4CQF24EDFGatewayTransformation5QInfoEEEEaSEDn @1408
    _ZNSt15__allocated_ptrISaISt10_List_nodeIN7CAN4CQF24RAEGatewayTransformation5QInfoEEEEC2ERS5_PS4_ @1409
    _ZNSt15__allocated_ptrISaISt10_List_nodeIN7CAN4CQF24RAEGatewayTransformation5QInfoEEEED2Ev @1410
    _ZNSt15__allocated_ptrISaISt10_List_nodeIN7CAN4CQF24RAEGatewayTransformation5QInfoEEEEaSEDn @1411
    _ZNSt15__allocated_ptrISaISt10_List_nodeIN7CAN4CQF24VarGatewayTransformation5QInfoEEEEC2ERS5_PS4_ @1412
    _ZNSt15__allocated_ptrISaISt10_List_nodeIN7CAN4CQF24VarGatewayTransformation5QInfoEEEED2Ev @1413
    _ZNSt15__allocated_ptrISaISt10_List_nodeIN7CAN4CQF24VarGatewayTransformation5QInfoEEEEaSEDn @1414
    _ZNSt15__allocated_ptrISaISt10_List_nodeIN7CAN4CQF28TimeoutGatewayTransformation5QInfoEEEEC2ERS5_PS4_ @1415
    _ZNSt15__allocated_ptrISaISt10_List_nodeIN7CAN4CQF28TimeoutGatewayTransformation5QInfoEEEED2Ev @1416
    _ZNSt15__allocated_ptrISaISt10_List_nodeIN7CAN4CQF28TimeoutGatewayTransformation5QInfoEEEEaSEDn @1417
    _ZNSt15__allocated_ptrISaISt10_List_nodeIPN9CoRE4INET6BufferEEEEC2ERS5_PS4_ @1418
    _ZNSt15__allocated_ptrISaISt10_List_nodeIPN9CoRE4INET6BufferEEEED2Ev @1419
    _ZNSt15__allocated_ptrISaISt10_List_nodeIPN9CoRE4INET6BufferEEEEaSEDn @1420
    _ZNSt15__allocated_ptrISaISt23_Sp_counted_ptr_inplaceIN8nlohmann16json_abi_v3_11_36detail21output_string_adapterIcNSt7__cxx1112basic_stringIcSt11char_traitsIcESaIcEEEEESaIvELN9__gnu_cxx12_Lock_policyE2EEEE3getEv @1421
    _ZNSt15__allocated_ptrISaISt23_Sp_counted_ptr_inplaceIN8nlohmann16json_abi_v3_11_36detail21output_string_adapterIcNSt7__cxx1112basic_stringIcSt11char_traitsIcESaIcEEEEESaIvELN9__gnu_cxx12_Lock_policyE2EEEEC2ERSG_PSF_ @1422
    _ZNSt15__allocated_ptrISaISt23_Sp_counted_ptr_inplaceIN8nlohmann16json_abi_v3_11_36detail21output_string_adapterIcNSt7__cxx1112basic_stringIcSt11char_traitsIcESaIcEEEEESaIvELN9__gnu_cxx12_Lock_policyE2EEEED2Ev @1423
    _ZNSt15__allocated_ptrISaISt23_Sp_counted_ptr_inplaceIN8nlohmann16json_abi_v3_11_36detail21output_string_adapterIcNSt7__cxx1112basic_stringIcSt11char_traitsIcESaIcEEEEESaIvELN9__gnu_cxx12_Lock_policyE2EEEEaSEDn @1424
    _ZNSt15__new_allocatorIN7CAN4CQF22CircularRotationBuffer9canfdInfoEE10deallocateEPS2_y @1425
    _ZNSt15__new_allocatorIN7CAN4CQF22CircularRotationBuffer9canfdInfoEE7destroyIS2_EEvPT_ @1426
    _ZNSt15__new_allocatorIN7CAN4CQF22CircularRotationBuffer9canfdInfoEE8allocateEyPKv @1427
    _ZNSt15__new_allocatorIN7CAN4CQF22CircularRotationBuffer9canfdInfoEE9constructIS2_JRKS2_EEEvPT_DpOT0_ @1428
    _ZNSt15__new_allocatorIN7CAN4CQF22CircularRotationBuffer9canfdInfoEEC2Ev @1429
    _ZNSt15__new_allocatorIN7CAN4CQF22CircularRotationBuffer9canfdInfoEED2Ev @1430
    _ZNSt15__new_allocatorIN7CAN4CQF24RAEGatewayTransformation10order_infoEE10deallocateEPS2_y @1431
    _ZNSt15__new_allocatorIN7CAN4CQF24RAEGatewayTransformation10order_infoEE7destroyIS2_EEvPT_ @1432
    _ZNSt15__new_allocatorIN7CAN4CQF24RAEGatewayTransformation10order_infoEE8allocateEyPKv @1433
    _ZNSt15__new_allocatorIN7CAN4CQF24RAEGatewayTransformation10order_infoEE9constructIS2_JRKS2_EEEvPT_DpOT0_ @1434
    _ZNSt15__new_allocatorIN7CAN4CQF24RAEGatewayTransformation10order_infoEEC2Ev @1435
    _ZNSt15__new_allocatorIN7CAN4CQF24RAEGatewayTransformation10order_infoEED2Ev @1436
    _ZNSt15__new_allocatorIN8nlohmann16json_abi_v3_11_310basic_jsonISt3mapSt6vectorNSt7__cxx1112basic_stringIcSt11char_traitsIcESaIcEEEbxydSaNS1_14adl_serializerES4_IhSaIhEEvEEE10deallocateEPSE_y @1437
    _ZNSt15__new_allocatorIN8nlohmann16json_abi_v3_11_310basic_jsonISt3mapSt6vectorNSt7__cxx1112basic_stringIcSt11char_traitsIcESaIcEEEbxydSaNS1_14adl_serializerES4_IhSaIhEEvEEE7destroyISE_EEvPT_ @1438
    _ZNSt15__new_allocatorIN8nlohmann16json_abi_v3_11_310basic_jsonISt3mapSt6vectorNSt7__cxx1112basic_stringIcSt11char_traitsIcESaIcEEEbxydSaNS1_14adl_serializerES4_IhSaIhEEvEEE8allocateEyPKv @1439
    _ZNSt15__new_allocatorIN8nlohmann16json_abi_v3_11_310basic_jsonISt3mapSt6vectorNSt7__cxx1112basic_stringIcSt11char_traitsIcESaIcEEEbxydSaNS1_14adl_serializerES4_IhSaIhEEvEEE9constructISE_JRKSE_EEEvPT_DpOT0_ @1440
    _ZNSt15__new_allocatorIN8nlohmann16json_abi_v3_11_310basic_jsonISt3mapSt6vectorNSt7__cxx1112basic_stringIcSt11char_traitsIcESaIcEEEbxydSaNS1_14adl_serializerES4_IhSaIhEEvEEE9constructISE_JSE_EEEvPT_DpOT0_ @1441
    _ZNSt15__new_allocatorIN8nlohmann16json_abi_v3_11_310basic_jsonISt3mapSt6vectorNSt7__cxx1112basic_stringIcSt11char_traitsIcESaIcEEEbxydSaNS1_14adl_serializerES4_IhSaIhEEvEEEC2ERKSF_ @1442
    _ZNSt15__new_allocatorIN8nlohmann16json_abi_v3_11_310basic_jsonISt3mapSt6vectorNSt7__cxx1112basic_stringIcSt11char_traitsIcESaIcEEEbxydSaNS1_14adl_serializerES4_IhSaIhEEvEEEC2Ev @1443
    _ZNSt15__new_allocatorIN8nlohmann16json_abi_v3_11_310basic_jsonISt3mapSt6vectorNSt7__cxx1112basic_stringIcSt11char_traitsIcESaIcEEEbxydSaNS1_14adl_serializerES4_IhSaIhEEvEEED2Ev @1444
    _ZNSt15__new_allocatorIN8nlohmann16json_abi_v3_11_327byte_container_with_subtypeISt6vectorIhSaIhEEEEE10deallocateEPS6_y @1445
    _ZNSt15__new_allocatorIN8nlohmann16json_abi_v3_11_327byte_container_with_subtypeISt6vectorIhSaIhEEEEE7destroyIS6_EEvPT_ @1446
    _ZNSt15__new_allocatorIN8nlohmann16json_abi_v3_11_327byte_container_with_subtypeISt6vectorIhSaIhEEEEE8allocateEyPKv @1447
    _ZNSt15__new_allocatorIN8nlohmann16json_abi_v3_11_327byte_container_with_subtypeISt6vectorIhSaIhEEEEE9constructIS6_JEEEvPT_DpOT0_ @1448
    _ZNSt15__new_allocatorIN8nlohmann16json_abi_v3_11_327byte_container_with_subtypeISt6vectorIhSaIhEEEEE9constructIS6_JRKS6_EEEvPT_DpOT0_ @1449
    _ZNSt15__new_allocatorIN8nlohmann16json_abi_v3_11_327byte_container_with_subtypeISt6vectorIhSaIhEEEEEC2Ev @1450
    _ZNSt15__new_allocatorIN8nlohmann16json_abi_v3_11_327byte_container_with_subtypeISt6vectorIhSaIhEEEEED2Ev @1451
    _ZNSt15__new_allocatorINSt7__cxx1112basic_stringIcSt11char_traitsIcESaIcEEEE7destroyIS5_EEvPT_ @1452
    _ZNSt15__new_allocatorINSt7__cxx1112basic_stringIcSt11char_traitsIcESaIcEEEE9constructIS5_JRA1_KcEEEvPT_DpOT0_ @1453
    _ZNSt15__new_allocatorINSt7__cxx1112basic_stringIcSt11char_traitsIcESaIcEEEE9constructIS5_JRKS5_EEEvPT_DpOT0_ @1454
    _ZNSt15__new_allocatorINSt8__detail10_Hash_nodeISt4pairIKtNSt7__cxx114listIPN9CoRE4INET6BufferESaIS8_EEEELb0EEEE10deallocateEPSC_y @1455
    _ZNSt15__new_allocatorINSt8__detail10_Hash_nodeISt4pairIKtNSt7__cxx114listIPN9CoRE4INET6BufferESaIS8_EEEELb0EEEE7destroyISB_EEvPT_ @1456
    _ZNSt15__new_allocatorINSt8__detail10_Hash_nodeISt4pairIKtNSt7__cxx114listIPN9CoRE4INET6BufferESaIS8_EEEELb0EEEE8allocateEyPKv @1457
    _ZNSt15__new_allocatorINSt8__detail10_Hash_nodeISt4pairIKtNSt7__cxx114listIPN9CoRE4INET6BufferESaIS8_EEEELb0EEEE9constructISB_JRKSt21piecewise_construct_tSt5tupleIJOtEESI_IJEEEEEvPT_DpOT0_ @1458
    _ZNSt15__new_allocatorINSt8__detail10_Hash_nodeISt4pairIKtNSt7__cxx114listIPN9CoRE4INET6BufferESaIS8_EEEELb0EEEEC2Ev @1459
    _ZNSt15__new_allocatorINSt8__detail10_Hash_nodeISt4pairIKtNSt7__cxx114listIPN9CoRE4INET6BufferESaIS8_EEEELb0EEEED2Ev @1460
    _ZNSt15__new_allocatorISt10_List_nodeIN7CAN4CQF21GatewayTransformation5QInfoEEE10deallocateEPS4_y @1461
    _ZNSt15__new_allocatorISt10_List_nodeIN7CAN4CQF21GatewayTransformation5QInfoEEE7destroyIS3_EEvPT_ @1462
    _ZNSt15__new_allocatorISt10_List_nodeIN7CAN4CQF21GatewayTransformation5QInfoEEE8allocateEyPKv @1463
    _ZNSt15__new_allocatorISt10_List_nodeIN7CAN4CQF21GatewayTransformation5QInfoEEE9constructIS3_JRKS3_EEEvPT_DpOT0_ @1464
    _ZNSt15__new_allocatorISt10_List_nodeIN7CAN4CQF21GatewayTransformation5QInfoEEEC2Ev @1465
    _ZNSt15__new_allocatorISt10_List_nodeIN7CAN4CQF21GatewayTransformation5QInfoEEED2Ev @1466
    _ZNSt15__new_allocatorISt10_List_nodeIN7CAN4CQF24EDFGatewayTransformation5QInfoEEE10deallocateEPS4_y @1467
    _ZNSt15__new_allocatorISt10_List_nodeIN7CAN4CQF24EDFGatewayTransformation5QInfoEEE7destroyIS3_EEvPT_ @1468
    _ZNSt15__new_allocatorISt10_List_nodeIN7CAN4CQF24EDFGatewayTransformation5QInfoEEE8allocateEyPKv @1469
    _ZNSt15__new_allocatorISt10_List_nodeIN7CAN4CQF24EDFGatewayTransformation5QInfoEEE9constructIS3_JRKS3_EEEvPT_DpOT0_ @1470
    _ZNSt15__new_allocatorISt10_List_nodeIN7CAN4CQF24EDFGatewayTransformation5QInfoEEEC2Ev @1471
    _ZNSt15__new_allocatorISt10_List_nodeIN7CAN4CQF24EDFGatewayTransformation5QInfoEEED2Ev @1472
    _ZNSt15__new_allocatorISt10_List_nodeIN7CAN4CQF24RAEGatewayTransformation5QInfoEEE10deallocateEPS4_y @1473
    _ZNSt15__new_allocatorISt10_List_nodeIN7CAN4CQF24RAEGatewayTransformation5QInfoEEE7destroyIS3_EEvPT_ @1474
    _ZNSt15__new_allocatorISt10_List_nodeIN7CAN4CQF24RAEGatewayTransformation5QInfoEEE8allocateEyPKv @1475
    _ZNSt15__new_allocatorISt10_List_nodeIN7CAN4CQF24RAEGatewayTransformation5QInfoEEE9constructIS3_JRKS3_EEEvPT_DpOT0_ @1476
    _ZNSt15__new_allocatorISt10_List_nodeIN7CAN4CQF24RAEGatewayTransformation5QInfoEEEC2Ev @1477
    _ZNSt15__new_allocatorISt10_List_nodeIN7CAN4CQF24RAEGatewayTransformation5QInfoEEED2Ev @1478
    _ZNSt15__new_allocatorISt10_List_nodeIN7CAN4CQF24VarGatewayTransformation5QInfoEEE10deallocateEPS4_y @1479
    _ZNSt15__new_allocatorISt10_List_nodeIN7CAN4CQF24VarGatewayTransformation5QInfoEEE7destroyIS3_EEvPT_ @1480
    _ZNSt15__new_allocatorISt10_List_nodeIN7CAN4CQF24VarGatewayTransformation5QInfoEEE8allocateEyPKv @1481
    _ZNSt15__new_allocatorISt10_List_nodeIN7CAN4CQF24VarGatewayTransformation5QInfoEEE9constructIS3_JRKS3_EEEvPT_DpOT0_ @1482
    _ZNSt15__new_allocatorISt10_List_nodeIN7CAN4CQF24VarGatewayTransformation5QInfoEEEC2Ev @1483
    _ZNSt15__new_allocatorISt10_List_nodeIN7CAN4CQF24VarGatewayTransformation5QInfoEEED2Ev @1484
    _ZNSt15__new_allocatorISt10_List_nodeIN7CAN4CQF28TimeoutGatewayTransformation5QInfoEEE10deallocateEPS4_y @1485
    _ZNSt15__new_allocatorISt10_List_nodeIN7CAN4CQF28TimeoutGatewayTransformation5QInfoEEE7destroyIS3_EEvPT_ @1486
    _ZNSt15__new_allocatorISt10_List_nodeIN7CAN4CQF28TimeoutGatewayTransformation5QInfoEEE8allocateEyPKv @1487
    _ZNSt15__new_allocatorISt10_List_nodeIN7CAN4CQF28TimeoutGatewayTransformation5QInfoEEE9constructIS3_JRKS3_EEEvPT_DpOT0_ @1488
    _ZNSt15__new_allocatorISt10_List_nodeIN7CAN4CQF28TimeoutGatewayTransformation5QInfoEEEC2Ev @1489
    _ZNSt15__new_allocatorISt10_List_nodeIN7CAN4CQF28TimeoutGatewayTransformation5QInfoEEED2Ev @1490
    _ZNSt15__new_allocatorISt10_List_nodeIPN9CoRE4INET6BufferEEE10deallocateEPS4_y @1491
    _ZNSt15__new_allocatorISt10_List_nodeIPN9CoRE4INET6BufferEEE7destroyIS3_EEvPT_ @1492
    _ZNSt15__new_allocatorISt10_List_nodeIPN9CoRE4INET6BufferEEE8allocateEyPKv @1493
    _ZNSt15__new_allocatorISt10_List_nodeIPN9CoRE4INET6BufferEEE9constructIS3_JRKS3_EEEvPT_DpOT0_ @1494
    _ZNSt15__new_allocatorISt10_List_nodeIPN9CoRE4INET6BufferEEEC2Ev @1495
    _ZNSt15__new_allocatorISt10_List_nodeIPN9CoRE4INET6BufferEEED2Ev @1496
    _ZNSt15__new_allocatorISt13_Rb_tree_nodeISt4pairIKNSt7__cxx1112basic_stringIcSt11char_traitsIcESaIcEEEN8nlohmann16json_abi_v3_11_310basic_jsonISt3mapSt6vectorS7_bxydSaNSA_14adl_serializerESD_IhSaIhEEvEEEEE10deallocateEPSJ_y @1497
    _ZNSt15__new_allocatorISt13_Rb_tree_nodeISt4pairIKNSt7__cxx1112basic_stringIcSt11char_traitsIcESaIcEEEN8nlohmann16json_abi_v3_11_310basic_jsonISt3mapSt6vectorS7_bxydSaNSA_14adl_serializerESD_IhSaIhEEvEEEEE7destroyISI_EEvPT_ @1498
    _ZNSt15__new_allocatorISt13_Rb_tree_nodeISt4pairIKNSt7__cxx1112basic_stringIcSt11char_traitsIcESaIcEEEN8nlohmann16json_abi_v3_11_310basic_jsonISt3mapSt6vectorS7_bxydSaNSA_14adl_serializerESD_IhSaIhEEvEEEEE8allocateEyPKv @1499
    _ZNSt15__new_allocatorISt13_Rb_tree_nodeISt4pairIKNSt7__cxx1112basic_stringIcSt11char_traitsIcESaIcEEEN8nlohmann16json_abi_v3_11_310basic_jsonISt3mapSt6vectorS7_bxydSaNSA_14adl_serializerESD_IhSaIhEEvEEEEE9constructISI_JRKSI_EEEvPT_DpOT0_ @1500
    _ZNSt15__new_allocatorISt13_Rb_tree_nodeISt4pairIKNSt7__cxx1112basic_stringIcSt11char_traitsIcESaIcEEEN8nlohmann16json_abi_v3_11_310basic_jsonISt3mapSt6vectorS7_bxydSaNSA_14adl_serializerESD_IhSaIhEEvEEEEE9constructISI_JS7_DnEEEvPT_DpOT0_ @1501
    _ZNSt15__new_allocatorISt13_Rb_tree_nodeISt4pairIKNSt7__cxx1112basic_stringIcSt11char_traitsIcESaIcEEEN8nlohmann16json_abi_v3_11_310basic_jsonISt3mapSt6vectorS7_bxydSaNSA_14adl_serializerESD_IhSaIhEEvEEEEE9constructISI_JS7_SH_EEEvPT_DpOT0_ @1502
    _ZNSt15__new_allocatorISt13_Rb_tree_nodeISt4pairIKNSt7__cxx1112basic_stringIcSt11char_traitsIcESaIcEEEN8nlohmann16json_abi_v3_11_310basic_jsonISt3mapSt6vectorS7_bxydSaNSA_14adl_serializerESD_IhSaIhEEvEEEEEC2ERKSK_ @1503
    _ZNSt15__new_allocatorISt13_Rb_tree_nodeISt4pairIKNSt7__cxx1112basic_stringIcSt11char_traitsIcESaIcEEEN8nlohmann16json_abi_v3_11_310basic_jsonISt3mapSt6vectorS7_bxydSaNSA_14adl_serializerESD_IhSaIhEEvEEEEEC2Ev @1504
    _ZNSt15__new_allocatorISt13_Rb_tree_nodeISt4pairIKNSt7__cxx1112basic_stringIcSt11char_traitsIcESaIcEEEN8nlohmann16json_abi_v3_11_310basic_jsonISt3mapSt6vectorS7_bxydSaNSA_14adl_serializerESD_IhSaIhEEvEEEEED2Ev @1505
    _ZNSt15__new_allocatorISt13_Rb_tree_nodeISt4pairIKPN10FiCo4OMNeT12CanDataFrameEN7omnetpp7SimTimeEEEE10deallocateEPS9_y @1506
    _ZNSt15__new_allocatorISt13_Rb_tree_nodeISt4pairIKPN10FiCo4OMNeT12CanDataFrameEN7omnetpp7SimTimeEEEE7destroyIS8_EEvPT_ @1507
    _ZNSt15__new_allocatorISt13_Rb_tree_nodeISt4pairIKPN10FiCo4OMNeT12CanDataFrameEN7omnetpp7SimTimeEEEE8allocateEyPKv @1508
    _ZNSt15__new_allocatorISt13_Rb_tree_nodeISt4pairIKPN10FiCo4OMNeT12CanDataFrameEN7omnetpp7SimTimeEEEE9constructIS8_JRKS8_EEEvPT_DpOT0_ @1509
    _ZNSt15__new_allocatorISt13_Rb_tree_nodeISt4pairIKPN10FiCo4OMNeT12CanDataFrameEN7omnetpp7SimTimeEEEE9constructIS8_JRKSt21piecewise_construct_tSt5tupleIJRS5_EESF_IJEEEEEvPT_DpOT0_ @1510
    _ZNSt15__new_allocatorISt13_Rb_tree_nodeISt4pairIKPN10FiCo4OMNeT12CanDataFrameEN7omnetpp7SimTimeEEEE9constructIS8_JS1_IS4_S7_EEEEvPT_DpOT0_ @1511
    _ZNSt15__new_allocatorISt13_Rb_tree_nodeISt4pairIKPN10FiCo4OMNeT12CanDataFrameEN7omnetpp7SimTimeEEEEC2ERKSA_ @1512
    _ZNSt15__new_allocatorISt13_Rb_tree_nodeISt4pairIKPN10FiCo4OMNeT12CanDataFrameEN7omnetpp7SimTimeEEEEC2Ev @1513
    _ZNSt15__new_allocatorISt13_Rb_tree_nodeISt4pairIKPN10FiCo4OMNeT12CanDataFrameEN7omnetpp7SimTimeEEEED2Ev @1514
    _ZNSt15__new_allocatorISt13_Rb_tree_nodeISt4pairIKPN10FiCo4OMNeT12CanDataFrameEdEEE10deallocateEPS7_y @1515
    _ZNSt15__new_allocatorISt13_Rb_tree_nodeISt4pairIKPN10FiCo4OMNeT12CanDataFrameEdEEE7destroyIS6_EEvPT_ @1516
    _ZNSt15__new_allocatorISt13_Rb_tree_nodeISt4pairIKPN10FiCo4OMNeT12CanDataFrameEdEEE8allocateEyPKv @1517
    _ZNSt15__new_allocatorISt13_Rb_tree_nodeISt4pairIKPN10FiCo4OMNeT12CanDataFrameEdEEE9constructIS6_JRKS6_EEEvPT_DpOT0_ @1518
    _ZNSt15__new_allocatorISt13_Rb_tree_nodeISt4pairIKPN10FiCo4OMNeT12CanDataFrameEdEEE9constructIS6_JRKSt21piecewise_construct_tSt5tupleIJRS5_EESD_IJEEEEEvPT_DpOT0_ @1519
    _ZNSt15__new_allocatorISt13_Rb_tree_nodeISt4pairIKPN10FiCo4OMNeT12CanDataFrameEdEEE9constructIS6_JS1_IS4_dEEEEvPT_DpOT0_ @1520
    _ZNSt15__new_allocatorISt13_Rb_tree_nodeISt4pairIKPN10FiCo4OMNeT12CanDataFrameEdEEEC2ERKS8_ @1521
    _ZNSt15__new_allocatorISt13_Rb_tree_nodeISt4pairIKPN10FiCo4OMNeT12CanDataFrameEdEEEC2Ev @1522
    _ZNSt15__new_allocatorISt13_Rb_tree_nodeISt4pairIKPN10FiCo4OMNeT12CanDataFrameEdEEED2Ev @1523
    _ZNSt15__new_allocatorISt13_Rb_tree_nodeISt4pairIKiN7CAN4CQF22CircularRotationBuffer14wcrt_data_infoEEEE10deallocateEPS7_y @1524
    _ZNSt15__new_allocatorISt13_Rb_tree_nodeISt4pairIKiN7CAN4CQF22CircularRotationBuffer14wcrt_data_infoEEEE7destroyIS6_EEvPT_ @1525
    _ZNSt15__new_allocatorISt13_Rb_tree_nodeISt4pairIKiN7CAN4CQF22CircularRotationBuffer14wcrt_data_infoEEEE8allocateEyPKv @1526
    _ZNSt15__new_allocatorISt13_Rb_tree_nodeISt4pairIKiN7CAN4CQF22CircularRotationBuffer14wcrt_data_infoEEEE9constructIS6_JRKSt21piecewise_construct_tSt5tupleIJRS2_EESD_IJEEEEEvPT_DpOT0_ @1527
    _ZNSt15__new_allocatorISt13_Rb_tree_nodeISt4pairIKiN7CAN4CQF22CircularRotationBuffer14wcrt_data_infoEEEEC2Ev @1528
    _ZNSt15__new_allocatorISt13_Rb_tree_nodeISt4pairIKiN7CAN4CQF22CircularRotationBuffer14wcrt_data_infoEEEED2Ev @1529
    _ZNSt15__new_allocatorISt13_Rb_tree_nodeISt4pairIKiPNSt7__cxx114listIPN7omnetpp8cMessageESaIS7_EEEEEE10deallocateEPSC_y @1530
    _ZNSt15__new_allocatorISt13_Rb_tree_nodeISt4pairIKiPNSt7__cxx114listIPN7omnetpp8cMessageESaIS7_EEEEEE7destroyISB_EEvPT_ @1531
    _ZNSt15__new_allocatorISt13_Rb_tree_nodeISt4pairIKiPNSt7__cxx114listIPN7omnetpp8cMessageESaIS7_EEEEEE8allocateEyPKv @1532
    _ZNSt15__new_allocatorISt13_Rb_tree_nodeISt4pairIKiPNSt7__cxx114listIPN7omnetpp8cMessageESaIS7_EEEEEE9constructISB_JRKSt21piecewise_construct_tSt5tupleIJOiEESI_IJEEEEEvPT_DpOT0_ @1533
    _ZNSt15__new_allocatorISt13_Rb_tree_nodeISt4pairIKiPNSt7__cxx114listIPN7omnetpp8cMessageESaIS7_EEEEEE9constructISB_JS1_IjSA_EEEEvPT_DpOT0_ @1534
    _ZNSt15__new_allocatorISt13_Rb_tree_nodeISt4pairIKiPNSt7__cxx114listIPN7omnetpp8cMessageESaIS7_EEEEEEC2Ev @1535
    _ZNSt15__new_allocatorISt13_Rb_tree_nodeISt4pairIKiPNSt7__cxx114listIPN7omnetpp8cMessageESaIS7_EEEEEED2Ev @1536
    _ZNSt15__new_allocatorISt13_Rb_tree_nodeISt4pairIKjNSt7__cxx114listIN7CAN4CQF21GatewayTransformation5QInfoESaIS7_EEEEEE10deallocateEPSB_y @1537
    _ZNSt15__new_allocatorISt13_Rb_tree_nodeISt4pairIKjNSt7__cxx114listIN7CAN4CQF21GatewayTransformation5QInfoESaIS7_EEEEEE7destroyISA_EEvPT_ @1538
    _ZNSt15__new_allocatorISt13_Rb_tree_nodeISt4pairIKjNSt7__cxx114listIN7CAN4CQF21GatewayTransformation5QInfoESaIS7_EEEEEE8allocateEyPKv @1539
    _ZNSt15__new_allocatorISt13_Rb_tree_nodeISt4pairIKjNSt7__cxx114listIN7CAN4CQF21GatewayTransformation5QInfoESaIS7_EEEEEE9constructISA_JRKSt21piecewise_construct_tSt5tupleIJOjEESH_IJEEEEEvPT_DpOT0_ @1540
    _ZNSt15__new_allocatorISt13_Rb_tree_nodeISt4pairIKjNSt7__cxx114listIN7CAN4CQF21GatewayTransformation5QInfoESaIS7_EEEEEEC2Ev @1541
    _ZNSt15__new_allocatorISt13_Rb_tree_nodeISt4pairIKjNSt7__cxx114listIN7CAN4CQF21GatewayTransformation5QInfoESaIS7_EEEEEED2Ev @1542
    _ZNSt15__new_allocatorISt13_Rb_tree_nodeISt4pairIKjNSt7__cxx114listIN7CAN4CQF24EDFGatewayTransformation5QInfoESaIS7_EEEEEE10deallocateEPSB_y @1543
    _ZNSt15__new_allocatorISt13_Rb_tree_nodeISt4pairIKjNSt7__cxx114listIN7CAN4CQF24EDFGatewayTransformation5QInfoESaIS7_EEEEEE7destroyISA_EEvPT_ @1544
    _ZNSt15__new_allocatorISt13_Rb_tree_nodeISt4pairIKjNSt7__cxx114listIN7CAN4CQF24EDFGatewayTransformation5QInfoESaIS7_EEEEEE8allocateEyPKv @1545
    _ZNSt15__new_allocatorISt13_Rb_tree_nodeISt4pairIKjNSt7__cxx114listIN7CAN4CQF24EDFGatewayTransformation5QInfoESaIS7_EEEEEE9constructISA_JRKSt21piecewise_construct_tSt5tupleIJOjEESH_IJEEEEEvPT_DpOT0_ @1546
    _ZNSt15__new_allocatorISt13_Rb_tree_nodeISt4pairIKjNSt7__cxx114listIN7CAN4CQF24EDFGatewayTransformation5QInfoESaIS7_EEEEEEC2Ev @1547
    _ZNSt15__new_allocatorISt13_Rb_tree_nodeISt4pairIKjNSt7__cxx114listIN7CAN4CQF24EDFGatewayTransformation5QInfoESaIS7_EEEEEED2Ev @1548
    _ZNSt15__new_allocatorISt13_Rb_tree_nodeISt4pairIKjNSt7__cxx114listIN7CAN4CQF24RAEGatewayTransformation5QInfoESaIS7_EEEEEE10deallocateEPSB_y @1549
    _ZNSt15__new_allocatorISt13_Rb_tree_nodeISt4pairIKjNSt7__cxx114listIN7CAN4CQF24RAEGatewayTransformation5QInfoESaIS7_EEEEEE7destroyISA_EEvPT_ @1550
    _ZNSt15__new_allocatorISt13_Rb_tree_nodeISt4pairIKjNSt7__cxx114listIN7CAN4CQF24RAEGatewayTransformation5QInfoESaIS7_EEEEEE8allocateEyPKv @1551
    _ZNSt15__new_allocatorISt13_Rb_tree_nodeISt4pairIKjNSt7__cxx114listIN7CAN4CQF24RAEGatewayTransformation5QInfoESaIS7_EEEEEE9constructISA_JRKSt21piecewise_construct_tSt5tupleIJOjEESH_IJEEEEEvPT_DpOT0_ @1552
    _ZNSt15__new_allocatorISt13_Rb_tree_nodeISt4pairIKjNSt7__cxx114listIN7CAN4CQF24RAEGatewayTransformation5QInfoESaIS7_EEEEEEC2Ev @1553
    _ZNSt15__new_allocatorISt13_Rb_tree_nodeISt4pairIKjNSt7__cxx114listIN7CAN4CQF24RAEGatewayTransformation5QInfoESaIS7_EEEEEED2Ev @1554
    _ZNSt15__new_allocatorISt13_Rb_tree_nodeISt4pairIKjNSt7__cxx114listIN7CAN4CQF24VarGatewayTransformation5QInfoESaIS7_EEEEEE10deallocateEPSB_y @1555
    _ZNSt15__new_allocatorISt13_Rb_tree_nodeISt4pairIKjNSt7__cxx114listIN7CAN4CQF24VarGatewayTransformation5QInfoESaIS7_EEEEEE7destroyISA_EEvPT_ @1556
    _ZNSt15__new_allocatorISt13_Rb_tree_nodeISt4pairIKjNSt7__cxx114listIN7CAN4CQF24VarGatewayTransformation5QInfoESaIS7_EEEEEE8allocateEyPKv @1557
    _ZNSt15__new_allocatorISt13_Rb_tree_nodeISt4pairIKjNSt7__cxx114listIN7CAN4CQF24VarGatewayTransformation5QInfoESaIS7_EEEEEE9constructISA_JRKSt21piecewise_construct_tSt5tupleIJOjEESH_IJEEEEEvPT_DpOT0_ @1558
    _ZNSt15__new_allocatorISt13_Rb_tree_nodeISt4pairIKjNSt7__cxx114listIN7CAN4CQF24VarGatewayTransformation5QInfoESaIS7_EEEEEEC2Ev @1559
    _ZNSt15__new_allocatorISt13_Rb_tree_nodeISt4pairIKjNSt7__cxx114listIN7CAN4CQF24VarGatewayTransformation5QInfoESaIS7_EEEEEED2Ev @1560
    _ZNSt15__new_allocatorISt13_Rb_tree_nodeISt4pairIKjNSt7__cxx114listIN7CAN4CQF28TimeoutGatewayTransformation5QInfoESaIS7_EEEEEE10deallocateEPSB_y @1561
    _ZNSt15__new_allocatorISt13_Rb_tree_nodeISt4pairIKjNSt7__cxx114listIN7CAN4CQF28TimeoutGatewayTransformation5QInfoESaIS7_EEEEEE7destroyISA_EEvPT_ @1562
    _ZNSt15__new_allocatorISt13_Rb_tree_nodeISt4pairIKjNSt7__cxx114listIN7CAN4CQF28TimeoutGatewayTransformation5QInfoESaIS7_EEEEEE8allocateEyPKv @1563
    _ZNSt15__new_allocatorISt13_Rb_tree_nodeISt4pairIKjNSt7__cxx114listIN7CAN4CQF28TimeoutGatewayTransformation5QInfoESaIS7_EEEEEE9constructISA_JRKSt21piecewise_construct_tSt5tupleIJOjEESH_IJEEEEEvPT_DpOT0_ @1564
    _ZNSt15__new_allocatorISt13_Rb_tree_nodeISt4pairIKjNSt7__cxx114listIN7CAN4CQF28TimeoutGatewayTransformation5QInfoESaIS7_EEEEEEC2Ev @1565
    _ZNSt15__new_allocatorISt13_Rb_tree_nodeISt4pairIKjNSt7__cxx114listIN7CAN4CQF28TimeoutGatewayTransformation5QInfoESaIS7_EEEEEED2Ev @1566
    _ZNSt15__new_allocatorISt23_Sp_counted_ptr_inplaceIN8nlohmann16json_abi_v3_11_36detail21output_string_adapterIcNSt7__cxx1112basic_stringIcSt11char_traitsIcESaIcEEEEESaIvELN9__gnu_cxx12_Lock_policyE2EEE10deallocateEPSF_y @1567
    _ZNSt15__new_allocatorISt23_Sp_counted_ptr_inplaceIN8nlohmann16json_abi_v3_11_36detail21output_string_adapterIcNSt7__cxx1112basic_stringIcSt11char_traitsIcESaIcEEEEESaIvELN9__gnu_cxx12_Lock_policyE2EEE8allocateEyPKv @1568
    _ZNSt15__new_allocatorISt23_Sp_counted_ptr_inplaceIN8nlohmann16json_abi_v3_11_36detail21output_string_adapterIcNSt7__cxx1112basic_stringIcSt11char_traitsIcESaIcEEEEESaIvELN9__gnu_cxx12_Lock_policyE2EEEC2Ev @1569
    _ZNSt15__new_allocatorISt23_Sp_counted_ptr_inplaceIN8nlohmann16json_abi_v3_11_36detail21output_string_adapterIcNSt7__cxx1112basic_stringIcSt11char_traitsIcESaIcEEEEESaIvELN9__gnu_cxx12_Lock_policyE2EEED2Ev @1570
    _ZNSt15__new_allocatorISt3mapINSt7__cxx1112basic_stringIcSt11char_traitsIcESaIcEEEN8nlohmann16json_abi_v3_11_310basic_jsonIS0_St6vectorS6_bxydSaNS8_14adl_serializerESA_IhSaIhEEvEESt4lessIvESaISt4pairIKS6_SE_EEEE10deallocateEPSL_y @1571
    _ZNSt15__new_allocatorISt3mapINSt7__cxx1112basic_stringIcSt11char_traitsIcESaIcEEEN8nlohmann16json_abi_v3_11_310basic_jsonIS0_St6vectorS6_bxydSaNS8_14adl_serializerESA_IhSaIhEEvEESt4lessIvESaISt4pairIKS6_SE_EEEE7destroyISL_EEvPT_ @1572
    _ZNSt15__new_allocatorISt3mapINSt7__cxx1112basic_stringIcSt11char_traitsIcESaIcEEEN8nlohmann16json_abi_v3_11_310basic_jsonIS0_St6vectorS6_bxydSaNS8_14adl_serializerESA_IhSaIhEEvEESt4lessIvESaISt4pairIKS6_SE_EEEE8allocateEyPKv @1573
    _ZNSt15__new_allocatorISt3mapINSt7__cxx1112basic_stringIcSt11char_traitsIcESaIcEEEN8nlohmann16json_abi_v3_11_310basic_jsonIS0_St6vectorS6_bxydSaNS8_14adl_serializerESA_IhSaIhEEvEESt4lessIvESaISt4pairIKS6_SE_EEEE9constructISL_JEEEvPT_DpOT0_ @1574
    _ZNSt15__new_allocatorISt3mapINSt7__cxx1112basic_stringIcSt11char_traitsIcESaIcEEEN8nlohmann16json_abi_v3_11_310basic_jsonIS0_St6vectorS6_bxydSaNS8_14adl_serializerESA_IhSaIhEEvEESt4lessIvESaISt4pairIKS6_SE_EEEE9constructISL_JRKSL_EEEvPT_DpOT0_ @1575
    _ZNSt15__new_allocatorISt3mapINSt7__cxx1112basic_stringIcSt11char_traitsIcESaIcEEEN8nlohmann16json_abi_v3_11_310basic_jsonIS0_St6vectorS6_bxydSaNS8_14adl_serializerESA_IhSaIhEEvEESt4lessIvESaISt4pairIKS6_SE_EEEEC2Ev @1576
    _ZNSt15__new_allocatorISt3mapINSt7__cxx1112basic_stringIcSt11char_traitsIcESaIcEEEN8nlohmann16json_abi_v3_11_310basic_jsonIS0_St6vectorS6_bxydSaNS8_14adl_serializerESA_IhSaIhEEvEESt4lessIvESaISt4pairIKS6_SE_EEEED2Ev @1577
    _ZNSt15__new_allocatorISt4pairIPN10FiCo4OMNeT12CanDataFrameEdEE10deallocateEPS4_y @1578
    _ZNSt15__new_allocatorISt4pairIPN10FiCo4OMNeT12CanDataFrameEdEE7destroyIS4_EEvPT_ @1579
    _ZNSt15__new_allocatorISt4pairIPN10FiCo4OMNeT12CanDataFrameEdEE8allocateEyPKv @1580
    _ZNSt15__new_allocatorISt4pairIPN10FiCo4OMNeT12CanDataFrameEdEE9constructIS4_JS4_EEEvPT_DpOT0_ @1581
    _ZNSt15__new_allocatorISt4pairIPN10FiCo4OMNeT12CanDataFrameEdEEC2Ev @1582
    _ZNSt15__new_allocatorISt4pairIPN10FiCo4OMNeT12CanDataFrameEdEED2Ev @1583
    _ZNSt15__new_allocatorISt6vectorIN8nlohmann16json_abi_v3_11_310basic_jsonISt3mapS0_NSt7__cxx1112basic_stringIcSt11char_traitsIcESaIcEEEbxydSaNS2_14adl_serializerES0_IhSaIhEEvEESaISE_EEE10deallocateEPSG_y @1584
    _ZNSt15__new_allocatorISt6vectorIN8nlohmann16json_abi_v3_11_310basic_jsonISt3mapS0_NSt7__cxx1112basic_stringIcSt11char_traitsIcESaIcEEEbxydSaNS2_14adl_serializerES0_IhSaIhEEvEESaISE_EEE7destroyISG_EEvPT_ @1585
    _ZNSt15__new_allocatorISt6vectorIN8nlohmann16json_abi_v3_11_310basic_jsonISt3mapS0_NSt7__cxx1112basic_stringIcSt11char_traitsIcESaIcEEEbxydSaNS2_14adl_serializerES0_IhSaIhEEvEESaISE_EEE8allocateEyPKv @1586
    _ZNSt15__new_allocatorISt6vectorIN8nlohmann16json_abi_v3_11_310basic_jsonISt3mapS0_NSt7__cxx1112basic_stringIcSt11char_traitsIcESaIcEEEbxydSaNS2_14adl_serializerES0_IhSaIhEEvEESaISE_EEE9constructISG_JEEEvPT_DpOT0_ @1587
    _ZNSt15__new_allocatorISt6vectorIN8nlohmann16json_abi_v3_11_310basic_jsonISt3mapS0_NSt7__cxx1112basic_stringIcSt11char_traitsIcESaIcEEEbxydSaNS2_14adl_serializerES0_IhSaIhEEvEESaISE_EEE9constructISG_JPKNS2_6detail8json_refISE_EESN_EEEvPT_DpOT0_ @1588
    _ZNSt15__new_allocatorISt6vectorIN8nlohmann16json_abi_v3_11_310basic_jsonISt3mapS0_NSt7__cxx1112basic_stringIcSt11char_traitsIcESaIcEEEbxydSaNS2_14adl_serializerES0_IhSaIhEEvEESaISE_EEE9constructISG_JRKSG_EEEvPT_DpOT0_ @1589
    _ZNSt15__new_allocatorISt6vectorIN8nlohmann16json_abi_v3_11_310basic_jsonISt3mapS0_NSt7__cxx1112basic_stringIcSt11char_traitsIcESaIcEEEbxydSaNS2_14adl_serializerES0_IhSaIhEEvEESaISE_EEEC2Ev @1590
    _ZNSt15__new_allocatorISt6vectorIN8nlohmann16json_abi_v3_11_310basic_jsonISt3mapS0_NSt7__cxx1112basic_stringIcSt11char_traitsIcESaIcEEEbxydSaNS2_14adl_serializerES0_IhSaIhEEvEESaISE_EEED2Ev @1591
    _ZNSt15__new_allocatorIhE10deallocateEPhy @1592
    _ZNSt15__new_allocatorIhE8allocateEyPKv @1593
    _ZNSt15__new_allocatorIhEC2ERKS0_ @1594
    _ZNSt15__new_allocatorIhEC2Ev @1595
    _ZNSt15__new_allocatorIhED2Ev @1596
    _ZNSt15__new_allocatorIiE9constructIiJiEEEvPT_DpOT0_ @1597
    _ZNSt15__uniq_ptr_dataIN8nlohmann16json_abi_v3_11_327byte_container_with_subtypeISt6vectorIhSaIhEEEEZNS1_10basic_jsonISt3mapS3_NSt7__cxx1112basic_stringIcSt11char_traitsIcESaIcEEEbxydSaNS1_14adl_serializerES5_vE6createIS6_JEEEPT_DpOT0_EUlPS6_E_Lb1ELb0EECI2St15__uniq_ptr_implIS6_SO_EIRKSO_EESN_OSI_ @1598
    _ZNSt15__uniq_ptr_dataIN8nlohmann16json_abi_v3_11_327byte_container_with_subtypeISt6vectorIhSaIhEEEEZNS1_10basic_jsonISt3mapS3_NSt7__cxx1112basic_stringIcSt11char_traitsIcESaIcEEEbxydSaNS1_14adl_serializerES5_vE6createIS6_JRKS6_EEEPT_DpOT0_EUlPS6_E_Lb1ELb0EECI2St15__uniq_ptr_implIS6_SQ_EIRKSQ_EESP_OSK_ @1599
    _ZNSt15__uniq_ptr_dataINSt7__cxx1112basic_stringIcSt11char_traitsIcESaIcEEEZN8nlohmann16json_abi_v3_11_310basic_jsonISt3mapSt6vectorS5_bxydSaNS7_14adl_serializerESA_IhSaIhEEvE6createIS5_JRA1_KcEEEPT_DpOT0_EUlPS5_E_Lb1ELb0EECI2St15__uniq_ptr_implIS5_SP_EIRKSP_EESO_OSJ_ @1600
    _ZNSt15__uniq_ptr_dataINSt7__cxx1112basic_stringIcSt11char_traitsIcESaIcEEEZN8nlohmann16json_abi_v3_11_310basic_jsonISt3mapSt6vectorS5_bxydSaNS7_14adl_serializerESA_IhSaIhEEvE6createIS5_JRKS5_EEEPT_DpOT0_EUlPS5_E_Lb1ELb0EECI2St15__uniq_ptr_implIS5_SO_EIRKSO_EESN_OSI_ @1601
    _ZNSt15__uniq_ptr_dataISt3mapINSt7__cxx1112basic_stringIcSt11char_traitsIcESaIcEEEN8nlohmann16json_abi_v3_11_310basic_jsonIS0_St6vectorS6_bxydSaNS8_14adl_serializerESA_IhSaIhEEvEESt4lessIvESaISt4pairIKS6_SE_EEEZNSE_6createISL_JEEEPT_DpOT0_EUlPSL_E_Lb1ELb0EECI2St15__uniq_ptr_implISL_ST_EIRKST_EESS_OSN_ @1602
    _ZNSt15__uniq_ptr_dataISt3mapINSt7__cxx1112basic_stringIcSt11char_traitsIcESaIcEEEN8nlohmann16json_abi_v3_11_310basic_jsonIS0_St6vectorS6_bxydSaNS8_14adl_serializerESA_IhSaIhEEvEESt4lessIvESaISt4pairIKS6_SE_EEEZNSE_6createISL_JRKSL_EEEPT_DpOT0_EUlPSL_E_Lb1ELb0EECI2St15__uniq_ptr_implISL_SV_EIRKSV_EESU_OSP_ @1603
    _ZNSt15__uniq_ptr_dataISt6vectorIN8nlohmann16json_abi_v3_11_310basic_jsonISt3mapS0_NSt7__cxx1112basic_stringIcSt11char_traitsIcESaIcEEEbxydSaNS2_14adl_serializerES0_IhSaIhEEvEESaISE_EEZNSE_6createISG_JEEEPT_DpOT0_EUlPSG_E_Lb1ELb0EECI2St15__uniq_ptr_implISG_SO_EIRKSO_EESN_OSI_ @1604
    _ZNSt15__uniq_ptr_dataISt6vectorIN8nlohmann16json_abi_v3_11_310basic_jsonISt3mapS0_NSt7__cxx1112basic_stringIcSt11char_traitsIcESaIcEEEbxydSaNS2_14adl_serializerES0_IhSaIhEEvEESaISE_EEZNSE_6createISG_JPKNS2_6detail8json_refISE_EESM_EEEPT_DpOT0_EUlPSG_E_Lb1ELb0EECI2St15__uniq_ptr_implISG_ST_EIRKST_EESS_OSN_ @1605
    _ZNSt15__uniq_ptr_dataISt6vectorIN8nlohmann16json_abi_v3_11_310basic_jsonISt3mapS0_NSt7__cxx1112basic_stringIcSt11char_traitsIcESaIcEEEbxydSaNS2_14adl_serializerES0_IhSaIhEEvEESaISE_EEZNSE_6createISG_JRKSG_EEEPT_DpOT0_EUlPSG_E_Lb1ELb0EECI2St15__uniq_ptr_implISG_SQ_EIRKSQ_EESP_OSK_ @1606
    _ZNSt15__uniq_ptr_implIN8nlohmann16json_abi_v3_11_327byte_container_with_subtypeISt6vectorIhSaIhEEEEZNS1_10basic_jsonISt3mapS3_NSt7__cxx1112basic_stringIcSt11char_traitsIcESaIcEEEbxydSaNS1_14adl_serializerES5_vE6createIS6_JEEEPT_DpOT0_EUlPS6_E_E10_M_deleterEv @1607
    _ZNSt15__uniq_ptr_implIN8nlohmann16json_abi_v3_11_327byte_container_with_subtypeISt6vectorIhSaIhEEEEZNS1_10basic_jsonISt3mapS3_NSt7__cxx1112basic_stringIcSt11char_traitsIcESaIcEEEbxydSaNS1_14adl_serializerES5_vE6createIS6_JEEEPT_DpOT0_EUlPS6_E_E6_M_ptrEv @1608
    _ZNSt15__uniq_ptr_implIN8nlohmann16json_abi_v3_11_327byte_container_with_subtypeISt6vectorIhSaIhEEEEZNS1_10basic_jsonISt3mapS3_NSt7__cxx1112basic_stringIcSt11char_traitsIcESaIcEEEbxydSaNS1_14adl_serializerES5_vE6createIS6_JEEEPT_DpOT0_EUlPS6_E_E7releaseEv @1609
    _ZNSt15__uniq_ptr_implIN8nlohmann16json_abi_v3_11_327byte_container_with_subtypeISt6vectorIhSaIhEEEEZNS1_10basic_jsonISt3mapS3_NSt7__cxx1112basic_stringIcSt11char_traitsIcESaIcEEEbxydSaNS1_14adl_serializerES5_vE6createIS6_JEEEPT_DpOT0_EUlPS6_E_EC2IRKSO_EESN_OSI_ @1610
    _ZNSt15__uniq_ptr_implIN8nlohmann16json_abi_v3_11_327byte_container_with_subtypeISt6vectorIhSaIhEEEEZNS1_10basic_jsonISt3mapS3_NSt7__cxx1112basic_stringIcSt11char_traitsIcESaIcEEEbxydSaNS1_14adl_serializerES5_vE6createIS6_JRKS6_EEEPT_DpOT0_EUlPS6_E_E10_M_deleterEv @1611
    _ZNSt15__uniq_ptr_implIN8nlohmann16json_abi_v3_11_327byte_container_with_subtypeISt6vectorIhSaIhEEEEZNS1_10basic_jsonISt3mapS3_NSt7__cxx1112basic_stringIcSt11char_traitsIcESaIcEEEbxydSaNS1_14adl_serializerES5_vE6createIS6_JRKS6_EEEPT_DpOT0_EUlPS6_E_E6_M_ptrEv @1612
    _ZNSt15__uniq_ptr_implIN8nlohmann16json_abi_v3_11_327byte_container_with_subtypeISt6vectorIhSaIhEEEEZNS1_10basic_jsonISt3mapS3_NSt7__cxx1112basic_stringIcSt11char_traitsIcESaIcEEEbxydSaNS1_14adl_serializerES5_vE6createIS6_JRKS6_EEEPT_DpOT0_EUlPS6_E_E7releaseEv @1613
    _ZNSt15__uniq_ptr_implIN8nlohmann16json_abi_v3_11_327byte_container_with_subtypeISt6vectorIhSaIhEEEEZNS1_10basic_jsonISt3mapS3_NSt7__cxx1112basic_stringIcSt11char_traitsIcESaIcEEEbxydSaNS1_14adl_serializerES5_vE6createIS6_JRKS6_EEEPT_DpOT0_EUlPS6_E_EC2IRKSQ_EESP_OSK_ @1614
    _ZNSt15__uniq_ptr_implINSt7__cxx1112basic_stringIcSt11char_traitsIcESaIcEEEZN8nlohmann16json_abi_v3_11_310basic_jsonISt3mapSt6vectorS5_bxydSaNS7_14adl_serializerESA_IhSaIhEEvE6createIS5_JRA1_KcEEEPT_DpOT0_EUlPS5_E_E10_M_deleterEv @1615
    _ZNSt15__uniq_ptr_implINSt7__cxx1112basic_stringIcSt11char_traitsIcESaIcEEEZN8nlohmann16json_abi_v3_11_310basic_jsonISt3mapSt6vectorS5_bxydSaNS7_14adl_serializerESA_IhSaIhEEvE6createIS5_JRA1_KcEEEPT_DpOT0_EUlPS5_E_E6_M_ptrEv @1616
    _ZNSt15__uniq_ptr_implINSt7__cxx1112basic_stringIcSt11char_traitsIcESaIcEEEZN8nlohmann16json_abi_v3_11_310basic_jsonISt3mapSt6vectorS5_bxydSaNS7_14adl_serializerESA_IhSaIhEEvE6createIS5_JRA1_KcEEEPT_DpOT0_EUlPS5_E_E7releaseEv @1617
    _ZNSt15__uniq_ptr_implINSt7__cxx1112basic_stringIcSt11char_traitsIcESaIcEEEZN8nlohmann16json_abi_v3_11_310basic_jsonISt3mapSt6vectorS5_bxydSaNS7_14adl_serializerESA_IhSaIhEEvE6createIS5_JRA1_KcEEEPT_DpOT0_EUlPS5_E_EC2IRKSP_EESO_OSJ_ @1618
    _ZNSt15__uniq_ptr_implINSt7__cxx1112basic_stringIcSt11char_traitsIcESaIcEEEZN8nlohmann16json_abi_v3_11_310basic_jsonISt3mapSt6vectorS5_bxydSaNS7_14adl_serializerESA_IhSaIhEEvE6createIS5_JRKS5_EEEPT_DpOT0_EUlPS5_E_E10_M_deleterEv @1619
    _ZNSt15__uniq_ptr_implINSt7__cxx1112basic_stringIcSt11char_traitsIcESaIcEEEZN8nlohmann16json_abi_v3_11_310basic_jsonISt3mapSt6vectorS5_bxydSaNS7_14adl_serializerESA_IhSaIhEEvE6createIS5_JRKS5_EEEPT_DpOT0_EUlPS5_E_E6_M_ptrEv @1620
    _ZNSt15__uniq_ptr_implINSt7__cxx1112basic_stringIcSt11char_traitsIcESaIcEEEZN8nlohmann16json_abi_v3_11_310basic_jsonISt3mapSt6vectorS5_bxydSaNS7_14adl_serializerESA_IhSaIhEEvE6createIS5_JRKS5_EEEPT_DpOT0_EUlPS5_E_E7releaseEv @1621
    _ZNSt15__uniq_ptr_implINSt7__cxx1112basic_stringIcSt11char_traitsIcESaIcEEEZN8nlohmann16json_abi_v3_11_310basic_jsonISt3mapSt6vectorS5_bxydSaNS7_14adl_serializerESA_IhSaIhEEvE6createIS5_JRKS5_EEEPT_DpOT0_EUlPS5_E_EC2IRKSO_EESN_OSI_ @1622
    _ZNSt15__uniq_ptr_implISt3mapINSt7__cxx1112basic_stringIcSt11char_traitsIcESaIcEEEN8nlohmann16json_abi_v3_11_310basic_jsonIS0_St6vectorS6_bxydSaNS8_14adl_serializerESA_IhSaIhEEvEESt4lessIvESaISt4pairIKS6_SE_EEEZNSE_6createISL_JEEEPT_DpOT0_EUlPSL_E_E10_M_deleterEv @1623
    _ZNSt15__uniq_ptr_implISt3mapINSt7__cxx1112basic_stringIcSt11char_traitsIcESaIcEEEN8nlohmann16json_abi_v3_11_310basic_jsonIS0_St6vectorS6_bxydSaNS8_14adl_serializerESA_IhSaIhEEvEESt4lessIvESaISt4pairIKS6_SE_EEEZNSE_6createISL_JEEEPT_DpOT0_EUlPSL_E_E6_M_ptrEv @1624
    _ZNSt15__uniq_ptr_implISt3mapINSt7__cxx1112basic_stringIcSt11char_traitsIcESaIcEEEN8nlohmann16json_abi_v3_11_310basic_jsonIS0_St6vectorS6_bxydSaNS8_14adl_serializerESA_IhSaIhEEvEESt4lessIvESaISt4pairIKS6_SE_EEEZNSE_6createISL_JEEEPT_DpOT0_EUlPSL_E_E7releaseEv @1625
    _ZNSt15__uniq_ptr_implISt3mapINSt7__cxx1112basic_stringIcSt11char_traitsIcESaIcEEEN8nlohmann16json_abi_v3_11_310basic_jsonIS0_St6vectorS6_bxydSaNS8_14adl_serializerESA_IhSaIhEEvEESt4lessIvESaISt4pairIKS6_SE_EEEZNSE_6createISL_JEEEPT_DpOT0_EUlPSL_E_EC2IRKST_EESS_OSN_ @1626
    _ZNSt15__uniq_ptr_implISt3mapINSt7__cxx1112basic_stringIcSt11char_traitsIcESaIcEEEN8nlohmann16json_abi_v3_11_310basic_jsonIS0_St6vectorS6_bxydSaNS8_14adl_serializerESA_IhSaIhEEvEESt4lessIvESaISt4pairIKS6_SE_EEEZNSE_6createISL_JRKSL_EEEPT_DpOT0_EUlPSL_E_E10_M_deleterEv @1627
    _ZNSt15__uniq_ptr_implISt3mapINSt7__cxx1112basic_stringIcSt11char_traitsIcESaIcEEEN8nlohmann16json_abi_v3_11_310basic_jsonIS0_St6vectorS6_bxydSaNS8_14adl_serializerESA_IhSaIhEEvEESt4lessIvESaISt4pairIKS6_SE_EEEZNSE_6createISL_JRKSL_EEEPT_DpOT0_EUlPSL_E_E6_M_ptrEv @1628
    _ZNSt15__uniq_ptr_implISt3mapINSt7__cxx1112basic_stringIcSt11char_traitsIcESaIcEEEN8nlohmann16json_abi_v3_11_310basic_jsonIS0_St6vectorS6_bxydSaNS8_14adl_serializerESA_IhSaIhEEvEESt4lessIvESaISt4pairIKS6_SE_EEEZNSE_6createISL_JRKSL_EEEPT_DpOT0_EUlPSL_E_E7releaseEv @1629
    _ZNSt15__uniq_ptr_implISt3mapINSt7__cxx1112basic_stringIcSt11char_traitsIcESaIcEEEN8nlohmann16json_abi_v3_11_310basic_jsonIS0_St6vectorS6_bxydSaNS8_14adl_serializerESA_IhSaIhEEvEESt4lessIvESaISt4pairIKS6_SE_EEEZNSE_6createISL_JRKSL_EEEPT_DpOT0_EUlPSL_E_EC2IRKSV_EESU_OSP_ @1630
    _ZNSt15__uniq_ptr_implISt6vectorIN8nlohmann16json_abi_v3_11_310basic_jsonISt3mapS0_NSt7__cxx1112basic_stringIcSt11char_traitsIcESaIcEEEbxydSaNS2_14adl_serializerES0_IhSaIhEEvEESaISE_EEZNSE_6createISG_JEEEPT_DpOT0_EUlPSG_E_E10_M_deleterEv @1631
    _ZNSt15__uniq_ptr_implISt6vectorIN8nlohmann16json_abi_v3_11_310basic_jsonISt3mapS0_NSt7__cxx1112basic_stringIcSt11char_traitsIcESaIcEEEbxydSaNS2_14adl_serializerES0_IhSaIhEEvEESaISE_EEZNSE_6createISG_JEEEPT_DpOT0_EUlPSG_E_E6_M_ptrEv @1632
    _ZNSt15__uniq_ptr_implISt6vectorIN8nlohmann16json_abi_v3_11_310basic_jsonISt3mapS0_NSt7__cxx1112basic_stringIcSt11char_traitsIcESaIcEEEbxydSaNS2_14adl_serializerES0_IhSaIhEEvEESaISE_EEZNSE_6createISG_JEEEPT_DpOT0_EUlPSG_E_E7releaseEv @1633
    _ZNSt15__uniq_ptr_implISt6vectorIN8nlohmann16json_abi_v3_11_310basic_jsonISt3mapS0_NSt7__cxx1112basic_stringIcSt11char_traitsIcESaIcEEEbxydSaNS2_14adl_serializerES0_IhSaIhEEvEESaISE_EEZNSE_6createISG_JEEEPT_DpOT0_EUlPSG_E_EC2IRKSO_EESN_OSI_ @1634
    _ZNSt15__uniq_ptr_implISt6vectorIN8nlohmann16json_abi_v3_11_310basic_jsonISt3mapS0_NSt7__cxx1112basic_stringIcSt11char_traitsIcESaIcEEEbxydSaNS2_14adl_serializerES0_IhSaIhEEvEESaISE_EEZNSE_6createISG_JPKNS2_6detail8json_refISE_EESM_EEEPT_DpOT0_EUlPSG_E_E10_M_deleterEv @1635
    _ZNSt15__uniq_ptr_implISt6vectorIN8nlohmann16json_abi_v3_11_310basic_jsonISt3mapS0_NSt7__cxx1112basic_stringIcSt11char_traitsIcESaIcEEEbxydSaNS2_14adl_serializerES0_IhSaIhEEvEESaISE_EEZNSE_6createISG_JPKNS2_6detail8json_refISE_EESM_EEEPT_DpOT0_EUlPSG_E_E6_M_ptrEv @1636
    _ZNSt15__uniq_ptr_implISt6vectorIN8nlohmann16json_abi_v3_11_310basic_jsonISt3mapS0_NSt7__cxx1112basic_stringIcSt11char_traitsIcESaIcEEEbxydSaNS2_14adl_serializerES0_IhSaIhEEvEESaISE_EEZNSE_6createISG_JPKNS2_6detail8json_refISE_EESM_EEEPT_DpOT0_EUlPSG_E_E7releaseEv @1637
    _ZNSt15__uniq_ptr_implISt6vectorIN8nlohmann16json_abi_v3_11_310basic_jsonISt3mapS0_NSt7__cxx1112basic_stringIcSt11char_traitsIcESaIcEEEbxydSaNS2_14adl_serializerES0_IhSaIhEEvEESaISE_EEZNSE_6createISG_JPKNS2_6detail8json_refISE_EESM_EEEPT_DpOT0_EUlPSG_E_EC2IRKST_EESS_OSN_ @1638
    _ZNSt15__uniq_ptr_implISt6vectorIN8nlohmann16json_abi_v3_11_310basic_jsonISt3mapS0_NSt7__cxx1112basic_stringIcSt11char_traitsIcESaIcEEEbxydSaNS2_14adl_serializerES0_IhSaIhEEvEESaISE_EEZNSE_6createISG_JRKSG_EEEPT_DpOT0_EUlPSG_E_E10_M_deleterEv @1639
    _ZNSt15__uniq_ptr_implISt6vectorIN8nlohmann16json_abi_v3_11_310basic_jsonISt3mapS0_NSt7__cxx1112basic_stringIcSt11char_traitsIcESaIcEEEbxydSaNS2_14adl_serializerES0_IhSaIhEEvEESaISE_EEZNSE_6createISG_JRKSG_EEEPT_DpOT0_EUlPSG_E_E6_M_ptrEv @1640
    _ZNSt15__uniq_ptr_implISt6vectorIN8nlohmann16json_abi_v3_11_310basic_jsonISt3mapS0_NSt7__cxx1112basic_stringIcSt11char_traitsIcESaIcEEEbxydSaNS2_14adl_serializerES0_IhSaIhEEvEESaISE_EEZNSE_6createISG_JRKSG_EEEPT_DpOT0_EUlPSG_E_E7releaseEv @1641
    _ZNSt15__uniq_ptr_implISt6vectorIN8nlohmann16json_abi_v3_11_310basic_jsonISt3mapS0_NSt7__cxx1112basic_stringIcSt11char_traitsIcESaIcEEEbxydSaNS2_14adl_serializerES0_IhSaIhEEvEESaISE_EEZNSE_6createISG_JRKSG_EEEPT_DpOT0_EUlPSG_E_EC2IRKSQ_EESP_OSK_ @1642
    _ZNSt16_Sp_counted_baseILN9__gnu_cxx12_Lock_policyE2EE15_M_add_ref_copyEv @1643
    _ZNSt16_Sp_counted_baseILN9__gnu_cxx12_Lock_policyE2EE19_M_release_last_useEv @1644
    _ZNSt16_Sp_counted_baseILN9__gnu_cxx12_Lock_policyE2EEC2Ev @1645
    _ZNSt16_Sp_counted_baseILN9__gnu_cxx12_Lock_policyE2EED0Ev @1646
    _ZNSt16_Sp_counted_baseILN9__gnu_cxx12_Lock_policyE2EED2Ev @1647
    _ZNSt16allocator_traitsISaIN7CAN4CQF22CircularRotationBuffer9canfdInfoEEE10deallocateERS3_PS2_y @1648
    _ZNSt16allocator_traitsISaIN7CAN4CQF22CircularRotationBuffer9canfdInfoEEE7destroyIS2_EEvRS3_PT_ @1649
    _ZNSt16allocator_traitsISaIN7CAN4CQF22CircularRotationBuffer9canfdInfoEEE8allocateERS3_y @1650
    _ZNSt16allocator_traitsISaIN7CAN4CQF22CircularRotationBuffer9canfdInfoEEE8max_sizeERKS3_ @1651
    _ZNSt16allocator_traitsISaIN7CAN4CQF22CircularRotationBuffer9canfdInfoEEE9constructIS2_JRKS2_EEEvRS3_PT_DpOT0_ @1652
    _ZNSt16allocator_traitsISaIN7CAN4CQF24RAEGatewayTransformation10order_infoEEE10deallocateERS3_PS2_y @1653
    _ZNSt16allocator_traitsISaIN7CAN4CQF24RAEGatewayTransformation10order_infoEEE7destroyIS2_EEvRS3_PT_ @1654
    _ZNSt16allocator_traitsISaIN7CAN4CQF24RAEGatewayTransformation10order_infoEEE8allocateERS3_y @1655
    _ZNSt16allocator_traitsISaIN7CAN4CQF24RAEGatewayTransformation10order_infoEEE8max_sizeERKS3_ @1656
    _ZNSt16allocator_traitsISaIN7CAN4CQF24RAEGatewayTransformation10order_infoEEE9constructIS2_JRKS2_EEEvRS3_PT_DpOT0_ @1657
    _ZNSt16allocator_traitsISaIN8nlohmann16json_abi_v3_11_310basic_jsonISt3mapSt6vectorNSt7__cxx1112basic_stringIcSt11char_traitsIcESaIcEEEbxydSaNS1_14adl_serializerES4_IhSaIhEEvEEEE10deallocateERSF_PSE_y @1658
    _ZNSt16allocator_traitsISaIN8nlohmann16json_abi_v3_11_310basic_jsonISt3mapSt6vectorNSt7__cxx1112basic_stringIcSt11char_traitsIcESaIcEEEbxydSaNS1_14adl_serializerES4_IhSaIhEEvEEEE37select_on_container_copy_constructionERKSF_ @1659
    _ZNSt16allocator_traitsISaIN8nlohmann16json_abi_v3_11_310basic_jsonISt3mapSt6vectorNSt7__cxx1112basic_stringIcSt11char_traitsIcESaIcEEEbxydSaNS1_14adl_serializerES4_IhSaIhEEvEEEE7destroyISE_EEvRSF_PT_ @1660
    _ZNSt16allocator_traitsISaIN8nlohmann16json_abi_v3_11_310basic_jsonISt3mapSt6vectorNSt7__cxx1112basic_stringIcSt11char_traitsIcESaIcEEEbxydSaNS1_14adl_serializerES4_IhSaIhEEvEEEE8allocateERSF_y @1661
    _ZNSt16allocator_traitsISaIN8nlohmann16json_abi_v3_11_310basic_jsonISt3mapSt6vectorNSt7__cxx1112basic_stringIcSt11char_traitsIcESaIcEEEbxydSaNS1_14adl_serializerES4_IhSaIhEEvEEEE8max_sizeERKSF_ @1662
    _ZNSt16allocator_traitsISaIN8nlohmann16json_abi_v3_11_310basic_jsonISt3mapSt6vectorNSt7__cxx1112basic_stringIcSt11char_traitsIcESaIcEEEbxydSaNS1_14adl_serializerES4_IhSaIhEEvEEEE9constructISE_JRKSE_EEEvRSF_PT_DpOT0_ @1663
    _ZNSt16allocator_traitsISaIN8nlohmann16json_abi_v3_11_310basic_jsonISt3mapSt6vectorNSt7__cxx1112basic_stringIcSt11char_traitsIcESaIcEEEbxydSaNS1_14adl_serializerES4_IhSaIhEEvEEEE9constructISE_JSE_EEEvRSF_PT_DpOT0_ @1664
    _ZNSt16allocator_traitsISaIN8nlohmann16json_abi_v3_11_327byte_container_with_subtypeISt6vectorIhSaIhEEEEEE10deallocateERS7_PS6_y @1665
    _ZNSt16allocator_traitsISaIN8nlohmann16json_abi_v3_11_327byte_container_with_subtypeISt6vectorIhSaIhEEEEEE7destroyIS6_EEvRS7_PT_ @1666
    _ZNSt16allocator_traitsISaIN8nlohmann16json_abi_v3_11_327byte_container_with_subtypeISt6vectorIhSaIhEEEEEE8allocateERS7_y @1667
    _ZNSt16allocator_traitsISaIN8nlohmann16json_abi_v3_11_327byte_container_with_subtypeISt6vectorIhSaIhEEEEEE9constructIS6_JEEEvRS7_PT_DpOT0_ @1668
    _ZNSt16allocator_traitsISaIN8nlohmann16json_abi_v3_11_327byte_container_with_subtypeISt6vectorIhSaIhEEEEEE9constructIS6_JRKS6_EEEvRS7_PT_DpOT0_ @1669
    _ZNSt16allocator_traitsISaINSt7__cxx1112basic_stringIcSt11char_traitsIcESaIcEEEEE7destroyIS5_EEvRS6_PT_ @1670
    _ZNSt16allocator_traitsISaINSt7__cxx1112basic_stringIcSt11char_traitsIcESaIcEEEEE9constructIS5_JRA1_KcEEEvRS6_PT_DpOT0_ @1671
    _ZNSt16allocator_traitsISaINSt7__cxx1112basic_stringIcSt11char_traitsIcESaIcEEEEE9constructIS5_JRKS5_EEEvRS6_PT_DpOT0_ @1672
    _ZNSt16allocator_traitsISaINSt8__detail10_Hash_nodeISt4pairIKtNSt7__cxx114listIPN9CoRE4INET6BufferESaIS8_EEEELb0EEEEE10deallocateERSD_PSC_y @1673
    _ZNSt16allocator_traitsISaINSt8__detail10_Hash_nodeISt4pairIKtNSt7__cxx114listIPN9CoRE4INET6BufferESaIS8_EEEELb0EEEEE7destroyISB_EEvRSD_PT_ @1674
    _ZNSt16allocator_traitsISaINSt8__detail10_Hash_nodeISt4pairIKtNSt7__cxx114listIPN9CoRE4INET6BufferESaIS8_EEEELb0EEEEE8allocateERSD_y @1675
    _ZNSt16allocator_traitsISaINSt8__detail10_Hash_nodeISt4pairIKtNSt7__cxx114listIPN9CoRE4INET6BufferESaIS8_EEEELb0EEEEE9constructISB_JRKSt21piecewise_construct_tSt5tupleIJOtEESJ_IJEEEEEvRSD_PT_DpOT0_ @1676
    _ZNSt16allocator_traitsISaISt10_List_nodeIN7CAN4CQF21GatewayTransformation5QInfoEEEE10deallocateERS5_PS4_y @1677
    _ZNSt16allocator_traitsISaISt10_List_nodeIN7CAN4CQF21GatewayTransformation5QInfoEEEE7destroyIS3_EEvRS5_PT_ @1678
    _ZNSt16allocator_traitsISaISt10_List_nodeIN7CAN4CQF21GatewayTransformation5QInfoEEEE8allocateERS5_y @1679
    _ZNSt16allocator_traitsISaISt10_List_nodeIN7CAN4CQF21GatewayTransformation5QInfoEEEE9constructIS3_JRKS3_EEEvRS5_PT_DpOT0_ @1680
    _ZNSt16allocator_traitsISaISt10_List_nodeIN7CAN4CQF24EDFGatewayTransformation5QInfoEEEE10deallocateERS5_PS4_y @1681
    _ZNSt16allocator_traitsISaISt10_List_nodeIN7CAN4CQF24EDFGatewayTransformation5QInfoEEEE7destroyIS3_EEvRS5_PT_ @1682
    _ZNSt16allocator_traitsISaISt10_List_nodeIN7CAN4CQF24EDFGatewayTransformation5QInfoEEEE8allocateERS5_y @1683
    _ZNSt16allocator_traitsISaISt10_List_nodeIN7CAN4CQF24EDFGatewayTransformation5QInfoEEEE9constructIS3_JRKS3_EEEvRS5_PT_DpOT0_ @1684
    _ZNSt16allocator_traitsISaISt10_List_nodeIN7CAN4CQF24RAEGatewayTransformation5QInfoEEEE10deallocateERS5_PS4_y @1685
    _ZNSt16allocator_traitsISaISt10_List_nodeIN7CAN4CQF24RAEGatewayTransformation5QInfoEEEE7destroyIS3_EEvRS5_PT_ @1686
    _ZNSt16allocator_traitsISaISt10_List_nodeIN7CAN4CQF24RAEGatewayTransformation5QInfoEEEE8allocateERS5_y @1687
    _ZNSt16allocator_traitsISaISt10_List_nodeIN7CAN4CQF24RAEGatewayTransformation5QInfoEEEE9constructIS3_JRKS3_EEEvRS5_PT_DpOT0_ @1688
    _ZNSt16allocator_traitsISaISt10_List_nodeIN7CAN4CQF24VarGatewayTransformation5QInfoEEEE10deallocateERS5_PS4_y @1689
    _ZNSt16allocator_traitsISaISt10_List_nodeIN7CAN4CQF24VarGatewayTransformation5QInfoEEEE7destroyIS3_EEvRS5_PT_ @1690
    _ZNSt16allocator_traitsISaISt10_List_nodeIN7CAN4CQF24VarGatewayTransformation5QInfoEEEE8allocateERS5_y @1691
    _ZNSt16allocator_traitsISaISt10_List_nodeIN7CAN4CQF24VarGatewayTransformation5QInfoEEEE9constructIS3_JRKS3_EEEvRS5_PT_DpOT0_ @1692
    _ZNSt16allocator_traitsISaISt10_List_nodeIN7CAN4CQF28TimeoutGatewayTransformation5QInfoEEEE10deallocateERS5_PS4_y @1693
    _ZNSt16allocator_traitsISaISt10_List_nodeIN7CAN4CQF28TimeoutGatewayTransformation5QInfoEEEE7destroyIS3_EEvRS5_PT_ @1694
    _ZNSt16allocator_traitsISaISt10_List_nodeIN7CAN4CQF28TimeoutGatewayTransformation5QInfoEEEE8allocateERS5_y @1695
    _ZNSt16allocator_traitsISaISt10_List_nodeIN7CAN4CQF28TimeoutGatewayTransformation5QInfoEEEE9constructIS3_JRKS3_EEEvRS5_PT_DpOT0_ @1696
    _ZNSt16allocator_traitsISaISt10_List_nodeIPN9CoRE4INET6BufferEEEE10deallocateERS5_PS4_y @1697
    _ZNSt16allocator_traitsISaISt10_List_nodeIPN9CoRE4INET6BufferEEEE7destroyIS3_EEvRS5_PT_ @1698
    _ZNSt16allocator_traitsISaISt10_List_nodeIPN9CoRE4INET6BufferEEEE8allocateERS5_y @1699
    _ZNSt16allocator_traitsISaISt10_List_nodeIPN9CoRE4INET6BufferEEEE9constructIS3_JRKS3_EEEvRS5_PT_DpOT0_ @1700
    _ZNSt16allocator_traitsISaISt13_Rb_tree_nodeISt4pairIKNSt7__cxx1112basic_stringIcSt11char_traitsIcESaIcEEEN8nlohmann16json_abi_v3_11_310basic_jsonISt3mapSt6vectorS7_bxydSaNSA_14adl_serializerESD_IhSaIhEEvEEEEEE10deallocateERSK_PSJ_y @1701
    _ZNSt16allocator_traitsISaISt13_Rb_tree_nodeISt4pairIKNSt7__cxx1112basic_stringIcSt11char_traitsIcESaIcEEEN8nlohmann16json_abi_v3_11_310basic_jsonISt3mapSt6vectorS7_bxydSaNSA_14adl_serializerESD_IhSaIhEEvEEEEEE37select_on_container_copy_constructionERKSK_ @1702
    _ZNSt16allocator_traitsISaISt13_Rb_tree_nodeISt4pairIKNSt7__cxx1112basic_stringIcSt11char_traitsIcESaIcEEEN8nlohmann16json_abi_v3_11_310basic_jsonISt3mapSt6vectorS7_bxydSaNSA_14adl_serializerESD_IhSaIhEEvEEEEEE7destroyISI_EEvRSK_PT_ @1703
    _ZNSt16allocator_traitsISaISt13_Rb_tree_nodeISt4pairIKNSt7__cxx1112basic_stringIcSt11char_traitsIcESaIcEEEN8nlohmann16json_abi_v3_11_310basic_jsonISt3mapSt6vectorS7_bxydSaNSA_14adl_serializerESD_IhSaIhEEvEEEEEE8allocateERSK_y @1704
    _ZNSt16allocator_traitsISaISt13_Rb_tree_nodeISt4pairIKNSt7__cxx1112basic_stringIcSt11char_traitsIcESaIcEEEN8nlohmann16json_abi_v3_11_310basic_jsonISt3mapSt6vectorS7_bxydSaNSA_14adl_serializerESD_IhSaIhEEvEEEEEE9constructISI_JRKSI_EEEvRSK_PT_DpOT0_ @1705
    _ZNSt16allocator_traitsISaISt13_Rb_tree_nodeISt4pairIKNSt7__cxx1112basic_stringIcSt11char_traitsIcESaIcEEEN8nlohmann16json_abi_v3_11_310basic_jsonISt3mapSt6vectorS7_bxydSaNSA_14adl_serializerESD_IhSaIhEEvEEEEEE9constructISI_JS7_DnEEEvRSK_PT_DpOT0_ @1706
    _ZNSt16allocator_traitsISaISt13_Rb_tree_nodeISt4pairIKNSt7__cxx1112basic_stringIcSt11char_traitsIcESaIcEEEN8nlohmann16json_abi_v3_11_310basic_jsonISt3mapSt6vectorS7_bxydSaNSA_14adl_serializerESD_IhSaIhEEvEEEEEE9constructISI_JS7_SH_EEEvRSK_PT_DpOT0_ @1707
    _ZNSt16allocator_traitsISaISt13_Rb_tree_nodeISt4pairIKPN10FiCo4OMNeT12CanDataFrameEN7omnetpp7SimTimeEEEEE10deallocateERSA_PS9_y @1708
    _ZNSt16allocator_traitsISaISt13_Rb_tree_nodeISt4pairIKPN10FiCo4OMNeT12CanDataFrameEN7omnetpp7SimTimeEEEEE37select_on_container_copy_constructionERKSA_ @1709
    _ZNSt16allocator_traitsISaISt13_Rb_tree_nodeISt4pairIKPN10FiCo4OMNeT12CanDataFrameEN7omnetpp7SimTimeEEEEE7destroyIS8_EEvRSA_PT_ @1710
    _ZNSt16allocator_traitsISaISt13_Rb_tree_nodeISt4pairIKPN10FiCo4OMNeT12CanDataFrameEN7omnetpp7SimTimeEEEEE8allocateERSA_y @1711
    _ZNSt16allocator_traitsISaISt13_Rb_tree_nodeISt4pairIKPN10FiCo4OMNeT12CanDataFrameEN7omnetpp7SimTimeEEEEE9constructIS8_JRKS8_EEEvRSA_PT_DpOT0_ @1712
    _ZNSt16allocator_traitsISaISt13_Rb_tree_nodeISt4pairIKPN10FiCo4OMNeT12CanDataFrameEN7omnetpp7SimTimeEEEEE9constructIS8_JRKSt21piecewise_construct_tSt5tupleIJRS5_EESG_IJEEEEEvRSA_PT_DpOT0_ @1713
    _ZNSt16allocator_traitsISaISt13_Rb_tree_nodeISt4pairIKPN10FiCo4OMNeT12CanDataFrameEN7omnetpp7SimTimeEEEEE9constructIS8_JS1_IS4_S7_EEEEvRSA_PT_DpOT0_ @1714
    _ZNSt16allocator_traitsISaISt13_Rb_tree_nodeISt4pairIKPN10FiCo4OMNeT12CanDataFrameEdEEEE10deallocateERS8_PS7_y @1715
    _ZNSt16allocator_traitsISaISt13_Rb_tree_nodeISt4pairIKPN10FiCo4OMNeT12CanDataFrameEdEEEE37select_on_container_copy_constructionERKS8_ @1716
    _ZNSt16allocator_traitsISaISt13_Rb_tree_nodeISt4pairIKPN10FiCo4OMNeT12CanDataFrameEdEEEE7destroyIS6_EEvRS8_PT_ @1717
    _ZNSt16allocator_traitsISaISt13_Rb_tree_nodeISt4pairIKPN10FiCo4OMNeT12CanDataFrameEdEEEE8allocateERS8_y @1718
    _ZNSt16allocator_traitsISaISt13_Rb_tree_nodeISt4pairIKPN10FiCo4OMNeT12CanDataFrameEdEEEE9constructIS6_JRKS6_EEEvRS8_PT_DpOT0_ @1719
    _ZNSt16allocator_traitsISaISt13_Rb_tree_nodeISt4pairIKPN10FiCo4OMNeT12CanDataFrameEdEEEE9constructIS6_JRKSt21piecewise_construct_tSt5tupleIJRS5_EESE_IJEEEEEvRS8_PT_DpOT0_ @1720
    _ZNSt16allocator_traitsISaISt13_Rb_tree_nodeISt4pairIKPN10FiCo4OMNeT12CanDataFrameEdEEEE9constructIS6_JS1_IS4_dEEEEvRS8_PT_DpOT0_ @1721
    _ZNSt16allocator_traitsISaISt13_Rb_tree_nodeISt4pairIKiN7CAN4CQF22CircularRotationBuffer14wcrt_data_infoEEEEE10deallocateERS8_PS7_y @1722
    _ZNSt16allocator_traitsISaISt13_Rb_tree_nodeISt4pairIKiN7CAN4CQF22CircularRotationBuffer14wcrt_data_infoEEEEE7destroyIS6_EEvRS8_PT_ @1723
    _ZNSt16allocator_traitsISaISt13_Rb_tree_nodeISt4pairIKiN7CAN4CQF22CircularRotationBuffer14wcrt_data_infoEEEEE8allocateERS8_y @1724
    _ZNSt16allocator_traitsISaISt13_Rb_tree_nodeISt4pairIKiN7CAN4CQF22CircularRotationBuffer14wcrt_data_infoEEEEE9constructIS6_JRKSt21piecewise_construct_tSt5tupleIJRS2_EESE_IJEEEEEvRS8_PT_DpOT0_ @1725
    _ZNSt16allocator_traitsISaISt13_Rb_tree_nodeISt4pairIKiPNSt7__cxx114listIPN7omnetpp8cMessageESaIS7_EEEEEEE10deallocateERSD_PSC_y @1726
    _ZNSt16allocator_traitsISaISt13_Rb_tree_nodeISt4pairIKiPNSt7__cxx114listIPN7omnetpp8cMessageESaIS7_EEEEEEE7destroyISB_EEvRSD_PT_ @1727
    _ZNSt16allocator_traitsISaISt13_Rb_tree_nodeISt4pairIKiPNSt7__cxx114listIPN7omnetpp8cMessageESaIS7_EEEEEEE8allocateERSD_y @1728
    _ZNSt16allocator_traitsISaISt13_Rb_tree_nodeISt4pairIKiPNSt7__cxx114listIPN7omnetpp8cMessageESaIS7_EEEEEEE9constructISB_JRKSt21piecewise_construct_tSt5tupleIJOiEESJ_IJEEEEEvRSD_PT_DpOT0_ @1729
    _ZNSt16allocator_traitsISaISt13_Rb_tree_nodeISt4pairIKiPNSt7__cxx114listIPN7omnetpp8cMessageESaIS7_EEEEEEE9constructISB_JS1_IjSA_EEEEvRSD_PT_DpOT0_ @1730
    _ZNSt16allocator_traitsISaISt13_Rb_tree_nodeISt4pairIKjNSt7__cxx114listIN7CAN4CQF21GatewayTransformation5QInfoESaIS7_EEEEEEE10deallocateERSC_PSB_y @1731
    _ZNSt16allocator_traitsISaISt13_Rb_tree_nodeISt4pairIKjNSt7__cxx114listIN7CAN4CQF21GatewayTransformation5QInfoESaIS7_EEEEEEE7destroyISA_EEvRSC_PT_ @1732
    _ZNSt16allocator_traitsISaISt13_Rb_tree_nodeISt4pairIKjNSt7__cxx114listIN7CAN4CQF21GatewayTransformation5QInfoESaIS7_EEEEEEE8allocateERSC_y @1733
    _ZNSt16allocator_traitsISaISt13_Rb_tree_nodeISt4pairIKjNSt7__cxx114listIN7CAN4CQF21GatewayTransformation5QInfoESaIS7_EEEEEEE9constructISA_JRKSt21piecewise_construct_tSt5tupleIJOjEESI_IJEEEEEvRSC_PT_DpOT0_ @1734
    _ZNSt16allocator_traitsISaISt13_Rb_tree_nodeISt4pairIKjNSt7__cxx114listIN7CAN4CQF24EDFGatewayTransformation5QInfoESaIS7_EEEEEEE10deallocateERSC_PSB_y @1735
    _ZNSt16allocator_traitsISaISt13_Rb_tree_nodeISt4pairIKjNSt7__cxx114listIN7CAN4CQF24EDFGatewayTransformation5QInfoESaIS7_EEEEEEE7destroyISA_EEvRSC_PT_ @1736
    _ZNSt16allocator_traitsISaISt13_Rb_tree_nodeISt4pairIKjNSt7__cxx114listIN7CAN4CQF24EDFGatewayTransformation5QInfoESaIS7_EEEEEEE8allocateERSC_y @1737
    _ZNSt16allocator_traitsISaISt13_Rb_tree_nodeISt4pairIKjNSt7__cxx114listIN7CAN4CQF24EDFGatewayTransformation5QInfoESaIS7_EEEEEEE9constructISA_JRKSt21piecewise_construct_tSt5tupleIJOjEESI_IJEEEEEvRSC_PT_DpOT0_ @1738
    _ZNSt16allocator_traitsISaISt13_Rb_tree_nodeISt4pairIKjNSt7__cxx114listIN7CAN4CQF24RAEGatewayTransformation5QInfoESaIS7_EEEEEEE10deallocateERSC_PSB_y @1739
    _ZNSt16allocator_traitsISaISt13_Rb_tree_nodeISt4pairIKjNSt7__cxx114listIN7CAN4CQF24RAEGatewayTransformation5QInfoESaIS7_EEEEEEE7destroyISA_EEvRSC_PT_ @1740
    _ZNSt16allocator_traitsISaISt13_Rb_tree_nodeISt4pairIKjNSt7__cxx114listIN7CAN4CQF24RAEGatewayTransformation5QInfoESaIS7_EEEEEEE8allocateERSC_y @1741
    _ZNSt16allocator_traitsISaISt13_Rb_tree_nodeISt4pairIKjNSt7__cxx114listIN7CAN4CQF24RAEGatewayTransformation5QInfoESaIS7_EEEEEEE9constructISA_JRKSt21piecewise_construct_tSt5tupleIJOjEESI_IJEEEEEvRSC_PT_DpOT0_ @1742
    _ZNSt16allocator_traitsISaISt13_Rb_tree_nodeISt4pairIKjNSt7__cxx114listIN7CAN4CQF24VarGatewayTransformation5QInfoESaIS7_EEEEEEE10deallocateERSC_PSB_y @1743
    _ZNSt16allocator_traitsISaISt13_Rb_tree_nodeISt4pairIKjNSt7__cxx114listIN7CAN4CQF24VarGatewayTransformation5QInfoESaIS7_EEEEEEE7destroyISA_EEvRSC_PT_ @1744
    _ZNSt16allocator_traitsISaISt13_Rb_tree_nodeISt4pairIKjNSt7__cxx114listIN7CAN4CQF24VarGatewayTransformation5QInfoESaIS7_EEEEEEE8allocateERSC_y @1745
    _ZNSt16allocator_traitsISaISt13_Rb_tree_nodeISt4pairIKjNSt7__cxx114listIN7CAN4CQF24VarGatewayTransformation5QInfoESaIS7_EEEEEEE9constructISA_JRKSt21piecewise_construct_tSt5tupleIJOjEESI_IJEEEEEvRSC_PT_DpOT0_ @1746
    _ZNSt16allocator_traitsISaISt13_Rb_tree_nodeISt4pairIKjNSt7__cxx114listIN7CAN4CQF28TimeoutGatewayTransformation5QInfoESaIS7_EEEEEEE10deallocateERSC_PSB_y @1747
    _ZNSt16allocator_traitsISaISt13_Rb_tree_nodeISt4pairIKjNSt7__cxx114listIN7CAN4CQF28TimeoutGatewayTransformation5QInfoESaIS7_EEEEEEE7destroyISA_EEvRSC_PT_ @1748
    _ZNSt16allocator_traitsISaISt13_Rb_tree_nodeISt4pairIKjNSt7__cxx114listIN7CAN4CQF28TimeoutGatewayTransformation5QInfoESaIS7_EEEEEEE8allocateERSC_y @1749
    _ZNSt16allocator_traitsISaISt13_Rb_tree_nodeISt4pairIKjNSt7__cxx114listIN7CAN4CQF28TimeoutGatewayTransformation5QInfoESaIS7_EEEEEEE9constructISA_JRKSt21piecewise_construct_tSt5tupleIJOjEESI_IJEEEEEvRSC_PT_DpOT0_ @1750
    _ZNSt16allocator_traitsISaISt23_Sp_counted_ptr_inplaceIN8nlohmann16json_abi_v3_11_36detail21output_string_adapterIcNSt7__cxx1112basic_stringIcSt11char_traitsIcESaIcEEEEESaIvELN9__gnu_cxx12_Lock_policyE2EEEE10deallocateERSG_PSF_y @1751
    _ZNSt16allocator_traitsISaISt23_Sp_counted_ptr_inplaceIN8nlohmann16json_abi_v3_11_36detail21output_string_adapterIcNSt7__cxx1112basic_stringIcSt11char_traitsIcESaIcEEEEESaIvELN9__gnu_cxx12_Lock_policyE2EEEE8allocateERSG_y @1752
    _ZNSt16allocator_traitsISaISt3mapINSt7__cxx1112basic_stringIcSt11char_traitsIcESaIcEEEN8nlohmann16json_abi_v3_11_310basic_jsonIS0_St6vectorS6_bxydSaNS8_14adl_serializerESA_IhSaIhEEvEESt4lessIvESaISt4pairIKS6_SE_EEEEE10deallocateERSM_PSL_y @1753
    _ZNSt16allocator_traitsISaISt3mapINSt7__cxx1112basic_stringIcSt11char_traitsIcESaIcEEEN8nlohmann16json_abi_v3_11_310basic_jsonIS0_St6vectorS6_bxydSaNS8_14adl_serializerESA_IhSaIhEEvEESt4lessIvESaISt4pairIKS6_SE_EEEEE7destroyISL_EEvRSM_PT_ @1754
    _ZNSt16allocator_traitsISaISt3mapINSt7__cxx1112basic_stringIcSt11char_traitsIcESaIcEEEN8nlohmann16json_abi_v3_11_310basic_jsonIS0_St6vectorS6_bxydSaNS8_14adl_serializerESA_IhSaIhEEvEESt4lessIvESaISt4pairIKS6_SE_EEEEE8allocateERSM_y @1755
    _ZNSt16allocator_traitsISaISt3mapINSt7__cxx1112basic_stringIcSt11char_traitsIcESaIcEEEN8nlohmann16json_abi_v3_11_310basic_jsonIS0_St6vectorS6_bxydSaNS8_14adl_serializerESA_IhSaIhEEvEESt4lessIvESaISt4pairIKS6_SE_EEEEE9constructISL_JEEEvRSM_PT_DpOT0_ @1756
    _ZNSt16allocator_traitsISaISt3mapINSt7__cxx1112basic_stringIcSt11char_traitsIcESaIcEEEN8nlohmann16json_abi_v3_11_310basic_jsonIS0_St6vectorS6_bxydSaNS8_14adl_serializerESA_IhSaIhEEvEESt4lessIvESaISt4pairIKS6_SE_EEEEE9constructISL_JRKSL_EEEvRSM_PT_DpOT0_ @1757
    _ZNSt16allocator_traitsISaISt4pairIPN10FiCo4OMNeT12CanDataFrameEdEEE10deallocateERS5_PS4_y @1758
    _ZNSt16allocator_traitsISaISt4pairIPN10FiCo4OMNeT12CanDataFrameEdEEE7destroyIS4_EEvRS5_PT_ @1759
    _ZNSt16allocator_traitsISaISt4pairIPN10FiCo4OMNeT12CanDataFrameEdEEE8allocateERS5_y @1760
    _ZNSt16allocator_traitsISaISt4pairIPN10FiCo4OMNeT12CanDataFrameEdEEE8max_sizeERKS5_ @1761
    _ZNSt16allocator_traitsISaISt4pairIPN10FiCo4OMNeT12CanDataFrameEdEEE9constructIS4_JS4_EEEvRS5_PT_DpOT0_ @1762
    _ZNSt16allocator_traitsISaISt6vectorIN8nlohmann16json_abi_v3_11_310basic_jsonISt3mapS0_NSt7__cxx1112basic_stringIcSt11char_traitsIcESaIcEEEbxydSaNS2_14adl_serializerES0_IhSaIhEEvEESaISE_EEEE10deallocateERSH_PSG_y @1763
    _ZNSt16allocator_traitsISaISt6vectorIN8nlohmann16json_abi_v3_11_310basic_jsonISt3mapS0_NSt7__cxx1112basic_stringIcSt11char_traitsIcESaIcEEEbxydSaNS2_14adl_serializerES0_IhSaIhEEvEESaISE_EEEE7destroyISG_EEvRSH_PT_ @1764
    _ZNSt16allocator_traitsISaISt6vectorIN8nlohmann16json_abi_v3_11_310basic_jsonISt3mapS0_NSt7__cxx1112basic_stringIcSt11char_traitsIcESaIcEEEbxydSaNS2_14adl_serializerES0_IhSaIhEEvEESaISE_EEEE8allocateERSH_y @1765
    _ZNSt16allocator_traitsISaISt6vectorIN8nlohmann16json_abi_v3_11_310basic_jsonISt3mapS0_NSt7__cxx1112basic_stringIcSt11char_traitsIcESaIcEEEbxydSaNS2_14adl_serializerES0_IhSaIhEEvEESaISE_EEEE9constructISG_JEEEvRSH_PT_DpOT0_ @1766
    _ZNSt16allocator_traitsISaISt6vectorIN8nlohmann16json_abi_v3_11_310basic_jsonISt3mapS0_NSt7__cxx1112basic_stringIcSt11char_traitsIcESaIcEEEbxydSaNS2_14adl_serializerES0_IhSaIhEEvEESaISE_EEEE9constructISG_JPKNS2_6detail8json_refISE_EESO_EEEvRSH_PT_DpOT0_ @1767
    _ZNSt16allocator_traitsISaISt6vectorIN8nlohmann16json_abi_v3_11_310basic_jsonISt3mapS0_NSt7__cxx1112basic_stringIcSt11char_traitsIcESaIcEEEbxydSaNS2_14adl_serializerES0_IhSaIhEEvEESaISE_EEEE9constructISG_JRKSG_EEEvRSH_PT_DpOT0_ @1768
    _ZNSt16allocator_traitsISaIhEE10deallocateERS0_Phy @1769
    _ZNSt16allocator_traitsISaIhEE37select_on_container_copy_constructionERKS0_ @1770
    _ZNSt16allocator_traitsISaIhEE8allocateERS0_y @1771
    _ZNSt16allocator_traitsISaIiEE9constructIiJiEEEvRS0_PT_DpOT0_ @1772
    _ZNSt16allocator_traitsISaIvEE7destroyIN8nlohmann16json_abi_v3_11_36detail21output_string_adapterIcNSt7__cxx1112basic_stringIcSt11char_traitsIcESaIcEEEEEEEvRS0_PT_ @1773
    _ZNSt16allocator_traitsISaIvEE9constructIN8nlohmann16json_abi_v3_11_36detail21output_string_adapterIcNSt7__cxx1112basic_stringIcSt11char_traitsIcESaIcEEEEEJRSC_EEEvRS0_PT_DpOT0_ @1774
    _ZNSt16initializer_listIN8nlohmann16json_abi_v3_11_36detail8json_refINS1_10basic_jsonISt3mapSt6vectorNSt7__cxx1112basic_stringIcSt11char_traitsIcESaIcEEEbxydSaNS1_14adl_serializerES6_IhSaIhEEvEEEEEC2Ev @1775
    _ZNSt16reverse_iteratorIN9__gnu_cxx17__normal_iteratorIPN7CAN4CQF24RAEGatewayTransformation10order_infoESt6vectorIS4_SaIS4_EEEEE13_S_to_pointerIS9_EES5_T_ @1776
    _ZNSt16reverse_iteratorIN9__gnu_cxx17__normal_iteratorIPN7CAN4CQF24RAEGatewayTransformation10order_infoESt6vectorIS4_SaIS4_EEEEEC2ES9_ @1777
    _ZNSt16reverse_iteratorIN9__gnu_cxx17__normal_iteratorIPN7CAN4CQF24RAEGatewayTransformation10order_infoESt6vectorIS4_SaIS4_EEEEEppEv @1778
    _ZNSt16reverse_iteratorIN9__gnu_cxx17__normal_iteratorIPiSt6vectorIiSaIiEEEEEC2ES6_ @1779
    _ZNSt16reverse_iteratorIN9__gnu_cxx17__normal_iteratorIPiSt6vectorIiSaIiEEEEEppEv @1780
    _ZNSt17_Rb_tree_iteratorISt4pairIKNSt7__cxx1112basic_stringIcSt11char_traitsIcESaIcEEEN8nlohmann16json_abi_v3_11_310basic_jsonISt3mapSt6vectorS6_bxydSaNS9_14adl_serializerESC_IhSaIhEEvEEEEC2EPSt18_Rb_tree_node_base @1781
    _ZNSt17_Rb_tree_iteratorISt4pairIKNSt7__cxx1112basic_stringIcSt11char_traitsIcESaIcEEEN8nlohmann16json_abi_v3_11_310basic_jsonISt3mapSt6vectorS6_bxydSaNS9_14adl_serializerESC_IhSaIhEEvEEEEmmEv @1782
    _ZNSt17_Rb_tree_iteratorISt4pairIKNSt7__cxx1112basic_stringIcSt11char_traitsIcESaIcEEEN8nlohmann16json_abi_v3_11_310basic_jsonISt3mapSt6vectorS6_bxydSaNS9_14adl_serializerESC_IhSaIhEEvEEEEppEv @1783
    _ZNSt17_Rb_tree_iteratorISt4pairIKPN10FiCo4OMNeT12CanDataFrameEN7omnetpp7SimTimeEEEC2EPSt18_Rb_tree_node_base @1784
    _ZNSt17_Rb_tree_iteratorISt4pairIKPN10FiCo4OMNeT12CanDataFrameEN7omnetpp7SimTimeEEEmmEv @1785
    _ZNSt17_Rb_tree_iteratorISt4pairIKPN10FiCo4OMNeT12CanDataFrameEN7omnetpp7SimTimeEEEppEv @1786
    _ZNSt17_Rb_tree_iteratorISt4pairIKPN10FiCo4OMNeT12CanDataFrameEdEEC2EPSt18_Rb_tree_node_base @1787
    _ZNSt17_Rb_tree_iteratorISt4pairIKPN10FiCo4OMNeT12CanDataFrameEdEEmmEv @1788
    _ZNSt17_Rb_tree_iteratorISt4pairIKPN10FiCo4OMNeT12CanDataFrameEdEEppEv @1789
    _ZNSt17_Rb_tree_iteratorISt4pairIKiN7CAN4CQF22CircularRotationBuffer14wcrt_data_infoEEEC2EPSt18_Rb_tree_node_base @1790
    _ZNSt17_Rb_tree_iteratorISt4pairIKiN7CAN4CQF22CircularRotationBuffer14wcrt_data_infoEEEmmEv @1791
    _ZNSt17_Rb_tree_iteratorISt4pairIKiN7CAN4CQF22CircularRotationBuffer14wcrt_data_infoEEEppEv @1792
    _ZNSt17_Rb_tree_iteratorISt4pairIKiPNSt7__cxx114listIPN7omnetpp8cMessageESaIS6_EEEEEC2EPSt18_Rb_tree_node_base @1793
    _ZNSt17_Rb_tree_iteratorISt4pairIKiPNSt7__cxx114listIPN7omnetpp8cMessageESaIS6_EEEEEmmEv @1794
    _ZNSt17_Rb_tree_iteratorISt4pairIKiPNSt7__cxx114listIPN7omnetpp8cMessageESaIS6_EEEEEppEv @1795
    _ZNSt17_Rb_tree_iteratorISt4pairIKjNSt7__cxx114listIN7CAN4CQF21GatewayTransformation5QInfoESaIS6_EEEEEC2EPSt18_Rb_tree_node_base @1796
    _ZNSt17_Rb_tree_iteratorISt4pairIKjNSt7__cxx114listIN7CAN4CQF21GatewayTransformation5QInfoESaIS6_EEEEEmmEv @1797
    _ZNSt17_Rb_tree_iteratorISt4pairIKjNSt7__cxx114listIN7CAN4CQF21GatewayTransformation5QInfoESaIS6_EEEEEppEv @1798
    _ZNSt17_Rb_tree_iteratorISt4pairIKjNSt7__cxx114listIN7CAN4CQF24EDFGatewayTransformation5QInfoESaIS6_EEEEEC2EPSt18_Rb_tree_node_base @1799
    _ZNSt17_Rb_tree_iteratorISt4pairIKjNSt7__cxx114listIN7CAN4CQF24EDFGatewayTransformation5QInfoESaIS6_EEEEEmmEv @1800
    _ZNSt17_Rb_tree_iteratorISt4pairIKjNSt7__cxx114listIN7CAN4CQF24EDFGatewayTransformation5QInfoESaIS6_EEEEEppEv @1801
    _ZNSt17_Rb_tree_iteratorISt4pairIKjNSt7__cxx114listIN7CAN4CQF24RAEGatewayTransformation5QInfoESaIS6_EEEEEC2EPSt18_Rb_tree_node_base @1802
    _ZNSt17_Rb_tree_iteratorISt4pairIKjNSt7__cxx114listIN7CAN4CQF24RAEGatewayTransformation5QInfoESaIS6_EEEEEmmEv @1803
    _ZNSt17_Rb_tree_iteratorISt4pairIKjNSt7__cxx114listIN7CAN4CQF24RAEGatewayTransformation5QInfoESaIS6_EEEEEppEv @1804
    _ZNSt17_Rb_tree_iteratorISt4pairIKjNSt7__cxx114listIN7CAN4CQF24VarGatewayTransformation5QInfoESaIS6_EEEEEC2EPSt18_Rb_tree_node_base @1805
    _ZNSt17_Rb_tree_iteratorISt4pairIKjNSt7__cxx114listIN7CAN4CQF24VarGatewayTransformation5QInfoESaIS6_EEEEEmmEv @1806
    _ZNSt17_Rb_tree_iteratorISt4pairIKjNSt7__cxx114listIN7CAN4CQF24VarGatewayTransformation5QInfoESaIS6_EEEEEppEv @1807
    _ZNSt17_Rb_tree_iteratorISt4pairIKjNSt7__cxx114listIN7CAN4CQF28TimeoutGatewayTransformation5QInfoESaIS6_EEEEEC2EPSt18_Rb_tree_node_base @1808
    _ZNSt17_Rb_tree_iteratorISt4pairIKjNSt7__cxx114listIN7CAN4CQF28TimeoutGatewayTransformation5QInfoESaIS6_EEEEEmmEv @1809
    _ZNSt17_Rb_tree_iteratorISt4pairIKjNSt7__cxx114listIN7CAN4CQF28TimeoutGatewayTransformation5QInfoESaIS6_EEEEEppEv @1810
    _ZNSt19_Sp_make_shared_tag5_S_tiEv @1811
    _ZNSt19__ptr_traits_ptr_toIPNSt8__detail10_Hash_nodeISt4pairIKtNSt7__cxx114listIPN9CoRE4INET6BufferESaIS8_EEEELb0EEESC_Lb0EE10pointer_toERSC_ @1812
    _ZNSt20_List_const_iteratorIPN10FiCo4OMNeT12CanDataFrameEEC2ERKSt14_List_iteratorIS2_E @1813
    _ZNSt20_Rb_tree_key_compareISt4lessIPN10FiCo4OMNeT12CanDataFrameEEEC2ERKS4_ @1814
    _ZNSt20_Rb_tree_key_compareISt4lessIPN10FiCo4OMNeT12CanDataFrameEEEC2Ev @1815
    _ZNSt20_Rb_tree_key_compareISt4lessIvEEC2ERKS1_ @1816
    _ZNSt20_Rb_tree_key_compareISt4lessIvEEC2Ev @1817
    _ZNSt20__copy_move_backwardILb1ELb0ESt26random_access_iterator_tagE13__copy_move_bIPN7CAN4CQF24RAEGatewayTransformation10order_infoES6_EET0_T_S8_S7_ @1818
    _ZNSt20__copy_move_backwardILb1ELb0ESt26random_access_iterator_tagE13__copy_move_bIPSt4pairIPN10FiCo4OMNeT12CanDataFrameEdES8_EET0_T_SA_S9_ @1819
    _ZNSt20__uninitialized_copyILb0EE13__uninit_copyIN9__gnu_cxx17__normal_iteratorIPKN8nlohmann16json_abi_v3_11_310basic_jsonISt3mapSt6vectorNSt7__cxx1112basic_stringIcSt11char_traitsIcESaIcEEEbxydSaNS5_14adl_serializerES8_IhSaIhEEvEES8_ISI_SaISI_EEEEPSI_EET0_T_SQ_SP_ @1820
    _ZNSt20__uninitialized_copyILb0EE13__uninit_copyIPKN7CAN4CQF22CircularRotationBuffer9canfdInfoEPS4_EET0_T_S9_S8_ @1821
    _ZNSt20__uninitialized_copyILb0EE13__uninit_copyIPKN7CAN4CQF24RAEGatewayTransformation10order_infoEPS4_EET0_T_S9_S8_ @1822
    _ZNSt20__uninitialized_copyILb0EE13__uninit_copyIPKN8nlohmann16json_abi_v3_11_36detail8json_refINS3_10basic_jsonISt3mapSt6vectorNSt7__cxx1112basic_stringIcSt11char_traitsIcESaIcEEEbxydSaNS3_14adl_serializerES8_IhSaIhEEvEEEEPSI_EET0_T_SO_SN_ @1823
    _ZNSt20__uninitialized_copyILb1EE13__uninit_copyIN9__gnu_cxx17__normal_iteratorIPKhSt6vectorIhSaIhEEEEPhEET0_T_SC_SB_ @1824
    _ZNSt20back_insert_iteratorISt6vectorIN8nlohmann16json_abi_v3_11_310basic_jsonISt3mapS0_NSt7__cxx1112basic_stringIcSt11char_traitsIcESaIcEEEbxydSaNS2_14adl_serializerES0_IhSaIhEEvEESaISE_EEEC2ERSG_ @1825
    _ZNSt20back_insert_iteratorISt6vectorIN8nlohmann16json_abi_v3_11_310basic_jsonISt3mapS0_NSt7__cxx1112basic_stringIcSt11char_traitsIcESaIcEEEbxydSaNS2_14adl_serializerES0_IhSaIhEEvEESaISE_EEEaSEOSE_ @1826
    _ZNSt20back_insert_iteratorISt6vectorIN8nlohmann16json_abi_v3_11_310basic_jsonISt3mapS0_NSt7__cxx1112basic_stringIcSt11char_traitsIcESaIcEEEbxydSaNS2_14adl_serializerES0_IhSaIhEEvEESaISE_EEEdeEv @1827
    _ZNSt20back_insert_iteratorISt6vectorIN8nlohmann16json_abi_v3_11_310basic_jsonISt3mapS0_NSt7__cxx1112basic_stringIcSt11char_traitsIcESaIcEEEbxydSaNS2_14adl_serializerES0_IhSaIhEEvEESaISE_EEEppEv @1828
    _ZNSt23_Rb_tree_const_iteratorISt4pairIKNSt7__cxx1112basic_stringIcSt11char_traitsIcESaIcEEEN8nlohmann16json_abi_v3_11_310basic_jsonISt3mapSt6vectorS6_bxydSaNS9_14adl_serializerESC_IhSaIhEEvEEEEC2EPKSt18_Rb_tree_node_base @1829
    _ZNSt23_Rb_tree_const_iteratorISt4pairIKNSt7__cxx1112basic_stringIcSt11char_traitsIcESaIcEEEN8nlohmann16json_abi_v3_11_310basic_jsonISt3mapSt6vectorS6_bxydSaNS9_14adl_serializerESC_IhSaIhEEvEEEEmmEv @1830
    _ZNSt23_Rb_tree_const_iteratorISt4pairIKNSt7__cxx1112basic_stringIcSt11char_traitsIcESaIcEEEN8nlohmann16json_abi_v3_11_310basic_jsonISt3mapSt6vectorS6_bxydSaNS9_14adl_serializerESC_IhSaIhEEvEEEEppEv @1831
    _ZNSt23_Rb_tree_const_iteratorISt4pairIKPN10FiCo4OMNeT12CanDataFrameEN7omnetpp7SimTimeEEEC2ERKSt17_Rb_tree_iteratorIS7_E @1832
    _ZNSt23_Rb_tree_const_iteratorISt4pairIKPN10FiCo4OMNeT12CanDataFrameEN7omnetpp7SimTimeEEEppEi @1833
    _ZNSt23_Rb_tree_const_iteratorISt4pairIKPN10FiCo4OMNeT12CanDataFrameEdEEC2EPKSt18_Rb_tree_node_base @1834
    _ZNSt23_Rb_tree_const_iteratorISt4pairIKPN10FiCo4OMNeT12CanDataFrameEdEEC2ERKSt17_Rb_tree_iteratorIS5_E @1835
    _ZNSt23_Rb_tree_const_iteratorISt4pairIKPN10FiCo4OMNeT12CanDataFrameEdEEppEv @1836
    _ZNSt23_Rb_tree_const_iteratorISt4pairIKiN7CAN4CQF22CircularRotationBuffer14wcrt_data_infoEEEC2ERKSt17_Rb_tree_iteratorIS5_E @1837
    _ZNSt23_Rb_tree_const_iteratorISt4pairIKiPNSt7__cxx114listIPN7omnetpp8cMessageESaIS6_EEEEEC2ERKSt17_Rb_tree_iteratorISA_E @1838
    _ZNSt23_Rb_tree_const_iteratorISt4pairIKjNSt7__cxx114listIN7CAN4CQF21GatewayTransformation5QInfoESaIS6_EEEEEC2ERKSt17_Rb_tree_iteratorIS9_E @1839
    _ZNSt23_Rb_tree_const_iteratorISt4pairIKjNSt7__cxx114listIN7CAN4CQF24EDFGatewayTransformation5QInfoESaIS6_EEEEEC2ERKSt17_Rb_tree_iteratorIS9_E @1840
    _ZNSt23_Rb_tree_const_iteratorISt4pairIKjNSt7__cxx114listIN7CAN4CQF24RAEGatewayTransformation5QInfoESaIS6_EEEEEC2ERKSt17_Rb_tree_iteratorIS9_E @1841
    _ZNSt23_Rb_tree_const_iteratorISt4pairIKjNSt7__cxx114listIN7CAN4CQF24VarGatewayTransformation5QInfoESaIS6_EEEEEC2ERKSt17_Rb_tree_iteratorIS9_E @1842
    _ZNSt23_Rb_tree_const_iteratorISt4pairIKjNSt7__cxx114listIN7CAN4CQF28TimeoutGatewayTransformation5QInfoESaIS6_EEEEEC2ERKSt17_Rb_tree_iteratorIS9_E @1843
    _ZNSt23_Sp_counted_ptr_inplaceIN8nlohmann16json_abi_v3_11_36detail21output_string_adapterIcNSt7__cxx1112basic_stringIcSt11char_traitsIcESaIcEEEEESaIvELN9__gnu_cxx12_Lock_policyE2EE10_M_destroyEv @1844
    _ZNSt23_Sp_counted_ptr_inplaceIN8nlohmann16json_abi_v3_11_36detail21output_string_adapterIcNSt7__cxx1112basic_stringIcSt11char_traitsIcESaIcEEEEESaIvELN9__gnu_cxx12_Lock_policyE2EE10_M_disposeEv @1845
    _ZNSt23_Sp_counted_ptr_inplaceIN8nlohmann16json_abi_v3_11_36detail21output_string_adapterIcNSt7__cxx1112basic_stringIcSt11char_traitsIcESaIcEEEEESaIvELN9__gnu_cxx12_Lock_policyE2EE14_M_get_deleterERKSt9type_info @1846
    _ZNSt23_Sp_counted_ptr_inplaceIN8nlohmann16json_abi_v3_11_36detail21output_string_adapterIcNSt7__cxx1112basic_stringIcSt11char_traitsIcESaIcEEEEESaIvELN9__gnu_cxx12_Lock_policyE2EE5_Impl8_M_allocEv @1847
    _ZNSt23_Sp_counted_ptr_inplaceIN8nlohmann16json_abi_v3_11_36detail21output_string_adapterIcNSt7__cxx1112basic_stringIcSt11char_traitsIcESaIcEEEEESaIvELN9__gnu_cxx12_Lock_policyE2EE5_ImplC2ESB_ @1848
    _ZNSt23_Sp_counted_ptr_inplaceIN8nlohmann16json_abi_v3_11_36detail21output_string_adapterIcNSt7__cxx1112basic_stringIcSt11char_traitsIcESaIcEEEEESaIvELN9__gnu_cxx12_Lock_policyE2EE6_M_ptrEv @1849
    _ZNSt23_Sp_counted_ptr_inplaceIN8nlohmann16json_abi_v3_11_36detail21output_string_adapterIcNSt7__cxx1112basic_stringIcSt11char_traitsIcESaIcEEEEESaIvELN9__gnu_cxx12_Lock_policyE2EEC2IJRS9_EEESB_DpOT_ @1850
    _ZNSt23_Sp_counted_ptr_inplaceIN8nlohmann16json_abi_v3_11_36detail21output_string_adapterIcNSt7__cxx1112basic_stringIcSt11char_traitsIcESaIcEEEEESaIvELN9__gnu_cxx12_Lock_policyE2EED0Ev @1851
    _ZNSt23_Sp_counted_ptr_inplaceIN8nlohmann16json_abi_v3_11_36detail21output_string_adapterIcNSt7__cxx1112basic_stringIcSt11char_traitsIcESaIcEEEEESaIvELN9__gnu_cxx12_Lock_policyE2EED2Ev @1852
    _ZNSt3_V26rotateIN9__gnu_cxx17__normal_iteratorIPN7CAN4CQF24RAEGatewayTransformation10order_infoESt6vectorIS5_SaIS5_EEEEEET_SB_SB_SB_ @1853
    _ZNSt3_V28__rotateIN9__gnu_cxx17__normal_iteratorIPN7CAN4CQF24RAEGatewayTransformation10order_infoESt6vectorIS5_SaIS5_EEEEEET_SB_SB_SB_St26random_access_iterator_tag @1854
    _ZNSt3mapINSt7__cxx1112basic_stringIcSt11char_traitsIcESaIcEEEN8nlohmann16json_abi_v3_11_310basic_jsonIS_St6vectorS5_bxydSaNS7_14adl_serializerES9_IhSaIhEEvEESt4lessIvESaISt4pairIKS5_SD_EEE3endEv @1855
    _ZNSt3mapINSt7__cxx1112basic_stringIcSt11char_traitsIcESaIcEEEN8nlohmann16json_abi_v3_11_310basic_jsonIS_St6vectorS5_bxydSaNS7_14adl_serializerES9_IhSaIhEEvEESt4lessIvESaISt4pairIKS5_SD_EEE5beginEv @1856
    _ZNSt3mapINSt7__cxx1112basic_stringIcSt11char_traitsIcESaIcEEEN8nlohmann16json_abi_v3_11_310basic_jsonIS_St6vectorS5_bxydSaNS7_14adl_serializerES9_IhSaIhEEvEESt4lessIvESaISt4pairIKS5_SD_EEE5clearEv @1857
    _ZNSt3mapINSt7__cxx1112basic_stringIcSt11char_traitsIcESaIcEEEN8nlohmann16json_abi_v3_11_310basic_jsonIS_St6vectorS5_bxydSaNS7_14adl_serializerES9_IhSaIhEEvEESt4lessIvESaISt4pairIKS5_SD_EEE7emplaceIJS5_DnEEESG_ISt17_Rb_tree_iteratorISI_EbEDpOT_ @1858
    _ZNSt3mapINSt7__cxx1112basic_stringIcSt11char_traitsIcESaIcEEEN8nlohmann16json_abi_v3_11_310basic_jsonIS_St6vectorS5_bxydSaNS7_14adl_serializerES9_IhSaIhEEvEESt4lessIvESaISt4pairIKS5_SD_EEE7emplaceIJS5_SD_EEESG_ISt17_Rb_tree_iteratorISI_EbEDpOT_ @1859
    _ZNSt3mapINSt7__cxx1112basic_stringIcSt11char_traitsIcESaIcEEEN8nlohmann16json_abi_v3_11_310basic_jsonIS_St6vectorS5_bxydSaNS7_14adl_serializerES9_IhSaIhEEvEESt4lessIvESaISt4pairIKS5_SD_EEEC2ERKSK_ @1860
    _ZNSt3mapINSt7__cxx1112basic_stringIcSt11char_traitsIcESaIcEEEN8nlohmann16json_abi_v3_11_310basic_jsonIS_St6vectorS5_bxydSaNS7_14adl_serializerES9_IhSaIhEEvEESt4lessIvESaISt4pairIKS5_SD_EEEC2Ev @1861
    _ZNSt3mapINSt7__cxx1112basic_stringIcSt11char_traitsIcESaIcEEEN8nlohmann16json_abi_v3_11_310basic_jsonIS_St6vectorS5_bxydSaNS7_14adl_serializerES9_IhSaIhEEvEESt4lessIvESaISt4pairIKS5_SD_EEED2Ev @1862
    _ZNSt3mapIPN10FiCo4OMNeT12CanDataFrameEN7omnetpp7SimTimeESt4lessIS2_ESaISt4pairIKS2_S4_EEE11lower_boundERS8_ @1863
    _ZNSt3mapIPN10FiCo4OMNeT12CanDataFrameEN7omnetpp7SimTimeESt4lessIS2_ESaISt4pairIKS2_S4_EEE3endEv @1864
    _ZNSt3mapIPN10FiCo4OMNeT12CanDataFrameEN7omnetpp7SimTimeESt4lessIS2_ESaISt4pairIKS2_S4_EEE5beginEv @1865
    _ZNSt3mapIPN10FiCo4OMNeT12CanDataFrameEN7omnetpp7SimTimeESt4lessIS2_ESaISt4pairIKS2_S4_EEE5clearEv @1866
    _ZNSt3mapIPN10FiCo4OMNeT12CanDataFrameEN7omnetpp7SimTimeESt4lessIS2_ESaISt4pairIKS2_S4_EEE5eraseERS8_ @1867
    _ZNSt3mapIPN10FiCo4OMNeT12CanDataFrameEN7omnetpp7SimTimeESt4lessIS2_ESaISt4pairIKS2_S4_EEE6insertIS7_IS2_S4_EEENSt9enable_ifIXsr16is_constructibleIS9_T_EE5valueES7_ISt17_Rb_tree_iteratorIS9_EbEE4typeEOSF_ @1868
    _ZNSt3mapIPN10FiCo4OMNeT12CanDataFrameEN7omnetpp7SimTimeESt4lessIS2_ESaISt4pairIKS2_S4_EEEC2ERKSB_ @1869
    _ZNSt3mapIPN10FiCo4OMNeT12CanDataFrameEN7omnetpp7SimTimeESt4lessIS2_ESaISt4pairIKS2_S4_EEEC2Ev @1870
    _ZNSt3mapIPN10FiCo4OMNeT12CanDataFrameEN7omnetpp7SimTimeESt4lessIS2_ESaISt4pairIKS2_S4_EEED2Ev @1871
    _ZNSt3mapIPN10FiCo4OMNeT12CanDataFrameEN7omnetpp7SimTimeESt4lessIS2_ESaISt4pairIKS2_S4_EEEaSEOSB_ @1872
    _ZNSt3mapIPN10FiCo4OMNeT12CanDataFrameEN7omnetpp7SimTimeESt4lessIS2_ESaISt4pairIKS2_S4_EEEixERS8_ @1873
    _ZNSt3mapIPN10FiCo4OMNeT12CanDataFrameEdSt4lessIS2_ESaISt4pairIKS2_dEEE11lower_boundERS6_ @1874
    _ZNSt3mapIPN10FiCo4OMNeT12CanDataFrameEdSt4lessIS2_ESaISt4pairIKS2_dEEE3endEv @1875
    _ZNSt3mapIPN10FiCo4OMNeT12CanDataFrameEdSt4lessIS2_ESaISt4pairIKS2_dEEE4findERS6_ @1876
    _ZNSt3mapIPN10FiCo4OMNeT12CanDataFrameEdSt4lessIS2_ESaISt4pairIKS2_dEEE5beginEv @1877
    _ZNSt3mapIPN10FiCo4OMNeT12CanDataFrameEdSt4lessIS2_ESaISt4pairIKS2_dEEE5clearEv @1878
    _ZNSt3mapIPN10FiCo4OMNeT12CanDataFrameEdSt4lessIS2_ESaISt4pairIKS2_dEEE6insertIS5_IS2_dEEENSt9enable_ifIXsr16is_constructibleIS7_T_EE5valueES5_ISt17_Rb_tree_iteratorIS7_EbEE4typeEOSD_ @1879
    _ZNSt3mapIPN10FiCo4OMNeT12CanDataFrameEdSt4lessIS2_ESaISt4pairIKS2_dEEEC2ERKS9_ @1880
    _ZNSt3mapIPN10FiCo4OMNeT12CanDataFrameEdSt4lessIS2_ESaISt4pairIKS2_dEEEC2Ev @1881
    _ZNSt3mapIPN10FiCo4OMNeT12CanDataFrameEdSt4lessIS2_ESaISt4pairIKS2_dEEED2Ev @1882
    _ZNSt3mapIPN10FiCo4OMNeT12CanDataFrameEdSt4lessIS2_ESaISt4pairIKS2_dEEEaSEOS9_ @1883
    _ZNSt3mapIPN10FiCo4OMNeT12CanDataFrameEdSt4lessIS2_ESaISt4pairIKS2_dEEEaSERKS9_ @1884
    _ZNSt3mapIPN10FiCo4OMNeT12CanDataFrameEdSt4lessIS2_ESaISt4pairIKS2_dEEEixERS6_ @1885
    _ZNSt3mapIiN7CAN4CQF22CircularRotationBuffer14wcrt_data_infoESt4lessIiESaISt4pairIKiS2_EEE11lower_boundERS6_ @1886
    _ZNSt3mapIiN7CAN4CQF22CircularRotationBuffer14wcrt_data_infoESt4lessIiESaISt4pairIKiS2_EEE3endEv @1887
    _ZNSt3mapIiN7CAN4CQF22CircularRotationBuffer14wcrt_data_infoESt4lessIiESaISt4pairIKiS2_EEE4findERS6_ @1888
    _ZNSt3mapIiN7CAN4CQF22CircularRotationBuffer14wcrt_data_infoESt4lessIiESaISt4pairIKiS2_EEE5beginEv @1889
    _ZNSt3mapIiN7CAN4CQF22CircularRotationBuffer14wcrt_data_infoESt4lessIiESaISt4pairIKiS2_EEEC2Ev @1890
    _ZNSt3mapIiN7CAN4CQF22CircularRotationBuffer14wcrt_data_infoESt4lessIiESaISt4pairIKiS2_EEED2Ev @1891
    _ZNSt3mapIiN7CAN4CQF22CircularRotationBuffer14wcrt_data_infoESt4lessIiESaISt4pairIKiS2_EEEixERS6_ @1892
    _ZNSt3mapIiPNSt7__cxx114listIPN7omnetpp8cMessageESaIS4_EEESt4lessIiESaISt4pairIKiS7_EEE11lower_boundERSB_ @1893
    _ZNSt3mapIiPNSt7__cxx114listIPN7omnetpp8cMessageESaIS4_EEESt4lessIiESaISt4pairIKiS7_EEE3endEv @1894
    _ZNSt3mapIiPNSt7__cxx114listIPN7omnetpp8cMessageESaIS4_EEESt4lessIiESaISt4pairIKiS7_EEE6insertISA_IjS7_EEENSt9enable_ifIXsr16is_constructibleISC_T_EE5valueESA_ISt17_Rb_tree_iteratorISC_EbEE4typeEOSI_ @1895
    _ZNSt3mapIiPNSt7__cxx114listIPN7omnetpp8cMessageESaIS4_EEESt4lessIiESaISt4pairIKiS7_EEEC2Ev @1896
    _ZNSt3mapIiPNSt7__cxx114listIPN7omnetpp8cMessageESaIS4_EEESt4lessIiESaISt4pairIKiS7_EEED2Ev @1897
    _ZNSt3mapIiPNSt7__cxx114listIPN7omnetpp8cMessageESaIS4_EEESt4lessIiESaISt4pairIKiS7_EEEixEOi @1898
    _ZNSt3mapIjNSt7__cxx114listIN7CAN4CQF21GatewayTransformation5QInfoESaIS4_EEESt4lessIjESaISt4pairIKjS6_EEE11lower_boundERSA_ @1899
    _ZNSt3mapIjNSt7__cxx114listIN7CAN4CQF21GatewayTransformation5QInfoESaIS4_EEESt4lessIjESaISt4pairIKjS6_EEE3endEv @1900
    _ZNSt3mapIjNSt7__cxx114listIN7CAN4CQF21GatewayTransformation5QInfoESaIS4_EEESt4lessIjESaISt4pairIKjS6_EEE4findERSA_ @1901
    _ZNSt3mapIjNSt7__cxx114listIN7CAN4CQF21GatewayTransformation5QInfoESaIS4_EEESt4lessIjESaISt4pairIKjS6_EEEC2Ev @1902
    _ZNSt3mapIjNSt7__cxx114listIN7CAN4CQF21GatewayTransformation5QInfoESaIS4_EEESt4lessIjESaISt4pairIKjS6_EEED2Ev @1903
    _ZNSt3mapIjNSt7__cxx114listIN7CAN4CQF21GatewayTransformation5QInfoESaIS4_EEESt4lessIjESaISt4pairIKjS6_EEEixEOj @1904
    _ZNSt3mapIjNSt7__cxx114listIN7CAN4CQF24EDFGatewayTransformation5QInfoESaIS4_EEESt4lessIjESaISt4pairIKjS6_EEE11lower_boundERSA_ @1905
    _ZNSt3mapIjNSt7__cxx114listIN7CAN4CQF24EDFGatewayTransformation5QInfoESaIS4_EEESt4lessIjESaISt4pairIKjS6_EEE3endEv @1906
    _ZNSt3mapIjNSt7__cxx114listIN7CAN4CQF24EDFGatewayTransformation5QInfoESaIS4_EEESt4lessIjESaISt4pairIKjS6_EEE4findERSA_ @1907
    _ZNSt3mapIjNSt7__cxx114listIN7CAN4CQF24EDFGatewayTransformation5QInfoESaIS4_EEESt4lessIjESaISt4pairIKjS6_EEEC2Ev @1908
    _ZNSt3mapIjNSt7__cxx114listIN7CAN4CQF24EDFGatewayTransformation5QInfoESaIS4_EEESt4lessIjESaISt4pairIKjS6_EEED2Ev @1909
    _ZNSt3mapIjNSt7__cxx114listIN7CAN4CQF24EDFGatewayTransformation5QInfoESaIS4_EEESt4lessIjESaISt4pairIKjS6_EEEixEOj @1910
    _ZNSt3mapIjNSt7__cxx114listIN7CAN4CQF24RAEGatewayTransformation5QInfoESaIS4_EEESt4lessIjESaISt4pairIKjS6_EEE11lower_boundERSA_ @1911
    _ZNSt3mapIjNSt7__cxx114listIN7CAN4CQF24RAEGatewayTransformation5QInfoESaIS4_EEESt4lessIjESaISt4pairIKjS6_EEE3endEv @1912
    _ZNSt3mapIjNSt7__cxx114listIN7CAN4CQF24RAEGatewayTransformation5QInfoESaIS4_EEESt4lessIjESaISt4pairIKjS6_EEE4findERSA_ @1913
    _ZNSt3mapIjNSt7__cxx114listIN7CAN4CQF24RAEGatewayTransformation5QInfoESaIS4_EEESt4lessIjESaISt4pairIKjS6_EEEC2Ev @1914
    _ZNSt3mapIjNSt7__cxx114listIN7CAN4CQF24RAEGatewayTransformation5QInfoESaIS4_EEESt4lessIjESaISt4pairIKjS6_EEED2Ev @1915
    _ZNSt3mapIjNSt7__cxx114listIN7CAN4CQF24RAEGatewayTransformation5QInfoESaIS4_EEESt4lessIjESaISt4pairIKjS6_EEEixEOj @1916
    _ZNSt3mapIjNSt7__cxx114listIN7CAN4CQF24VarGatewayTransformation5QInfoESaIS4_EEESt4lessIjESaISt4pairIKjS6_EEE11lower_boundERSA_ @1917
    _ZNSt3mapIjNSt7__cxx114listIN7CAN4CQF24VarGatewayTransformation5QInfoESaIS4_EEESt4lessIjESaISt4pairIKjS6_EEE3endEv @1918
    _ZNSt3mapIjNSt7__cxx114listIN7CAN4CQF24VarGatewayTransformation5QInfoESaIS4_EEESt4lessIjESaISt4pairIKjS6_EEE4findERSA_ @1919
    _ZNSt3mapIjNSt7__cxx114listIN7CAN4CQF24VarGatewayTransformation5QInfoESaIS4_EEESt4lessIjESaISt4pairIKjS6_EEEC2Ev @1920
    _ZNSt3mapIjNSt7__cxx114listIN7CAN4CQF24VarGatewayTransformation5QInfoESaIS4_EEESt4lessIjESaISt4pairIKjS6_EEED2Ev @1921
    _ZNSt3mapIjNSt7__cxx114listIN7CAN4CQF24VarGatewayTransformation5QInfoESaIS4_EEESt4lessIjESaISt4pairIKjS6_EEEixEOj @1922
    _ZNSt3mapIjNSt7__cxx114listIN7CAN4CQF28TimeoutGatewayTransformation5QInfoESaIS4_EEESt4lessIjESaISt4pairIKjS6_EEE11lower_boundERSA_ @1923
    _ZNSt3mapIjNSt7__cxx114listIN7CAN4CQF28TimeoutGatewayTransformation5QInfoESaIS4_EEESt4lessIjESaISt4pairIKjS6_EEE3endEv @1924
    _ZNSt3mapIjNSt7__cxx114listIN7CAN4CQF28TimeoutGatewayTransformation5QInfoESaIS4_EEESt4lessIjESaISt4pairIKjS6_EEE4findERSA_ @1925
    _ZNSt3mapIjNSt7__cxx114listIN7CAN4CQF28TimeoutGatewayTransformation5QInfoESaIS4_EEESt4lessIjESaISt4pairIKjS6_EEEC2Ev @1926
    _ZNSt3mapIjNSt7__cxx114listIN7CAN4CQF28TimeoutGatewayTransformation5QInfoESaIS4_EEESt4lessIjESaISt4pairIKjS6_EEED2Ev @1927
    _ZNSt3mapIjNSt7__cxx114listIN7CAN4CQF28TimeoutGatewayTransformation5QInfoESaIS4_EEESt4lessIjESaISt4pairIKjS6_EEEixEOj @1928
    _ZNSt4lessIvE6_S_cmpIRKNSt7__cxx1112basic_stringIcSt11char_traitsIcESaIcEEES9_EEDcOT_OT0_St17integral_constantIbLb0EE @1929
    _ZNSt4pairIKNSt7__cxx1112basic_stringIcSt11char_traitsIcESaIcEEEN8nlohmann16json_abi_v3_11_310basic_jsonISt3mapSt6vectorS5_bxydSaNS8_14adl_serializerESB_IhSaIhEEvEEEC2ERKSG_ @1930
    _ZNSt4pairIKNSt7__cxx1112basic_stringIcSt11char_traitsIcESaIcEEEN8nlohmann16json_abi_v3_11_310basic_jsonISt3mapSt6vectorS5_bxydSaNS8_14adl_serializerESB_IhSaIhEEvEEEC2IS5_DnLb1EEEOT_OT0_ @1931
    _ZNSt4pairIKNSt7__cxx1112basic_stringIcSt11char_traitsIcESaIcEEEN8nlohmann16json_abi_v3_11_310basic_jsonISt3mapSt6vectorS5_bxydSaNS8_14adl_serializerESB_IhSaIhEEvEEEC2IS5_SF_Lb1EEEOT_OT0_ @1932
    _ZNSt4pairIKNSt7__cxx1112basic_stringIcSt11char_traitsIcESaIcEEEN8nlohmann16json_abi_v3_11_310basic_jsonISt3mapSt6vectorS5_bxydSaNS8_14adl_serializerESB_IhSaIhEEvEEED2Ev @1933
    _ZNSt4pairIKPN10FiCo4OMNeT12CanDataFrameEN7omnetpp7SimTimeEEC2ERKS6_ @1934
    _ZNSt4pairIKPN10FiCo4OMNeT12CanDataFrameEN7omnetpp7SimTimeEEC2IJRS3_EJEEESt21piecewise_construct_tSt5tupleIJDpT_EESA_IJDpT0_EE @1935
    _ZNSt4pairIKPN10FiCo4OMNeT12CanDataFrameEN7omnetpp7SimTimeEEC2IJRS3_EJLy0EEJEJEEERSt5tupleIJDpT_EERS9_IJDpT1_EESt12_Index_tupleIJXspT0_EEESI_IJXspT2_EEE @1936
    _ZNSt4pairIKPN10FiCo4OMNeT12CanDataFrameEN7omnetpp7SimTimeEEC2IS2_S5_Lb1EEEOS_IT_T0_E @1937
    _ZNSt4pairIKPN10FiCo4OMNeT12CanDataFrameEdEC2IJRS3_EJEEESt21piecewise_construct_tSt5tupleIJDpT_EES8_IJDpT0_EE @1938
    _ZNSt4pairIKPN10FiCo4OMNeT12CanDataFrameEdEC2IJRS3_EJLy0EEJEJEEERSt5tupleIJDpT_EERS7_IJDpT1_EESt12_Index_tupleIJXspT0_EEESG_IJXspT2_EEE @1939
    _ZNSt4pairIKPN10FiCo4OMNeT12CanDataFrameEdEC2IS2_dLb1EEEOS_IT_T0_E @1940
    _ZNSt4pairIKiN7CAN4CQF22CircularRotationBuffer14wcrt_data_infoEEC2IJRS0_EJEEESt21piecewise_construct_tSt5tupleIJDpT_EES8_IJDpT0_EE @1941
    _ZNSt4pairIKiN7CAN4CQF22CircularRotationBuffer14wcrt_data_infoEEC2IJRS0_EJLy0EEJEJEEERSt5tupleIJDpT_EERS7_IJDpT1_EESt12_Index_tupleIJXspT0_EEESG_IJXspT2_EEE @1942
    _ZNSt4pairIKiPNSt7__cxx114listIPN7omnetpp8cMessageESaIS5_EEEEC2IJOiEJEEESt21piecewise_construct_tSt5tupleIJDpT_EESD_IJDpT0_EE @1943
    _ZNSt4pairIKiPNSt7__cxx114listIPN7omnetpp8cMessageESaIS5_EEEEC2IJOiEJLy0EEJEJEEERSt5tupleIJDpT_EERSC_IJDpT1_EESt12_Index_tupleIJXspT0_EEESL_IJXspT2_EEE @1944
    _ZNSt4pairIKiPNSt7__cxx114listIPN7omnetpp8cMessageESaIS5_EEEEC2IjS8_Lb1EEEOS_IT_T0_E @1945
    _ZNSt4pairIKjNSt7__cxx114listIN7CAN4CQF21GatewayTransformation5QInfoESaIS5_EEEEC2IJOjEJEEESt21piecewise_construct_tSt5tupleIJDpT_EESC_IJDpT0_EE @1946
    _ZNSt4pairIKjNSt7__cxx114listIN7CAN4CQF21GatewayTransformation5QInfoESaIS5_EEEEC2IJOjEJLy0EEJEJEEERSt5tupleIJDpT_EERSB_IJDpT1_EESt12_Index_tupleIJXspT0_EEESK_IJXspT2_EEE @1947
    _ZNSt4pairIKjNSt7__cxx114listIN7CAN4CQF21GatewayTransformation5QInfoESaIS5_EEEED2Ev @1948
    _ZNSt4pairIKjNSt7__cxx114listIN7CAN4CQF24EDFGatewayTransformation5QInfoESaIS5_EEEEC2IJOjEJEEESt21piecewise_construct_tSt5tupleIJDpT_EESC_IJDpT0_EE @1949
    _ZNSt4pairIKjNSt7__cxx114listIN7CAN4CQF24EDFGatewayTransformation5QInfoESaIS5_EEEEC2IJOjEJLy0EEJEJEEERSt5tupleIJDpT_EERSB_IJDpT1_EESt12_Index_tupleIJXspT0_EEESK_IJXspT2_EEE @1950
    _ZNSt4pairIKjNSt7__cxx114listIN7CAN4CQF24EDFGatewayTransformation5QInfoESaIS5_EEEED2Ev @1951
    _ZNSt4pairIKjNSt7__cxx114listIN7CAN4CQF24RAEGatewayTransformation5QInfoESaIS5_EEEEC2IJOjEJEEESt21piecewise_construct_tSt5tupleIJDpT_EESC_IJDpT0_EE @1952
    _ZNSt4pairIKjNSt7__cxx114listIN7CAN4CQF24RAEGatewayTransformation5QInfoESaIS5_EEEEC2IJOjEJLy0EEJEJEEERSt5tupleIJDpT_EERSB_IJDpT1_EESt12_Index_tupleIJXspT0_EEESK_IJXspT2_EEE @1953
    _ZNSt4pairIKjNSt7__cxx114listIN7CAN4CQF24RAEGatewayTransformation5QInfoESaIS5_EEEED2Ev @1954
    _ZNSt4pairIKjNSt7__cxx114listIN7CAN4CQF24VarGatewayTransformation5QInfoESaIS5_EEEEC2IJOjEJEEESt21piecewise_construct_tSt5tupleIJDpT_EESC_IJDpT0_EE @1955
    _ZNSt4pairIKjNSt7__cxx114listIN7CAN4CQF24VarGatewayTransformation5QInfoESaIS5_EEEEC2IJOjEJLy0EEJEJEEERSt5tupleIJDpT_EERSB_IJDpT1_EESt12_Index_tupleIJXspT0_EEESK_IJXspT2_EEE @1956
    _ZNSt4pairIKjNSt7__cxx114listIN7CAN4CQF24VarGatewayTransformation5QInfoESaIS5_EEEED2Ev @1957
    _ZNSt4pairIKjNSt7__cxx114listIN7CAN4CQF28TimeoutGatewayTransformation5QInfoESaIS5_EEEEC2IJOjEJEEESt21piecewise_construct_tSt5tupleIJDpT_EESC_IJDpT0_EE @1958
    _ZNSt4pairIKjNSt7__cxx114listIN7CAN4CQF28TimeoutGatewayTransformation5QInfoESaIS5_EEEEC2IJOjEJLy0EEJEJEEERSt5tupleIJDpT_EERSB_IJDpT1_EESt12_Index_tupleIJXspT0_EEESK_IJXspT2_EEE @1959
    _ZNSt4pairIKjNSt7__cxx114listIN7CAN4CQF28TimeoutGatewayTransformation5QInfoESaIS5_EEEED2Ev @1960
    _ZNSt4pairIKtNSt7__cxx114listIPN9CoRE4INET6BufferESaIS5_EEEEC2IJOtEJEEESt21piecewise_construct_tSt5tupleIJDpT_EESC_IJDpT0_EE @1961
    _ZNSt4pairIKtNSt7__cxx114listIPN9CoRE4INET6BufferESaIS5_EEEEC2IJOtEJLy0EEJEJEEERSt5tupleIJDpT_EERSB_IJDpT1_EESt12_Index_tupleIJXspT0_EEESK_IJXspT2_EEE @1962
    _ZNSt4pairIKtNSt7__cxx114listIPN9CoRE4INET6BufferESaIS5_EEEED2Ev @1963
    _ZNSt4pairIPN10FiCo4OMNeT12CanDataFrameEN7omnetpp7SimTimeEEC2IRS2_RS4_Lb1EEEOT_OT0_ @1964
    _ZNSt4pairIPN10FiCo4OMNeT12CanDataFrameEN7omnetpp7SimTimeEEC2IRS2_S4_Lb1EEEOT_OT0_ @1965
    _ZNSt4pairIPN10FiCo4OMNeT12CanDataFrameEN7omnetpp7SimTimeEEC2IS2_RS4_Lb1EEEOT_OT0_ @1966
    _ZNSt4pairIPN10FiCo4OMNeT12CanDataFrameEdE4swapERS3_ @1967
    _ZNSt4pairIPN10FiCo4OMNeT12CanDataFrameEdEC2IRS2_RdLb1EEEOT_OT0_ @1968
    _ZNSt4pairIPN10FiCo4OMNeT12CanDataFrameEdEaSEOS3_ @1969
    _ZNSt4pairIPSt18_Rb_tree_node_baseS1_EC2IRPSt13_Rb_tree_nodeIS_IKNSt7__cxx1112basic_stringIcSt11char_traitsIcESaIcEEEN8nlohmann16json_abi_v3_11_310basic_jsonISt3mapSt6vectorSA_bxydSaNSD_14adl_serializerESG_IhSaIhEEvEEEERS1_Lb1EEEOT_OT0_ @1970
    _ZNSt4pairIPSt18_Rb_tree_node_baseS1_EC2IRPSt13_Rb_tree_nodeIS_IKPN10FiCo4OMNeT12CanDataFrameEN7omnetpp7SimTimeEEERS1_Lb1EEEOT_OT0_ @1971
    _ZNSt4pairIPSt18_Rb_tree_node_baseS1_EC2IRPSt13_Rb_tree_nodeIS_IKPN10FiCo4OMNeT12CanDataFrameEdEERS1_Lb1EEEOT_OT0_ @1972
    _ZNSt4pairIPSt18_Rb_tree_node_baseS1_EC2IRPSt13_Rb_tree_nodeIS_IKiN7CAN4CQF22CircularRotationBuffer14wcrt_data_infoEEERS1_Lb1EEEOT_OT0_ @1973
    _ZNSt4pairIPSt18_Rb_tree_node_baseS1_EC2IRPSt13_Rb_tree_nodeIS_IKiPNSt7__cxx114listIPN7omnetpp8cMessageESaISA_EEEEERS1_Lb1EEEOT_OT0_ @1974
    _ZNSt4pairIPSt18_Rb_tree_node_baseS1_EC2IRPSt13_Rb_tree_nodeIS_IKjNSt7__cxx114listIN7CAN4CQF21GatewayTransformation5QInfoESaISA_EEEEERS1_Lb1EEEOT_OT0_ @1975
    _ZNSt4pairIPSt18_Rb_tree_node_baseS1_EC2IRPSt13_Rb_tree_nodeIS_IKjNSt7__cxx114listIN7CAN4CQF24EDFGatewayTransformation5QInfoESaISA_EEEEERS1_Lb1EEEOT_OT0_ @1976
    _ZNSt4pairIPSt18_Rb_tree_node_baseS1_EC2IRPSt13_Rb_tree_nodeIS_IKjNSt7__cxx114listIN7CAN4CQF24RAEGatewayTransformation5QInfoESaISA_EEEEERS1_Lb1EEEOT_OT0_ @1977
    _ZNSt4pairIPSt18_Rb_tree_node_baseS1_EC2IRPSt13_Rb_tree_nodeIS_IKjNSt7__cxx114listIN7CAN4CQF24VarGatewayTransformation5QInfoESaISA_EEEEERS1_Lb1EEEOT_OT0_ @1978
    _ZNSt4pairIPSt18_Rb_tree_node_baseS1_EC2IRPSt13_Rb_tree_nodeIS_IKjNSt7__cxx114listIN7CAN4CQF28TimeoutGatewayTransformation5QInfoESaISA_EEEEERS1_Lb1EEEOT_OT0_ @1979
    _ZNSt4pairISt17_Rb_tree_iteratorIS_IKNSt7__cxx1112basic_stringIcSt11char_traitsIcESaIcEEEN8nlohmann16json_abi_v3_11_310basic_jsonISt3mapSt6vectorS6_bxydSaNS9_14adl_serializerESC_IhSaIhEEvEEEEbEC2ISI_bLb1EEEOT_OT0_ @1980
    _ZNSt4pairISt17_Rb_tree_iteratorIS_IKPN10FiCo4OMNeT12CanDataFrameEN7omnetpp7SimTimeEEES8_EC2IS8_S8_Lb1EEEOT_OT0_ @1981
    _ZNSt4pairISt17_Rb_tree_iteratorIS_IKPN10FiCo4OMNeT12CanDataFrameEN7omnetpp7SimTimeEEEbEC2IS8_bLb1EEEOT_OT0_ @1982
    _ZNSt4pairISt17_Rb_tree_iteratorIS_IKPN10FiCo4OMNeT12CanDataFrameEdEEbEC2IS6_bLb1EEEOT_OT0_ @1983
    _ZNSt4pairISt17_Rb_tree_iteratorIS_IKiPNSt7__cxx114listIPN7omnetpp8cMessageESaIS6_EEEEEbEC2ISB_bLb1EEEOT_OT0_ @1984
    _ZNSt5arrayIcLy512EE4dataEv @1985
    _ZNSt5arrayIcLy512EEixEy @1986
    _ZNSt5arrayIcLy64EE4dataEv @1987
    _ZNSt5arrayIcLy64EE5beginEv @1988
    _ZNSt5tupleIJOiEEC2EOS1_ @1989
    _ZNSt5tupleIJOiEEC2IJiELb1ELb1EEEDpOT_ @1990
    _ZNSt5tupleIJPN8nlohmann16json_abi_v3_11_327byte_container_with_subtypeISt6vectorIhSaIhEEEEZNS1_10basic_jsonISt3mapS3_NSt7__cxx1112basic_stringIcSt11char_traitsIcESaIcEEEbxydSaNS1_14adl_serializerES5_vE6createIS6_JEEEPT_DpOT0_EUlS7_E_EEC2IRS7_RKSO_Lb1EEEOSJ_OT0_ @1991
    _ZNSt5tupleIJPN8nlohmann16json_abi_v3_11_327byte_container_with_subtypeISt6vectorIhSaIhEEEEZNS1_10basic_jsonISt3mapS3_NSt7__cxx1112basic_stringIcSt11char_traitsIcESaIcEEEbxydSaNS1_14adl_serializerES5_vE6createIS6_JRKS6_EEEPT_DpOT0_EUlS7_E_EEC2IRS7_RKSQ_Lb1EEEOSL_OT0_ @1992
    _ZNSt5tupleIJPNSt7__cxx1112basic_stringIcSt11char_traitsIcESaIcEEEZN8nlohmann16json_abi_v3_11_310basic_jsonISt3mapSt6vectorS5_bxydSaNS8_14adl_serializerESB_IhSaIhEEvE6createIS5_JRA1_KcEEEPT_DpOT0_EUlS6_E_EEC2IRS6_RKSP_Lb1EEEOSK_OT0_ @1993
    _ZNSt5tupleIJPNSt7__cxx1112basic_stringIcSt11char_traitsIcESaIcEEEZN8nlohmann16json_abi_v3_11_310basic_jsonISt3mapSt6vectorS5_bxydSaNS8_14adl_serializerESB_IhSaIhEEvE6createIS5_JRKS5_EEEPT_DpOT0_EUlS6_E_EEC2IRS6_RKSO_Lb1EEEOSJ_OT0_ @1994
    _ZNSt5tupleIJPSt3mapINSt7__cxx1112basic_stringIcSt11char_traitsIcESaIcEEEN8nlohmann16json_abi_v3_11_310basic_jsonIS0_St6vectorS6_bxydSaNS8_14adl_serializerESA_IhSaIhEEvEESt4lessIvESaISt4pairIKS6_SE_EEEZNSE_6createISL_JEEEPT_DpOT0_EUlSM_E_EEC2IRSM_RKST_Lb1EEEOSO_OT0_ @1995
    _ZNSt5tupleIJPSt3mapINSt7__cxx1112basic_stringIcSt11char_traitsIcESaIcEEEN8nlohmann16json_abi_v3_11_310basic_jsonIS0_St6vectorS6_bxydSaNS8_14adl_serializerESA_IhSaIhEEvEESt4lessIvESaISt4pairIKS6_SE_EEEZNSE_6createISL_JRKSL_EEEPT_DpOT0_EUlSM_E_EEC2IRSM_RKSV_Lb1EEEOSQ_OT0_ @1996
    _ZNSt5tupleIJPSt6vectorIN8nlohmann16json_abi_v3_11_310basic_jsonISt3mapS0_NSt7__cxx1112basic_stringIcSt11char_traitsIcESaIcEEEbxydSaNS2_14adl_serializerES0_IhSaIhEEvEESaISE_EEZNSE_6createISG_JEEEPT_DpOT0_EUlSH_E_EEC2IRSH_RKSO_Lb1EEEOSJ_OT0_ @1997
    _ZNSt5tupleIJPSt6vectorIN8nlohmann16json_abi_v3_11_310basic_jsonISt3mapS0_NSt7__cxx1112basic_stringIcSt11char_traitsIcESaIcEEEbxydSaNS2_14adl_serializerES0_IhSaIhEEvEESaISE_EEZNSE_6createISG_JPKNS2_6detail8json_refISE_EESN_EEEPT_DpOT0_EUlSH_E_EEC2IRSH_RKST_Lb1EEEOSO_OT0_ @1998
    _ZNSt5tupleIJPSt6vectorIN8nlohmann16json_abi_v3_11_310basic_jsonISt3mapS0_NSt7__cxx1112basic_stringIcSt11char_traitsIcESaIcEEEbxydSaNS2_14adl_serializerES0_IhSaIhEEvEESaISE_EEZNSE_6createISG_JRKSG_EEEPT_DpOT0_EUlSH_E_EEC2IRSH_RKSQ_Lb1EEEOSL_OT0_ @1999
    _ZNSt5tupleIJRKPN10FiCo4OMNeT12CanDataFrameEEEC2EOS5_ @2000
    _ZNSt5tupleIJRKPN10FiCo4OMNeT12CanDataFrameEEEC2ILb1ELb1EEES4_ @2001
    _ZNSt6vectorIN7CAN4CQF22CircularRotationBuffer9canfdInfoESaIS2_EE11_S_max_sizeERKS3_ @2002
    _ZNSt6vectorIN7CAN4CQF22CircularRotationBuffer9canfdInfoESaIS2_EE15_M_erase_at_endEPS2_ @2003
    _ZNSt6vectorIN7CAN4CQF22CircularRotationBuffer9canfdInfoESaIS2_EE17_M_realloc_insertIJRKS2_EEEvN9__gnu_cxx17__normal_iteratorIPS2_S4_EEDpOT_ @2004
    _ZNSt6vectorIN7CAN4CQF22CircularRotationBuffer9canfdInfoESaIS2_EE3endEv @2005
    _ZNSt6vectorIN7CAN4CQF22CircularRotationBuffer9canfdInfoESaIS2_EE4backEv @2006
    _ZNSt6vectorIN7CAN4CQF22CircularRotationBuffer9canfdInfoESaIS2_EE5beginEv @2007
    _ZNSt6vectorIN7CAN4CQF22CircularRotationBuffer9canfdInfoESaIS2_EE5clearEv @2008
    _ZNSt6vectorIN7CAN4CQF22CircularRotationBuffer9canfdInfoESaIS2_EE5eraseEN9__gnu_cxx17__normal_iteratorIPKS2_S4_EE @2009
    _ZNSt6vectorIN7CAN4CQF22CircularRotationBuffer9canfdInfoESaIS2_EE8_M_eraseEN9__gnu_cxx17__normal_iteratorIPS2_S4_EE @2010
    _ZNSt6vectorIN7CAN4CQF22CircularRotationBuffer9canfdInfoESaIS2_EE9push_backERKS2_ @2011
    _ZNSt6vectorIN7CAN4CQF22CircularRotationBuffer9canfdInfoESaIS2_EEC2Ev @2012
    _ZNSt6vectorIN7CAN4CQF22CircularRotationBuffer9canfdInfoESaIS2_EED2Ev @2013
    _ZNSt6vectorIN7CAN4CQF24RAEGatewayTransformation10order_infoESaIS2_EE11_S_max_sizeERKS3_ @2014
    _ZNSt6vectorIN7CAN4CQF24RAEGatewayTransformation10order_infoESaIS2_EE15_M_erase_at_endEPS2_ @2015
    _ZNSt6vectorIN7CAN4CQF24RAEGatewayTransformation10order_infoESaIS2_EE17_M_realloc_insertIJRKS2_EEEvN9__gnu_cxx17__normal_iteratorIPS2_S4_EEDpOT_ @2016
    _ZNSt6vectorIN7CAN4CQF24RAEGatewayTransformation10order_infoESaIS2_EE3endEv @2017
    _ZNSt6vectorIN7CAN4CQF24RAEGatewayTransformation10order_infoESaIS2_EE4rendEv @2018
    _ZNSt6vectorIN7CAN4CQF24RAEGatewayTransformation10order_infoESaIS2_EE5beginEv @2019
    _ZNSt6vectorIN7CAN4CQF24RAEGatewayTransformation10order_infoESaIS2_EE5clearEv @2020
    _ZNSt6vectorIN7CAN4CQF24RAEGatewayTransformation10order_infoESaIS2_EE6rbeginEv @2021
    _ZNSt6vectorIN7CAN4CQF24RAEGatewayTransformation10order_infoESaIS2_EE9push_backERKS2_ @2022
    _ZNSt6vectorIN7CAN4CQF24RAEGatewayTransformation10order_infoESaIS2_EEC2Ev @2023
    _ZNSt6vectorIN7CAN4CQF24RAEGatewayTransformation10order_infoESaIS2_EED2Ev @2024
    _ZNSt6vectorIN8nlohmann16json_abi_v3_11_310basic_jsonISt3mapS_NSt7__cxx1112basic_stringIcSt11char_traitsIcESaIcEEEbxydSaNS1_14adl_serializerES_IhSaIhEEvEESaISD_EE11_S_max_sizeERKSE_ @2025
    _ZNSt6vectorIN8nlohmann16json_abi_v3_11_310basic_jsonISt3mapS_NSt7__cxx1112basic_stringIcSt11char_traitsIcESaIcEEEbxydSaNS1_14adl_serializerES_IhSaIhEEvEESaISD_EE11_S_relocateEPSD_SG_SG_RSE_ @2026
    _ZNSt6vectorIN8nlohmann16json_abi_v3_11_310basic_jsonISt3mapS_NSt7__cxx1112basic_stringIcSt11char_traitsIcESaIcEEEbxydSaNS1_14adl_serializerES_IhSaIhEEvEESaISD_EE12emplace_backIJSD_EEEvDpOT_ @2027
    _ZNSt6vectorIN8nlohmann16json_abi_v3_11_310basic_jsonISt3mapS_NSt7__cxx1112basic_stringIcSt11char_traitsIcESaIcEEEbxydSaNS1_14adl_serializerES_IhSaIhEEvEESaISD_EE14_S_do_relocateEPSD_SG_SG_RSE_St17integral_constantIbLb1EE @2028
    _ZNSt6vectorIN8nlohmann16json_abi_v3_11_310basic_jsonISt3mapS_NSt7__cxx1112basic_stringIcSt11char_traitsIcESaIcEEEbxydSaNS1_14adl_serializerES_IhSaIhEEvEESaISD_EE15_M_erase_at_endEPSD_ @2029
    _ZNSt6vectorIN8nlohmann16json_abi_v3_11_310basic_jsonISt3mapS_NSt7__cxx1112basic_stringIcSt11char_traitsIcESaIcEEEbxydSaNS1_14adl_serializerES_IhSaIhEEvEESaISD_EE17_M_realloc_insertIJRKSD_EEEvN9__gnu_cxx17__normal_iteratorIPSD_SF_EEDpOT_ @2030
    _ZNSt6vectorIN8nlohmann16json_abi_v3_11_310basic_jsonISt3mapS_NSt7__cxx1112basic_stringIcSt11char_traitsIcESaIcEEEbxydSaNS1_14adl_serializerES_IhSaIhEEvEESaISD_EE17_M_realloc_insertIJSD_EEEvN9__gnu_cxx17__normal_iteratorIPSD_SF_EEDpOT_ @2031
    _ZNSt6vectorIN8nlohmann16json_abi_v3_11_310basic_jsonISt3mapS_NSt7__cxx1112basic_stringIcSt11char_traitsIcESaIcEEEbxydSaNS1_14adl_serializerES_IhSaIhEEvEESaISD_EE17_S_check_init_lenEyRKSE_ @2032
    _ZNSt6vectorIN8nlohmann16json_abi_v3_11_310basic_jsonISt3mapS_NSt7__cxx1112basic_stringIcSt11char_traitsIcESaIcEEEbxydSaNS1_14adl_serializerES_IhSaIhEEvEESaISD_EE19_M_range_initializeIPKNS1_6detail8json_refISD_EEEEvT_SM_St20forward_iterator_tag @2033
    _ZNSt6vectorIN8nlohmann16json_abi_v3_11_310basic_jsonISt3mapS_NSt7__cxx1112basic_stringIcSt11char_traitsIcESaIcEEEbxydSaNS1_14adl_serializerES_IhSaIhEEvEESaISD_EE3endEv @2034
    _ZNSt6vectorIN8nlohmann16json_abi_v3_11_310basic_jsonISt3mapS_NSt7__cxx1112basic_stringIcSt11char_traitsIcESaIcEEEbxydSaNS1_14adl_serializerES_IhSaIhEEvEESaISD_EE4backEv @2035
    _ZNSt6vectorIN8nlohmann16json_abi_v3_11_310basic_jsonISt3mapS_NSt7__cxx1112basic_stringIcSt11char_traitsIcESaIcEEEbxydSaNS1_14adl_serializerES_IhSaIhEEvEESaISD_EE5beginEv @2036
    _ZNSt6vectorIN8nlohmann16json_abi_v3_11_310basic_jsonISt3mapS_NSt7__cxx1112basic_stringIcSt11char_traitsIcESaIcEEEbxydSaNS1_14adl_serializerES_IhSaIhEEvEESaISD_EE5clearEv @2037
    _ZNSt6vectorIN8nlohmann16json_abi_v3_11_310basic_jsonISt3mapS_NSt7__cxx1112basic_stringIcSt11char_traitsIcESaIcEEEbxydSaNS1_14adl_serializerES_IhSaIhEEvEESaISD_EE7reserveEy @2038
    _ZNSt6vectorIN8nlohmann16json_abi_v3_11_310basic_jsonISt3mapS_NSt7__cxx1112basic_stringIcSt11char_traitsIcESaIcEEEbxydSaNS1_14adl_serializerES_IhSaIhEEvEESaISD_EE8pop_backEv @2039
    _ZNSt6vectorIN8nlohmann16json_abi_v3_11_310basic_jsonISt3mapS_NSt7__cxx1112basic_stringIcSt11char_traitsIcESaIcEEEbxydSaNS1_14adl_serializerES_IhSaIhEEvEESaISD_EE9push_backEOSD_ @2040
    _ZNSt6vectorIN8nlohmann16json_abi_v3_11_310basic_jsonISt3mapS_NSt7__cxx1112basic_stringIcSt11char_traitsIcESaIcEEEbxydSaNS1_14adl_serializerES_IhSaIhEEvEESaISD_EE9push_backERKSD_ @2041
    _ZNSt6vectorIN8nlohmann16json_abi_v3_11_310basic_jsonISt3mapS_NSt7__cxx1112basic_stringIcSt11char_traitsIcESaIcEEEbxydSaNS1_14adl_serializerES_IhSaIhEEvEESaISD_EEC2ERKSF_ @2042
    _ZNSt6vectorIN8nlohmann16json_abi_v3_11_310basic_jsonISt3mapS_NSt7__cxx1112basic_stringIcSt11char_traitsIcESaIcEEEbxydSaNS1_14adl_serializerES_IhSaIhEEvEESaISD_EEC2Ev @2043
    _ZNSt6vectorIN8nlohmann16json_abi_v3_11_310basic_jsonISt3mapS_NSt7__cxx1112basic_stringIcSt11char_traitsIcESaIcEEEbxydSaNS1_14adl_serializerES_IhSaIhEEvEESaISD_EEC2IPKNS1_6detail8json_refISD_EEvEET_SM_RKSE_ @2044
    _ZNSt6vectorIN8nlohmann16json_abi_v3_11_310basic_jsonISt3mapS_NSt7__cxx1112basic_stringIcSt11char_traitsIcESaIcEEEbxydSaNS1_14adl_serializerES_IhSaIhEEvEESaISD_EED2Ev @2045
    _ZNSt6vectorIN8nlohmann16json_abi_v3_11_310basic_jsonISt3mapS_NSt7__cxx1112basic_stringIcSt11char_traitsIcESaIcEEEbxydSaNS1_14adl_serializerES_IhSaIhEEvEESaISD_EEixEy @2046
    _ZNSt6vectorINSt7__cxx1112basic_stringIcSt11char_traitsIcESaIcEEESaIS5_EE5frontEv @2047
    _ZNSt6vectorISt4pairIPN10FiCo4OMNeT12CanDataFrameEdESaIS4_EE11_S_max_sizeERKS5_ @2048
    _ZNSt6vectorISt4pairIPN10FiCo4OMNeT12CanDataFrameEdESaIS4_EE11_S_relocateEPS4_S7_S7_RS5_ @2049
    _ZNSt6vectorISt4pairIPN10FiCo4OMNeT12CanDataFrameEdESaIS4_EE12emplace_backIJS4_EEEvDpOT_ @2050
    _ZNSt6vectorISt4pairIPN10FiCo4OMNeT12CanDataFrameEdESaIS4_EE14_S_do_relocateEPS4_S7_S7_RS5_St17integral_constantIbLb1EE @2051
    _ZNSt6vectorISt4pairIPN10FiCo4OMNeT12CanDataFrameEdESaIS4_EE17_M_realloc_insertIJS4_EEEvN9__gnu_cxx17__normal_iteratorIPS4_S6_EEDpOT_ @2052
    _ZNSt6vectorISt4pairIPN10FiCo4OMNeT12CanDataFrameEdESaIS4_EE3endEv @2053
    _ZNSt6vectorISt4pairIPN10FiCo4OMNeT12CanDataFrameEdESaIS4_EE5beginEv @2054
    _ZNSt6vectorISt4pairIPN10FiCo4OMNeT12CanDataFrameEdESaIS4_EE9push_backEOS4_ @2055
    _ZNSt6vectorISt4pairIPN10FiCo4OMNeT12CanDataFrameEdESaIS4_EEC2Ev @2056
    _ZNSt6vectorISt4pairIPN10FiCo4OMNeT12CanDataFrameEdESaIS4_EED2Ev @2057
    _ZNSt6vectorIhSaIhEE3endEv @2058
    _ZNSt6vectorIhSaIhEE4backEv @2059
    _ZNSt6vectorIhSaIhEEC2ERKS1_ @2060
    _ZNSt6vectorIhSaIhEEC2Ev @2061
    _ZNSt6vectorIhSaIhEED2Ev @2062
    _ZNSt6vectorIiSaIiEE12emplace_backIJiEEEvDpOT_ @2063
    _ZNSt6vectorIiSaIiEE17_M_realloc_insertIJiEEEvN9__gnu_cxx17__normal_iteratorIPiS1_EEDpOT_ @2064
    _ZNSt6vectorIiSaIiEE4rendEv @2065
    _ZNSt6vectorIiSaIiEE6rbeginEv @2066
    _ZNSt6vectorIiSaIiEE9push_backEOi @2067
    _ZNSt7__cxx1110_List_baseIN7CAN4CQF21GatewayTransformation5QInfoESaIS3_EE10_List_implC2Ev @2068
    _ZNSt7__cxx1110_List_baseIN7CAN4CQF21GatewayTransformation5QInfoESaIS3_EE10_List_implD2Ev @2069
    _ZNSt7__cxx1110_List_baseIN7CAN4CQF21GatewayTransformation5QInfoESaIS3_EE11_M_get_nodeEv @2070
    _ZNSt7__cxx1110_List_baseIN7CAN4CQF21GatewayTransformation5QInfoESaIS3_EE11_M_inc_sizeEy @2071
    _ZNSt7__cxx1110_List_baseIN7CAN4CQF21GatewayTransformation5QInfoESaIS3_EE11_M_put_nodeEPSt10_List_nodeIS3_E @2072
    _ZNSt7__cxx1110_List_baseIN7CAN4CQF21GatewayTransformation5QInfoESaIS3_EE21_M_get_Node_allocatorEv @2073
    _ZNSt7__cxx1110_List_baseIN7CAN4CQF21GatewayTransformation5QInfoESaIS3_EE8_M_clearEv @2074
    _ZNSt7__cxx1110_List_baseIN7CAN4CQF21GatewayTransformation5QInfoESaIS3_EEC2Ev @2075
    _ZNSt7__cxx1110_List_baseIN7CAN4CQF21GatewayTransformation5QInfoESaIS3_EED2Ev @2076
    _ZNSt7__cxx1110_List_baseIN7CAN4CQF24EDFGatewayTransformation5QInfoESaIS3_EE10_List_implC2Ev @2077
    _ZNSt7__cxx1110_List_baseIN7CAN4CQF24EDFGatewayTransformation5QInfoESaIS3_EE10_List_implD2Ev @2078
    _ZNSt7__cxx1110_List_baseIN7CAN4CQF24EDFGatewayTransformation5QInfoESaIS3_EE11_M_get_nodeEv @2079
    _ZNSt7__cxx1110_List_baseIN7CAN4CQF24EDFGatewayTransformation5QInfoESaIS3_EE11_M_inc_sizeEy @2080
    _ZNSt7__cxx1110_List_baseIN7CAN4CQF24EDFGatewayTransformation5QInfoESaIS3_EE11_M_put_nodeEPSt10_List_nodeIS3_E @2081
    _ZNSt7__cxx1110_List_baseIN7CAN4CQF24EDFGatewayTransformation5QInfoESaIS3_EE21_M_get_Node_allocatorEv @2082
    _ZNSt7__cxx1110_List_baseIN7CAN4CQF24EDFGatewayTransformation5QInfoESaIS3_EE8_M_clearEv @2083
    _ZNSt7__cxx1110_List_baseIN7CAN4CQF24EDFGatewayTransformation5QInfoESaIS3_EEC2Ev @2084
    _ZNSt7__cxx1110_List_baseIN7CAN4CQF24EDFGatewayTransformation5QInfoESaIS3_EED2Ev @2085
    _ZNSt7__cxx1110_List_baseIN7CAN4CQF24RAEGatewayTransformation5QInfoESaIS3_EE10_List_implC2Ev @2086
    _ZNSt7__cxx1110_List_baseIN7CAN4CQF24RAEGatewayTransformation5QInfoESaIS3_EE10_List_implD2Ev @2087
    _ZNSt7__cxx1110_List_baseIN7CAN4CQF24RAEGatewayTransformation5QInfoESaIS3_EE11_M_get_nodeEv @2088
    _ZNSt7__cxx1110_List_baseIN7CAN4CQF24RAEGatewayTransformation5QInfoESaIS3_EE11_M_inc_sizeEy @2089
    _ZNSt7__cxx1110_List_baseIN7CAN4CQF24RAEGatewayTransformation5QInfoESaIS3_EE11_M_put_nodeEPSt10_List_nodeIS3_E @2090
    _ZNSt7__cxx1110_List_baseIN7CAN4CQF24RAEGatewayTransformation5QInfoESaIS3_EE21_M_get_Node_allocatorEv @2091
    _ZNSt7__cxx1110_List_baseIN7CAN4CQF24RAEGatewayTransformation5QInfoESaIS3_EE8_M_clearEv @2092
    _ZNSt7__cxx1110_List_baseIN7CAN4CQF24RAEGatewayTransformation5QInfoESaIS3_EEC2Ev @2093
    _ZNSt7__cxx1110_List_baseIN7CAN4CQF24RAEGatewayTransformation5QInfoESaIS3_EED2Ev @2094
    _ZNSt7__cxx1110_List_baseIN7CAN4CQF24VarGatewayTransformation5QInfoESaIS3_EE10_List_implC2Ev @2095
    _ZNSt7__cxx1110_List_baseIN7CAN4CQF24VarGatewayTransformation5QInfoESaIS3_EE10_List_implD2Ev @2096
    _ZNSt7__cxx1110_List_baseIN7CAN4CQF24VarGatewayTransformation5QInfoESaIS3_EE11_M_get_nodeEv @2097
    _ZNSt7__cxx1110_List_baseIN7CAN4CQF24VarGatewayTransformation5QInfoESaIS3_EE11_M_inc_sizeEy @2098
    _ZNSt7__cxx1110_List_baseIN7CAN4CQF24VarGatewayTransformation5QInfoESaIS3_EE11_M_put_nodeEPSt10_List_nodeIS3_E @2099
    _ZNSt7__cxx1110_List_baseIN7CAN4CQF24VarGatewayTransformation5QInfoESaIS3_EE21_M_get_Node_allocatorEv @2100
    _ZNSt7__cxx1110_List_baseIN7CAN4CQF24VarGatewayTransformation5QInfoESaIS3_EE8_M_clearEv @2101
    _ZNSt7__cxx1110_List_baseIN7CAN4CQF24VarGatewayTransformation5QInfoESaIS3_EEC2Ev @2102
    _ZNSt7__cxx1110_List_baseIN7CAN4CQF24VarGatewayTransformation5QInfoESaIS3_EED2Ev @2103
    _ZNSt7__cxx1110_List_baseIN7CAN4CQF28TimeoutGatewayTransformation5QInfoESaIS3_EE10_List_implC2Ev @2104
    _ZNSt7__cxx1110_List_baseIN7CAN4CQF28TimeoutGatewayTransformation5QInfoESaIS3_EE10_List_implD2Ev @2105
    _ZNSt7__cxx1110_List_baseIN7CAN4CQF28TimeoutGatewayTransformation5QInfoESaIS3_EE11_M_get_nodeEv @2106
    _ZNSt7__cxx1110_List_baseIN7CAN4CQF28TimeoutGatewayTransformation5QInfoESaIS3_EE11_M_inc_sizeEy @2107
    _ZNSt7__cxx1110_List_baseIN7CAN4CQF28TimeoutGatewayTransformation5QInfoESaIS3_EE11_M_put_nodeEPSt10_List_nodeIS3_E @2108
    _ZNSt7__cxx1110_List_baseIN7CAN4CQF28TimeoutGatewayTransformation5QInfoESaIS3_EE21_M_get_Node_allocatorEv @2109
    _ZNSt7__cxx1110_List_baseIN7CAN4CQF28TimeoutGatewayTransformation5QInfoESaIS3_EE8_M_clearEv @2110
    _ZNSt7__cxx1110_List_baseIN7CAN4CQF28TimeoutGatewayTransformation5QInfoESaIS3_EEC2Ev @2111
    _ZNSt7__cxx1110_List_baseIN7CAN4CQF28TimeoutGatewayTransformation5QInfoESaIS3_EED2Ev @2112
    _ZNSt7__cxx1110_List_baseIPN10FiCo4OMNeT12CanDataFrameESaIS3_EE11_M_dec_sizeEy @2113
    _ZNSt7__cxx1110_List_baseIPN10FiCo4OMNeT12CanDataFrameESaIS3_EE13_M_move_nodesEOS5_ @2114
    _ZNSt7__cxx1110_List_baseIPN9CoRE4INET6BufferESaIS3_EE10_List_implC2Ev @2115
    _ZNSt7__cxx1110_List_baseIPN9CoRE4INET6BufferESaIS3_EE10_List_implD2Ev @2116
    _ZNSt7__cxx1110_List_baseIPN9CoRE4INET6BufferESaIS3_EE11_M_get_nodeEv @2117
    _ZNSt7__cxx1110_List_baseIPN9CoRE4INET6BufferESaIS3_EE11_M_inc_sizeEy @2118
    _ZNSt7__cxx1110_List_baseIPN9CoRE4INET6BufferESaIS3_EE11_M_put_nodeEPSt10_List_nodeIS3_E @2119
    _ZNSt7__cxx1110_List_baseIPN9CoRE4INET6BufferESaIS3_EE21_M_get_Node_allocatorEv @2120
    _ZNSt7__cxx1110_List_baseIPN9CoRE4INET6BufferESaIS3_EE8_M_clearEv @2121
    _ZNSt7__cxx1110_List_baseIPN9CoRE4INET6BufferESaIS3_EEC2Ev @2122
    _ZNSt7__cxx1110_List_baseIPN9CoRE4INET6BufferESaIS3_EED2Ev @2123
    _ZNSt7__cxx114listIN7CAN4CQF21GatewayTransformation5QInfoESaIS3_EE14_M_create_nodeIJRKS3_EEEPSt10_List_nodeIS3_EDpOT_ @2124
    _ZNSt7__cxx114listIN7CAN4CQF21GatewayTransformation5QInfoESaIS3_EE3endEv @2125
    _ZNSt7__cxx114listIN7CAN4CQF21GatewayTransformation5QInfoESaIS3_EE5beginEv @2126
    _ZNSt7__cxx114listIN7CAN4CQF21GatewayTransformation5QInfoESaIS3_EE9_M_insertIJRKS3_EEEvSt14_List_iteratorIS3_EDpOT_ @2127
    _ZNSt7__cxx114listIN7CAN4CQF21GatewayTransformation5QInfoESaIS3_EE9push_backERKS3_ @2128
    _ZNSt7__cxx114listIN7CAN4CQF21GatewayTransformation5QInfoESaIS3_EEC2Ev @2129
    _ZNSt7__cxx114listIN7CAN4CQF21GatewayTransformation5QInfoESaIS3_EED2Ev @2130
    _ZNSt7__cxx114listIN7CAN4CQF24EDFGatewayTransformation5QInfoESaIS3_EE14_M_create_nodeIJRKS3_EEEPSt10_List_nodeIS3_EDpOT_ @2131
    _ZNSt7__cxx114listIN7CAN4CQF24EDFGatewayTransformation5QInfoESaIS3_EE3endEv @2132
    _ZNSt7__cxx114listIN7CAN4CQF24EDFGatewayTransformation5QInfoESaIS3_EE5beginEv @2133
    _ZNSt7__cxx114listIN7CAN4CQF24EDFGatewayTransformation5QInfoESaIS3_EE9_M_insertIJRKS3_EEEvSt14_List_iteratorIS3_EDpOT_ @2134
    _ZNSt7__cxx114listIN7CAN4CQF24EDFGatewayTransformation5QInfoESaIS3_EE9push_backERKS3_ @2135
    _ZNSt7__cxx114listIN7CAN4CQF24EDFGatewayTransformation5QInfoESaIS3_EEC2Ev @2136
    _ZNSt7__cxx114listIN7CAN4CQF24EDFGatewayTransformation5QInfoESaIS3_EED2Ev @2137
    _ZNSt7__cxx114listIN7CAN4CQF24RAEGatewayTransformation5QInfoESaIS3_EE14_M_create_nodeIJRKS3_EEEPSt10_List_nodeIS3_EDpOT_ @2138
    _ZNSt7__cxx114listIN7CAN4CQF24RAEGatewayTransformation5QInfoESaIS3_EE3endEv @2139
    _ZNSt7__cxx114listIN7CAN4CQF24RAEGatewayTransformation5QInfoESaIS3_EE5beginEv @2140
    _ZNSt7__cxx114listIN7CAN4CQF24RAEGatewayTransformation5QInfoESaIS3_EE9_M_insertIJRKS3_EEEvSt14_List_iteratorIS3_EDpOT_ @2141
    _ZNSt7__cxx114listIN7CAN4CQF24RAEGatewayTransformation5QInfoESaIS3_EE9push_backERKS3_ @2142
    _ZNSt7__cxx114listIN7CAN4CQF24RAEGatewayTransformation5QInfoESaIS3_EEC2Ev @2143
    _ZNSt7__cxx114listIN7CAN4CQF24RAEGatewayTransformation5QInfoESaIS3_EED2Ev @2144
    _ZNSt7__cxx114listIN7CAN4CQF24VarGatewayTransformation5QInfoESaIS3_EE14_M_create_nodeIJRKS3_EEEPSt10_List_nodeIS3_EDpOT_ @2145
    _ZNSt7__cxx114listIN7CAN4CQF24VarGatewayTransformation5QInfoESaIS3_EE3endEv @2146
    _ZNSt7__cxx114listIN7CAN4CQF24VarGatewayTransformation5QInfoESaIS3_EE5beginEv @2147
    _ZNSt7__cxx114listIN7CAN4CQF24VarGatewayTransformation5QInfoESaIS3_EE9_M_insertIJRKS3_EEEvSt14_List_iteratorIS3_EDpOT_ @2148
    _ZNSt7__cxx114listIN7CAN4CQF24VarGatewayTransformation5QInfoESaIS3_EE9push_backERKS3_ @2149
    _ZNSt7__cxx114listIN7CAN4CQF24VarGatewayTransformation5QInfoESaIS3_EEC2Ev @2150
    _ZNSt7__cxx114listIN7CAN4CQF24VarGatewayTransformation5QInfoESaIS3_EED2Ev @2151
    _ZNSt7__cxx114listIN7CAN4CQF28TimeoutGatewayTransformation5QInfoESaIS3_EE14_M_create_nodeIJRKS3_EEEPSt10_List_nodeIS3_EDpOT_ @2152
    _ZNSt7__cxx114listIN7CAN4CQF28TimeoutGatewayTransformation5QInfoESaIS3_EE3endEv @2153
    _ZNSt7__cxx114listIN7CAN4CQF28TimeoutGatewayTransformation5QInfoESaIS3_EE5beginEv @2154
    _ZNSt7__cxx114listIN7CAN4CQF28TimeoutGatewayTransformation5QInfoESaIS3_EE9_M_insertIJRKS3_EEEvSt14_List_iteratorIS3_EDpOT_ @2155
    _ZNSt7__cxx114listIN7CAN4CQF28TimeoutGatewayTransformation5QInfoESaIS3_EE9push_backERKS3_ @2156
    _ZNSt7__cxx114listIN7CAN4CQF28TimeoutGatewayTransformation5QInfoESaIS3_EEC2Ev @2157
    _ZNSt7__cxx114listIN7CAN4CQF28TimeoutGatewayTransformation5QInfoESaIS3_EED2Ev @2158
    _ZNSt7__cxx114listIPN10FiCo4OMNeT12CanDataFrameESaIS3_EE14_M_move_assignEOS5_St17integral_constantIbLb1EE @2159
    _ZNSt7__cxx114listIPN10FiCo4OMNeT12CanDataFrameESaIS3_EE5eraseESt20_List_const_iteratorIS3_E @2160
    _ZNSt7__cxx114listIPN10FiCo4OMNeT12CanDataFrameESaIS3_EE5frontEv @2161
    _ZNSt7__cxx114listIPN10FiCo4OMNeT12CanDataFrameESaIS3_EE6insertESt20_List_const_iteratorIS3_ERKS3_ @2162
    _ZNSt7__cxx114listIPN10FiCo4OMNeT12CanDataFrameESaIS3_EE8_M_eraseESt14_List_iteratorIS3_E @2163
    _ZNSt7__cxx114listIPN10FiCo4OMNeT12CanDataFrameESaIS3_EE9pop_frontEv @2164
    _ZNSt7__cxx114listIPN10FiCo4OMNeT12CanDataFrameESaIS3_EEaSEOS5_ @2165
    _ZNSt7__cxx114listIPN9CoRE4INET6BufferESaIS3_EE14_M_create_nodeIJRKS3_EEEPSt10_List_nodeIS3_EDpOT_ @2166
    _ZNSt7__cxx114listIPN9CoRE4INET6BufferESaIS3_EE3endEv @2167
    _ZNSt7__cxx114listIPN9CoRE4INET6BufferESaIS3_EE5beginEv @2168
    _ZNSt7__cxx114listIPN9CoRE4INET6BufferESaIS3_EE9_M_insertIJRKS3_EEEvSt14_List_iteratorIS3_EDpOT_ @2169
    _ZNSt7__cxx114listIPN9CoRE4INET6BufferESaIS3_EE9push_backERKS3_ @2170
    _ZNSt7__cxx114listIPN9CoRE4INET6BufferESaIS3_EEC2Ev @2171
    _ZNSt7__cxx114listIPN9CoRE4INET6BufferESaIS3_EED2Ev @2172
    _ZNSt7__cxx114stoiERKNS_12basic_stringIcSt11char_traitsIcESaIcEEEPyi @2173
    _ZNSt8_Rb_treeINSt7__cxx1112basic_stringIcSt11char_traitsIcESaIcEEESt4pairIKS5_N8nlohmann16json_abi_v3_11_310basic_jsonISt3mapSt6vectorS5_bxydSaNS9_14adl_serializerESC_IhSaIhEEvEEESt10_Select1stISH_ESt4lessIvESaISH_EE10_Auto_node9_M_insertES6_IPSt18_Rb_tree_node_baseSQ_E @2174
    _ZNSt8_Rb_treeINSt7__cxx1112basic_stringIcSt11char_traitsIcESaIcEEESt4pairIKS5_N8nlohmann16json_abi_v3_11_310basic_jsonISt3mapSt6vectorS5_bxydSaNS9_14adl_serializerESC_IhSaIhEEvEEESt10_Select1stISH_ESt4lessIvESaISH_EE10_Auto_nodeC2IJS5_DnEEERSN_DpOT_ @2175
    _ZNSt8_Rb_treeINSt7__cxx1112basic_stringIcSt11char_traitsIcESaIcEEESt4pairIKS5_N8nlohmann16json_abi_v3_11_310basic_jsonISt3mapSt6vectorS5_bxydSaNS9_14adl_serializerESC_IhSaIhEEvEEESt10_Select1stISH_ESt4lessIvESaISH_EE10_Auto_nodeC2IJS5_SG_EEERSN_DpOT_ @2176
    _ZNSt8_Rb_treeINSt7__cxx1112basic_stringIcSt11char_traitsIcESaIcEEESt4pairIKS5_N8nlohmann16json_abi_v3_11_310basic_jsonISt3mapSt6vectorS5_bxydSaNS9_14adl_serializerESC_IhSaIhEEvEEESt10_Select1stISH_ESt4lessIvESaISH_EE10_Auto_nodeD2Ev @2177
    _ZNSt8_Rb_treeINSt7__cxx1112basic_stringIcSt11char_traitsIcESaIcEEESt4pairIKS5_N8nlohmann16json_abi_v3_11_310basic_jsonISt3mapSt6vectorS5_bxydSaNS9_14adl_serializerESC_IhSaIhEEvEEESt10_Select1stISH_ESt4lessIvESaISH_EE10_S_maximumEPSt18_Rb_tree_node_base @2178
    _ZNSt8_Rb_treeINSt7__cxx1112basic_stringIcSt11char_traitsIcESaIcEEESt4pairIKS5_N8nlohmann16json_abi_v3_11_310basic_jsonISt3mapSt6vectorS5_bxydSaNS9_14adl_serializerESC_IhSaIhEEvEEESt10_Select1stISH_ESt4lessIvESaISH_EE10_S_minimumEPSt18_Rb_tree_node_base @2179
    _ZNSt8_Rb_treeINSt7__cxx1112basic_stringIcSt11char_traitsIcESaIcEEESt4pairIKS5_N8nlohmann16json_abi_v3_11_310basic_jsonISt3mapSt6vectorS5_bxydSaNS9_14adl_serializerESC_IhSaIhEEvEEESt10_Select1stISH_ESt4lessIvESaISH_EE11_Alloc_nodeC2ERSN_ @2180
    _ZNSt8_Rb_treeINSt7__cxx1112basic_stringIcSt11char_traitsIcESaIcEEESt4pairIKS5_N8nlohmann16json_abi_v3_11_310basic_jsonISt3mapSt6vectorS5_bxydSaNS9_14adl_serializerESC_IhSaIhEEvEEESt10_Select1stISH_ESt4lessIvESaISH_EE11_M_get_nodeEv @2181
    _ZNSt8_Rb_treeINSt7__cxx1112basic_stringIcSt11char_traitsIcESaIcEEESt4pairIKS5_N8nlohmann16json_abi_v3_11_310basic_jsonISt3mapSt6vectorS5_bxydSaNS9_14adl_serializerESC_IhSaIhEEvEEESt10_Select1stISH_ESt4lessIvESaISH_EE11_M_leftmostEv @2182
    _ZNSt8_Rb_treeINSt7__cxx1112basic_stringIcSt11char_traitsIcESaIcEEESt4pairIKS5_N8nlohmann16json_abi_v3_11_310basic_jsonISt3mapSt6vectorS5_bxydSaNS9_14adl_serializerESC_IhSaIhEEvEEESt10_Select1stISH_ESt4lessIvESaISH_EE11_M_put_nodeEPSt13_Rb_tree_nodeISH_E @2183
    _ZNSt8_Rb_treeINSt7__cxx1112basic_stringIcSt11char_traitsIcESaIcEEESt4pairIKS5_N8nlohmann16json_abi_v3_11_310basic_jsonISt3mapSt6vectorS5_bxydSaNS9_14adl_serializerESC_IhSaIhEEvEEESt10_Select1stISH_ESt4lessIvESaISH_EE12_M_drop_nodeEPSt13_Rb_tree_nodeISH_E @2184
    _ZNSt8_Rb_treeINSt7__cxx1112basic_stringIcSt11char_traitsIcESaIcEEESt4pairIKS5_N8nlohmann16json_abi_v3_11_310basic_jsonISt3mapSt6vectorS5_bxydSaNS9_14adl_serializerESC_IhSaIhEEvEEESt10_Select1stISH_ESt4lessIvESaISH_EE12_M_rightmostEv @2185
    _ZNSt8_Rb_treeINSt7__cxx1112basic_stringIcSt11char_traitsIcESaIcEEESt4pairIKS5_N8nlohmann16json_abi_v3_11_310basic_jsonISt3mapSt6vectorS5_bxydSaNS9_14adl_serializerESC_IhSaIhEEvEEESt10_Select1stISH_ESt4lessIvESaISH_EE13_M_clone_nodeILb0ENSN_11_Alloc_nodeEEEPSt13_Rb_tree_nodeISH_ESS_RT0_ @2186
    _ZNSt8_Rb_treeINSt7__cxx1112basic_stringIcSt11char_traitsIcESaIcEEESt4pairIKS5_N8nlohmann16json_abi_v3_11_310basic_jsonISt3mapSt6vectorS5_bxydSaNS9_14adl_serializerESC_IhSaIhEEvEEESt10_Select1stISH_ESt4lessIvESaISH_EE13_Rb_tree_implISL_Lb1EEC2ERKSP_ @2187
    _ZNSt8_Rb_treeINSt7__cxx1112basic_stringIcSt11char_traitsIcESaIcEEESt4pairIKS5_N8nlohmann16json_abi_v3_11_310basic_jsonISt3mapSt6vectorS5_bxydSaNS9_14adl_serializerESC_IhSaIhEEvEEESt10_Select1stISH_ESt4lessIvESaISH_EE13_Rb_tree_implISL_Lb1EEC2Ev @2188
    _ZNSt8_Rb_treeINSt7__cxx1112basic_stringIcSt11char_traitsIcESaIcEEESt4pairIKS5_N8nlohmann16json_abi_v3_11_310basic_jsonISt3mapSt6vectorS5_bxydSaNS9_14adl_serializerESC_IhSaIhEEvEEESt10_Select1stISH_ESt4lessIvESaISH_EE13_Rb_tree_implISL_Lb1EED2Ev @2189
    _ZNSt8_Rb_treeINSt7__cxx1112basic_stringIcSt11char_traitsIcESaIcEEESt4pairIKS5_N8nlohmann16json_abi_v3_11_310basic_jsonISt3mapSt6vectorS5_bxydSaNS9_14adl_serializerESC_IhSaIhEEvEEESt10_Select1stISH_ESt4lessIvESaISH_EE14_M_create_nodeIJRKSH_EEEPSt13_Rb_tree_nodeISH_EDpOT_ @2190
    _ZNSt8_Rb_treeINSt7__cxx1112basic_stringIcSt11char_traitsIcESaIcEEESt4pairIKS5_N8nlohmann16json_abi_v3_11_310basic_jsonISt3mapSt6vectorS5_bxydSaNS9_14adl_serializerESC_IhSaIhEEvEEESt10_Select1stISH_ESt4lessIvESaISH_EE14_M_create_nodeIJS5_DnEEEPSt13_Rb_tree_nodeISH_EDpOT_ @2191
    _ZNSt8_Rb_treeINSt7__cxx1112basic_stringIcSt11char_traitsIcESaIcEEESt4pairIKS5_N8nlohmann16json_abi_v3_11_310basic_jsonISt3mapSt6vectorS5_bxydSaNS9_14adl_serializerESC_IhSaIhEEvEEESt10_Select1stISH_ESt4lessIvESaISH_EE14_M_create_nodeIJS5_SG_EEEPSt13_Rb_tree_nodeISH_EDpOT_ @2192
    _ZNSt8_Rb_treeINSt7__cxx1112basic_stringIcSt11char_traitsIcESaIcEEESt4pairIKS5_N8nlohmann16json_abi_v3_11_310basic_jsonISt3mapSt6vectorS5_bxydSaNS9_14adl_serializerESC_IhSaIhEEvEEESt10_Select1stISH_ESt4lessIvESaISH_EE14_M_insert_nodeEPSt18_Rb_tree_node_baseSP_PSt13_Rb_tree_nodeISH_E @2193
    _ZNSt8_Rb_treeINSt7__cxx1112basic_stringIcSt11char_traitsIcESaIcEEESt4pairIKS5_N8nlohmann16json_abi_v3_11_310basic_jsonISt3mapSt6vectorS5_bxydSaNS9_14adl_serializerESC_IhSaIhEEvEEESt10_Select1stISH_ESt4lessIvESaISH_EE15_M_destroy_nodeEPSt13_Rb_tree_nodeISH_E @2194
    _ZNSt8_Rb_treeINSt7__cxx1112basic_stringIcSt11char_traitsIcESaIcEEESt4pairIKS5_N8nlohmann16json_abi_v3_11_310basic_jsonISt3mapSt6vectorS5_bxydSaNS9_14adl_serializerESC_IhSaIhEEvEEESt10_Select1stISH_ESt4lessIvESaISH_EE17_M_construct_nodeIJRKSH_EEEvPSt13_Rb_tree_nodeISH_EDpOT_ @2195
    _ZNSt8_Rb_treeINSt7__cxx1112basic_stringIcSt11char_traitsIcESaIcEEESt4pairIKS5_N8nlohmann16json_abi_v3_11_310basic_jsonISt3mapSt6vectorS5_bxydSaNS9_14adl_serializerESC_IhSaIhEEvEEESt10_Select1stISH_ESt4lessIvESaISH_EE17_M_construct_nodeIJS5_DnEEEvPSt13_Rb_tree_nodeISH_EDpOT_ @2196
    _ZNSt8_Rb_treeINSt7__cxx1112basic_stringIcSt11char_traitsIcESaIcEEESt4pairIKS5_N8nlohmann16json_abi_v3_11_310basic_jsonISt3mapSt6vectorS5_bxydSaNS9_14adl_serializerESC_IhSaIhEEvEEESt10_Select1stISH_ESt4lessIvESaISH_EE17_M_construct_nodeIJS5_SG_EEEvPSt13_Rb_tree_nodeISH_EDpOT_ @2197
    _ZNSt8_Rb_treeINSt7__cxx1112basic_stringIcSt11char_traitsIcESaIcEEESt4pairIKS5_N8nlohmann16json_abi_v3_11_310basic_jsonISt3mapSt6vectorS5_bxydSaNS9_14adl_serializerESC_IhSaIhEEvEEESt10_Select1stISH_ESt4lessIvESaISH_EE17_M_emplace_uniqueIJS5_DnEEES6_ISt17_Rb_tree_iteratorISH_EbEDpOT_ @2198
    _ZNSt8_Rb_treeINSt7__cxx1112basic_stringIcSt11char_traitsIcESaIcEEESt4pairIKS5_N8nlohmann16json_abi_v3_11_310basic_jsonISt3mapSt6vectorS5_bxydSaNS9_14adl_serializerESC_IhSaIhEEvEEESt10_Select1stISH_ESt4lessIvESaISH_EE17_M_emplace_uniqueIJS5_SG_EEES6_ISt17_Rb_tree_iteratorISH_EbEDpOT_ @2199
    _ZNSt8_Rb_treeINSt7__cxx1112basic_stringIcSt11char_traitsIcESaIcEEESt4pairIKS5_N8nlohmann16json_abi_v3_11_310basic_jsonISt3mapSt6vectorS5_bxydSaNS9_14adl_serializerESC_IhSaIhEEvEEESt10_Select1stISH_ESt4lessIvESaISH_EE21_M_get_Node_allocatorEv @2200
    _ZNSt8_Rb_treeINSt7__cxx1112basic_stringIcSt11char_traitsIcESaIcEEESt4pairIKS5_N8nlohmann16json_abi_v3_11_310basic_jsonISt3mapSt6vectorS5_bxydSaNS9_14adl_serializerESC_IhSaIhEEvEEESt10_Select1stISH_ESt4lessIvESaISH_EE24_M_get_insert_unique_posERS7_ @2201
    _ZNSt8_Rb_treeINSt7__cxx1112basic_stringIcSt11char_traitsIcESaIcEEESt4pairIKS5_N8nlohmann16json_abi_v3_11_310basic_jsonISt3mapSt6vectorS5_bxydSaNS9_14adl_serializerESC_IhSaIhEEvEEESt10_Select1stISH_ESt4lessIvESaISH_EE3endEv @2202
    _ZNSt8_Rb_treeINSt7__cxx1112basic_stringIcSt11char_traitsIcESaIcEEESt4pairIKS5_N8nlohmann16json_abi_v3_11_310basic_jsonISt3mapSt6vectorS5_bxydSaNS9_14adl_serializerESC_IhSaIhEEvEEESt10_Select1stISH_ESt4lessIvESaISH_EE5beginEv @2203
    _ZNSt8_Rb_treeINSt7__cxx1112basic_stringIcSt11char_traitsIcESaIcEEESt4pairIKS5_N8nlohmann16json_abi_v3_11_310basic_jsonISt3mapSt6vectorS5_bxydSaNS9_14adl_serializerESC_IhSaIhEEvEEESt10_Select1stISH_ESt4lessIvESaISH_EE5clearEv @2204
    _ZNSt8_Rb_treeINSt7__cxx1112basic_stringIcSt11char_traitsIcESaIcEEESt4pairIKS5_N8nlohmann16json_abi_v3_11_310basic_jsonISt3mapSt6vectorS5_bxydSaNS9_14adl_serializerESC_IhSaIhEEvEEESt10_Select1stISH_ESt4lessIvESaISH_EE6_M_endEv @2205
    _ZNSt8_Rb_treeINSt7__cxx1112basic_stringIcSt11char_traitsIcESaIcEEESt4pairIKS5_N8nlohmann16json_abi_v3_11_310basic_jsonISt3mapSt6vectorS5_bxydSaNS9_14adl_serializerESC_IhSaIhEEvEEESt10_Select1stISH_ESt4lessIvESaISH_EE6_S_keyEPKSt13_Rb_tree_nodeISH_E @2206
    _ZNSt8_Rb_treeINSt7__cxx1112basic_stringIcSt11char_traitsIcESaIcEEESt4pairIKS5_N8nlohmann16json_abi_v3_11_310basic_jsonISt3mapSt6vectorS5_bxydSaNS9_14adl_serializerESC_IhSaIhEEvEEESt10_Select1stISH_ESt4lessIvESaISH_EE6_S_keyEPKSt18_Rb_tree_node_base @2207
    _ZNSt8_Rb_treeINSt7__cxx1112basic_stringIcSt11char_traitsIcESaIcEEESt4pairIKS5_N8nlohmann16json_abi_v3_11_310basic_jsonISt3mapSt6vectorS5_bxydSaNS9_14adl_serializerESC_IhSaIhEEvEEESt10_Select1stISH_ESt4lessIvESaISH_EE7_M_copyERKSN_ @2208
    _ZNSt8_Rb_treeINSt7__cxx1112basic_stringIcSt11char_traitsIcESaIcEEESt4pairIKS5_N8nlohmann16json_abi_v3_11_310basic_jsonISt3mapSt6vectorS5_bxydSaNS9_14adl_serializerESC_IhSaIhEEvEEESt10_Select1stISH_ESt4lessIvESaISH_EE7_M_copyILb0ENSN_11_Alloc_nodeEEEPSt13_Rb_tree_nodeISH_ERKSN_RT0_ @2209
    _ZNSt8_Rb_treeINSt7__cxx1112basic_stringIcSt11char_traitsIcESaIcEEESt4pairIKS5_N8nlohmann16json_abi_v3_11_310basic_jsonISt3mapSt6vectorS5_bxydSaNS9_14adl_serializerESC_IhSaIhEEvEEESt10_Select1stISH_ESt4lessIvESaISH_EE7_M_copyILb0ENSN_11_Alloc_nodeEEEPSt13_Rb_tree_nodeISH_ESS_PSt18_Rb_tree_node_baseRT0_ @2210
    _ZNSt8_Rb_treeINSt7__cxx1112basic_stringIcSt11char_traitsIcESaIcEEESt4pairIKS5_N8nlohmann16json_abi_v3_11_310basic_jsonISt3mapSt6vectorS5_bxydSaNS9_14adl_serializerESC_IhSaIhEEvEEESt10_Select1stISH_ESt4lessIvESaISH_EE7_M_rootEv @2211
    _ZNSt8_Rb_treeINSt7__cxx1112basic_stringIcSt11char_traitsIcESaIcEEESt4pairIKS5_N8nlohmann16json_abi_v3_11_310basic_jsonISt3mapSt6vectorS5_bxydSaNS9_14adl_serializerESC_IhSaIhEEvEEESt10_Select1stISH_ESt4lessIvESaISH_EE7_S_leftEPSt18_Rb_tree_node_base @2212
    _ZNSt8_Rb_treeINSt7__cxx1112basic_stringIcSt11char_traitsIcESaIcEEESt4pairIKS5_N8nlohmann16json_abi_v3_11_310basic_jsonISt3mapSt6vectorS5_bxydSaNS9_14adl_serializerESC_IhSaIhEEvEEESt10_Select1stISH_ESt4lessIvESaISH_EE8_M_beginEv @2213
    _ZNSt8_Rb_treeINSt7__cxx1112basic_stringIcSt11char_traitsIcESaIcEEESt4pairIKS5_N8nlohmann16json_abi_v3_11_310basic_jsonISt3mapSt6vectorS5_bxydSaNS9_14adl_serializerESC_IhSaIhEEvEEESt10_Select1stISH_ESt4lessIvESaISH_EE8_M_eraseEPSt13_Rb_tree_nodeISH_E @2214
    _ZNSt8_Rb_treeINSt7__cxx1112basic_stringIcSt11char_traitsIcESaIcEEESt4pairIKS5_N8nlohmann16json_abi_v3_11_310basic_jsonISt3mapSt6vectorS5_bxydSaNS9_14adl_serializerESC_IhSaIhEEvEEESt10_Select1stISH_ESt4lessIvESaISH_EE8_S_rightEPSt18_Rb_tree_node_base @2215
    _ZNSt8_Rb_treeINSt7__cxx1112basic_stringIcSt11char_traitsIcESaIcEEESt4pairIKS5_N8nlohmann16json_abi_v3_11_310basic_jsonISt3mapSt6vectorS5_bxydSaNS9_14adl_serializerESC_IhSaIhEEvEEESt10_Select1stISH_ESt4lessIvESaISH_EEC2ERKSN_ @2216
    _ZNSt8_Rb_treeINSt7__cxx1112basic_stringIcSt11char_traitsIcESaIcEEESt4pairIKS5_N8nlohmann16json_abi_v3_11_310basic_jsonISt3mapSt6vectorS5_bxydSaNS9_14adl_serializerESC_IhSaIhEEvEEESt10_Select1stISH_ESt4lessIvESaISH_EEC2Ev @2217
    _ZNSt8_Rb_treeINSt7__cxx1112basic_stringIcSt11char_traitsIcESaIcEEESt4pairIKS5_N8nlohmann16json_abi_v3_11_310basic_jsonISt3mapSt6vectorS5_bxydSaNS9_14adl_serializerESC_IhSaIhEEvEEESt10_Select1stISH_ESt4lessIvESaISH_EED2Ev @2218
    _ZNSt8_Rb_treeIPN10FiCo4OMNeT12CanDataFrameESt4pairIKS2_N7omnetpp7SimTimeEESt10_Select1stIS7_ESt4lessIS2_ESaIS7_EE10_Auto_node9_M_insertES3_IPSt18_Rb_tree_node_baseSG_E @2219
    _ZNSt8_Rb_treeIPN10FiCo4OMNeT12CanDataFrameESt4pairIKS2_N7omnetpp7SimTimeEESt10_Select1stIS7_ESt4lessIS2_ESaIS7_EE10_Auto_nodeC2IJRKSt21piecewise_construct_tSt5tupleIJRS4_EESJ_IJEEEEERSD_DpOT_ @2220
    _ZNSt8_Rb_treeIPN10FiCo4OMNeT12CanDataFrameESt4pairIKS2_N7omnetpp7SimTimeEESt10_Select1stIS7_ESt4lessIS2_ESaIS7_EE10_Auto_nodeC2IJS3_IS2_S6_EEEERSD_DpOT_ @2221
    _ZNSt8_Rb_treeIPN10FiCo4OMNeT12CanDataFrameESt4pairIKS2_N7omnetpp7SimTimeEESt10_Select1stIS7_ESt4lessIS2_ESaIS7_EE10_Auto_nodeD2Ev @2222
    _ZNSt8_Rb_treeIPN10FiCo4OMNeT12CanDataFrameESt4pairIKS2_N7omnetpp7SimTimeEESt10_Select1stIS7_ESt4lessIS2_ESaIS7_EE10_S_maximumEPSt18_Rb_tree_node_base @2223
    _ZNSt8_Rb_treeIPN10FiCo4OMNeT12CanDataFrameESt4pairIKS2_N7omnetpp7SimTimeEESt10_Select1stIS7_ESt4lessIS2_ESaIS7_EE10_S_minimumEPSt18_Rb_tree_node_base @2224
    _ZNSt8_Rb_treeIPN10FiCo4OMNeT12CanDataFrameESt4pairIKS2_N7omnetpp7SimTimeEESt10_Select1stIS7_ESt4lessIS2_ESaIS7_EE11_Alloc_nodeC2ERSD_ @2225
    _ZNSt8_Rb_treeIPN10FiCo4OMNeT12CanDataFrameESt4pairIKS2_N7omnetpp7SimTimeEESt10_Select1stIS7_ESt4lessIS2_ESaIS7_EE11_M_get_nodeEv @2226
    _ZNSt8_Rb_treeIPN10FiCo4OMNeT12CanDataFrameESt4pairIKS2_N7omnetpp7SimTimeEESt10_Select1stIS7_ESt4lessIS2_ESaIS7_EE11_M_leftmostEv @2227
    _ZNSt8_Rb_treeIPN10FiCo4OMNeT12CanDataFrameESt4pairIKS2_N7omnetpp7SimTimeEESt10_Select1stIS7_ESt4lessIS2_ESaIS7_EE11_M_put_nodeEPSt13_Rb_tree_nodeIS7_E @2228
    _ZNSt8_Rb_treeIPN10FiCo4OMNeT12CanDataFrameESt4pairIKS2_N7omnetpp7SimTimeEESt10_Select1stIS7_ESt4lessIS2_ESaIS7_EE11equal_rangeERS4_ @2229
    _ZNSt8_Rb_treeIPN10FiCo4OMNeT12CanDataFrameESt4pairIKS2_N7omnetpp7SimTimeEESt10_Select1stIS7_ESt4lessIS2_ESaIS7_EE11lower_boundERS4_ @2230
    _ZNSt8_Rb_treeIPN10FiCo4OMNeT12CanDataFrameESt4pairIKS2_N7omnetpp7SimTimeEESt10_Select1stIS7_ESt4lessIS2_ESaIS7_EE12_M_drop_nodeEPSt13_Rb_tree_nodeIS7_E @2231
    _ZNSt8_Rb_treeIPN10FiCo4OMNeT12CanDataFrameESt4pairIKS2_N7omnetpp7SimTimeEESt10_Select1stIS7_ESt4lessIS2_ESaIS7_EE12_M_erase_auxESt23_Rb_tree_const_iteratorIS7_E @2232
    _ZNSt8_Rb_treeIPN10FiCo4OMNeT12CanDataFrameESt4pairIKS2_N7omnetpp7SimTimeEESt10_Select1stIS7_ESt4lessIS2_ESaIS7_EE12_M_erase_auxESt23_Rb_tree_const_iteratorIS7_ESF_ @2233
    _ZNSt8_Rb_treeIPN10FiCo4OMNeT12CanDataFrameESt4pairIKS2_N7omnetpp7SimTimeEESt10_Select1stIS7_ESt4lessIS2_ESaIS7_EE12_M_move_dataERSD_St17integral_constantIbLb1EE @2234
    _ZNSt8_Rb_treeIPN10FiCo4OMNeT12CanDataFrameESt4pairIKS2_N7omnetpp7SimTimeEESt10_Select1stIS7_ESt4lessIS2_ESaIS7_EE12_M_rightmostEv @2235
    _ZNSt8_Rb_treeIPN10FiCo4OMNeT12CanDataFrameESt4pairIKS2_N7omnetpp7SimTimeEESt10_Select1stIS7_ESt4lessIS2_ESaIS7_EE13_M_clone_nodeILb0ENSD_11_Alloc_nodeEEEPSt13_Rb_tree_nodeIS7_ESI_RT0_ @2236
    _ZNSt8_Rb_treeIPN10FiCo4OMNeT12CanDataFrameESt4pairIKS2_N7omnetpp7SimTimeEESt10_Select1stIS7_ESt4lessIS2_ESaIS7_EE13_Rb_tree_implISB_Lb1EEC2ERKSF_ @2237
    _ZNSt8_Rb_treeIPN10FiCo4OMNeT12CanDataFrameESt4pairIKS2_N7omnetpp7SimTimeEESt10_Select1stIS7_ESt4lessIS2_ESaIS7_EE13_Rb_tree_implISB_Lb1EEC2Ev @2238
    _ZNSt8_Rb_treeIPN10FiCo4OMNeT12CanDataFrameESt4pairIKS2_N7omnetpp7SimTimeEESt10_Select1stIS7_ESt4lessIS2_ESaIS7_EE13_Rb_tree_implISB_Lb1EED2Ev @2239
    _ZNSt8_Rb_treeIPN10FiCo4OMNeT12CanDataFrameESt4pairIKS2_N7omnetpp7SimTimeEESt10_Select1stIS7_ESt4lessIS2_ESaIS7_EE14_M_create_nodeIJRKS7_EEEPSt13_Rb_tree_nodeIS7_EDpOT_ @2240
    _ZNSt8_Rb_treeIPN10FiCo4OMNeT12CanDataFrameESt4pairIKS2_N7omnetpp7SimTimeEESt10_Select1stIS7_ESt4lessIS2_ESaIS7_EE14_M_create_nodeIJRKSt21piecewise_construct_tSt5tupleIJRS4_EESI_IJEEEEEPSt13_Rb_tree_nodeIS7_EDpOT_ @2241
    _ZNSt8_Rb_treeIPN10FiCo4OMNeT12CanDataFrameESt4pairIKS2_N7omnetpp7SimTimeEESt10_Select1stIS7_ESt4lessIS2_ESaIS7_EE14_M_create_nodeIJS3_IS2_S6_EEEEPSt13_Rb_tree_nodeIS7_EDpOT_ @2242
    _ZNSt8_Rb_treeIPN10FiCo4OMNeT12CanDataFrameESt4pairIKS2_N7omnetpp7SimTimeEESt10_Select1stIS7_ESt4lessIS2_ESaIS7_EE14_M_insert_nodeEPSt18_Rb_tree_node_baseSF_PSt13_Rb_tree_nodeIS7_E @2243
    _ZNSt8_Rb_treeIPN10FiCo4OMNeT12CanDataFrameESt4pairIKS2_N7omnetpp7SimTimeEESt10_Select1stIS7_ESt4lessIS2_ESaIS7_EE14_M_lower_boundEPSt13_Rb_tree_nodeIS7_EPSt18_Rb_tree_node_baseRS4_ @2244
    _ZNSt8_Rb_treeIPN10FiCo4OMNeT12CanDataFrameESt4pairIKS2_N7omnetpp7SimTimeEESt10_Select1stIS7_ESt4lessIS2_ESaIS7_EE14_M_move_assignERSD_St17integral_constantIbLb1EE @2245
    _ZNSt8_Rb_treeIPN10FiCo4OMNeT12CanDataFrameESt4pairIKS2_N7omnetpp7SimTimeEESt10_Select1stIS7_ESt4lessIS2_ESaIS7_EE14_M_upper_boundEPSt13_Rb_tree_nodeIS7_EPSt18_Rb_tree_node_baseRS4_ @2246
    _ZNSt8_Rb_treeIPN10FiCo4OMNeT12CanDataFrameESt4pairIKS2_N7omnetpp7SimTimeEESt10_Select1stIS7_ESt4lessIS2_ESaIS7_EE15_M_destroy_nodeEPSt13_Rb_tree_nodeIS7_E @2247
    _ZNSt8_Rb_treeIPN10FiCo4OMNeT12CanDataFrameESt4pairIKS2_N7omnetpp7SimTimeEESt10_Select1stIS7_ESt4lessIS2_ESaIS7_EE17_M_construct_nodeIJRKS7_EEEvPSt13_Rb_tree_nodeIS7_EDpOT_ @2248
    _ZNSt8_Rb_treeIPN10FiCo4OMNeT12CanDataFrameESt4pairIKS2_N7omnetpp7SimTimeEESt10_Select1stIS7_ESt4lessIS2_ESaIS7_EE17_M_construct_nodeIJRKSt21piecewise_construct_tSt5tupleIJRS4_EESI_IJEEEEEvPSt13_Rb_tree_nodeIS7_EDpOT_ @2249
    _ZNSt8_Rb_treeIPN10FiCo4OMNeT12CanDataFrameESt4pairIKS2_N7omnetpp7SimTimeEESt10_Select1stIS7_ESt4lessIS2_ESaIS7_EE17_M_construct_nodeIJS3_IS2_S6_EEEEvPSt13_Rb_tree_nodeIS7_EDpOT_ @2250
    _ZNSt8_Rb_treeIPN10FiCo4OMNeT12CanDataFrameESt4pairIKS2_N7omnetpp7SimTimeEESt10_Select1stIS7_ESt4lessIS2_ESaIS7_EE17_M_emplace_uniqueIJS3_IS2_S6_EEEES3_ISt17_Rb_tree_iteratorIS7_EbEDpOT_ @2251
    _ZNSt8_Rb_treeIPN10FiCo4OMNeT12CanDataFrameESt4pairIKS2_N7omnetpp7SimTimeEESt10_Select1stIS7_ESt4lessIS2_ESaIS7_EE21_M_get_Node_allocatorEv @2252
    _ZNSt8_Rb_treeIPN10FiCo4OMNeT12CanDataFrameESt4pairIKS2_N7omnetpp7SimTimeEESt10_Select1stIS7_ESt4lessIS2_ESaIS7_EE22_M_emplace_hint_uniqueIJRKSt21piecewise_construct_tSt5tupleIJRS4_EESI_IJEEEEESt17_Rb_tree_iteratorIS7_ESt23_Rb_tree_const_iteratorIS7_EDpOT_ @2253
    _ZNSt8_Rb_treeIPN10FiCo4OMNeT12CanDataFrameESt4pairIKS2_N7omnetpp7SimTimeEESt10_Select1stIS7_ESt4lessIS2_ESaIS7_EE24_M_get_insert_unique_posERS4_ @2254
    _ZNSt8_Rb_treeIPN10FiCo4OMNeT12CanDataFrameESt4pairIKS2_N7omnetpp7SimTimeEESt10_Select1stIS7_ESt4lessIS2_ESaIS7_EE29_M_get_insert_hint_unique_posESt23_Rb_tree_const_iteratorIS7_ERS4_ @2255
    _ZNSt8_Rb_treeIPN10FiCo4OMNeT12CanDataFrameESt4pairIKS2_N7omnetpp7SimTimeEESt10_Select1stIS7_ESt4lessIS2_ESaIS7_EE3endEv @2256
    _ZNSt8_Rb_treeIPN10FiCo4OMNeT12CanDataFrameESt4pairIKS2_N7omnetpp7SimTimeEESt10_Select1stIS7_ESt4lessIS2_ESaIS7_EE5beginEv @2257
    _ZNSt8_Rb_treeIPN10FiCo4OMNeT12CanDataFrameESt4pairIKS2_N7omnetpp7SimTimeEESt10_Select1stIS7_ESt4lessIS2_ESaIS7_EE5clearEv @2258
    _ZNSt8_Rb_treeIPN10FiCo4OMNeT12CanDataFrameESt4pairIKS2_N7omnetpp7SimTimeEESt10_Select1stIS7_ESt4lessIS2_ESaIS7_EE5eraseERS4_ @2259
    _ZNSt8_Rb_treeIPN10FiCo4OMNeT12CanDataFrameESt4pairIKS2_N7omnetpp7SimTimeEESt10_Select1stIS7_ESt4lessIS2_ESaIS7_EE6_M_endEv @2260
    _ZNSt8_Rb_treeIPN10FiCo4OMNeT12CanDataFrameESt4pairIKS2_N7omnetpp7SimTimeEESt10_Select1stIS7_ESt4lessIS2_ESaIS7_EE6_S_keyEPKSt13_Rb_tree_nodeIS7_E @2261
    _ZNSt8_Rb_treeIPN10FiCo4OMNeT12CanDataFrameESt4pairIKS2_N7omnetpp7SimTimeEESt10_Select1stIS7_ESt4lessIS2_ESaIS7_EE6_S_keyEPKSt18_Rb_tree_node_base @2262
    _ZNSt8_Rb_treeIPN10FiCo4OMNeT12CanDataFrameESt4pairIKS2_N7omnetpp7SimTimeEESt10_Select1stIS7_ESt4lessIS2_ESaIS7_EE7_M_copyERKSD_ @2263
    _ZNSt8_Rb_treeIPN10FiCo4OMNeT12CanDataFrameESt4pairIKS2_N7omnetpp7SimTimeEESt10_Select1stIS7_ESt4lessIS2_ESaIS7_EE7_M_copyILb0ENSD_11_Alloc_nodeEEEPSt13_Rb_tree_nodeIS7_ERKSD_RT0_ @2264
    _ZNSt8_Rb_treeIPN10FiCo4OMNeT12CanDataFrameESt4pairIKS2_N7omnetpp7SimTimeEESt10_Select1stIS7_ESt4lessIS2_ESaIS7_EE7_M_copyILb0ENSD_11_Alloc_nodeEEEPSt13_Rb_tree_nodeIS7_ESI_PSt18_Rb_tree_node_baseRT0_ @2265
    _ZNSt8_Rb_treeIPN10FiCo4OMNeT12CanDataFrameESt4pairIKS2_N7omnetpp7SimTimeEESt10_Select1stIS7_ESt4lessIS2_ESaIS7_EE7_M_rootEv @2266
    _ZNSt8_Rb_treeIPN10FiCo4OMNeT12CanDataFrameESt4pairIKS2_N7omnetpp7SimTimeEESt10_Select1stIS7_ESt4lessIS2_ESaIS7_EE7_S_leftEPSt18_Rb_tree_node_base @2267
    _ZNSt8_Rb_treeIPN10FiCo4OMNeT12CanDataFrameESt4pairIKS2_N7omnetpp7SimTimeEESt10_Select1stIS7_ESt4lessIS2_ESaIS7_EE8_M_beginEv @2268
    _ZNSt8_Rb_treeIPN10FiCo4OMNeT12CanDataFrameESt4pairIKS2_N7omnetpp7SimTimeEESt10_Select1stIS7_ESt4lessIS2_ESaIS7_EE8_M_eraseEPSt13_Rb_tree_nodeIS7_E @2269
    _ZNSt8_Rb_treeIPN10FiCo4OMNeT12CanDataFrameESt4pairIKS2_N7omnetpp7SimTimeEESt10_Select1stIS7_ESt4lessIS2_ESaIS7_EE8_S_rightEPSt18_Rb_tree_node_base @2270
    _ZNSt8_Rb_treeIPN10FiCo4OMNeT12CanDataFrameESt4pairIKS2_N7omnetpp7SimTimeEESt10_Select1stIS7_ESt4lessIS2_ESaIS7_EEC2ERKSD_ @2271
    _ZNSt8_Rb_treeIPN10FiCo4OMNeT12CanDataFrameESt4pairIKS2_N7omnetpp7SimTimeEESt10_Select1stIS7_ESt4lessIS2_ESaIS7_EEC2Ev @2272
    _ZNSt8_Rb_treeIPN10FiCo4OMNeT12CanDataFrameESt4pairIKS2_N7omnetpp7SimTimeEESt10_Select1stIS7_ESt4lessIS2_ESaIS7_EED2Ev @2273
    _ZNSt8_Rb_treeIPN10FiCo4OMNeT12CanDataFrameESt4pairIKS2_N7omnetpp7SimTimeEESt10_Select1stIS7_ESt4lessIS2_ESaIS7_EEaSEOSD_ @2274
    _ZNSt8_Rb_treeIPN10FiCo4OMNeT12CanDataFrameESt4pairIKS2_dESt10_Select1stIS5_ESt4lessIS2_ESaIS5_EE10_Auto_node9_M_insertES3_IPSt18_Rb_tree_node_baseSE_E @2275
    _ZNSt8_Rb_treeIPN10FiCo4OMNeT12CanDataFrameESt4pairIKS2_dESt10_Select1stIS5_ESt4lessIS2_ESaIS5_EE10_Auto_nodeC2IJRKSt21piecewise_construct_tSt5tupleIJRS4_EESH_IJEEEEERSB_DpOT_ @2276
    _ZNSt8_Rb_treeIPN10FiCo4OMNeT12CanDataFrameESt4pairIKS2_dESt10_Select1stIS5_ESt4lessIS2_ESaIS5_EE10_Auto_nodeC2IJS3_IS2_dEEEERSB_DpOT_ @2277
    _ZNSt8_Rb_treeIPN10FiCo4OMNeT12CanDataFrameESt4pairIKS2_dESt10_Select1stIS5_ESt4lessIS2_ESaIS5_EE10_Auto_nodeD2Ev @2278
    _ZNSt8_Rb_treeIPN10FiCo4OMNeT12CanDataFrameESt4pairIKS2_dESt10_Select1stIS5_ESt4lessIS2_ESaIS5_EE10_S_maximumEPSt18_Rb_tree_node_base @2279
    _ZNSt8_Rb_treeIPN10FiCo4OMNeT12CanDataFrameESt4pairIKS2_dESt10_Select1stIS5_ESt4lessIS2_ESaIS5_EE10_S_minimumEPSt18_Rb_tree_node_base @2280
    _ZNSt8_Rb_treeIPN10FiCo4OMNeT12CanDataFrameESt4pairIKS2_dESt10_Select1stIS5_ESt4lessIS2_ESaIS5_EE11_Alloc_nodeC2ERSB_ @2281
    _ZNSt8_Rb_treeIPN10FiCo4OMNeT12CanDataFrameESt4pairIKS2_dESt10_Select1stIS5_ESt4lessIS2_ESaIS5_EE11_M_get_nodeEv @2282
    _ZNSt8_Rb_treeIPN10FiCo4OMNeT12CanDataFrameESt4pairIKS2_dESt10_Select1stIS5_ESt4lessIS2_ESaIS5_EE11_M_leftmostEv @2283
    _ZNSt8_Rb_treeIPN10FiCo4OMNeT12CanDataFrameESt4pairIKS2_dESt10_Select1stIS5_ESt4lessIS2_ESaIS5_EE11_M_put_nodeEPSt13_Rb_tree_nodeIS5_E @2284
    _ZNSt8_Rb_treeIPN10FiCo4OMNeT12CanDataFrameESt4pairIKS2_dESt10_Select1stIS5_ESt4lessIS2_ESaIS5_EE11lower_boundERS4_ @2285
    _ZNSt8_Rb_treeIPN10FiCo4OMNeT12CanDataFrameESt4pairIKS2_dESt10_Select1stIS5_ESt4lessIS2_ESaIS5_EE12_M_drop_nodeEPSt13_Rb_tree_nodeIS5_E @2286
    _ZNSt8_Rb_treeIPN10FiCo4OMNeT12CanDataFrameESt4pairIKS2_dESt10_Select1stIS5_ESt4lessIS2_ESaIS5_EE12_M_move_dataERSB_St17integral_constantIbLb1EE @2287
    _ZNSt8_Rb_treeIPN10FiCo4OMNeT12CanDataFrameESt4pairIKS2_dESt10_Select1stIS5_ESt4lessIS2_ESaIS5_EE12_M_rightmostEv @2288
    _ZNSt8_Rb_treeIPN10FiCo4OMNeT12CanDataFrameESt4pairIKS2_dESt10_Select1stIS5_ESt4lessIS2_ESaIS5_EE13_M_clone_nodeILb0ENSB_11_Alloc_nodeEEEPSt13_Rb_tree_nodeIS5_ESG_RT0_ @2289
    _ZNSt8_Rb_treeIPN10FiCo4OMNeT12CanDataFrameESt4pairIKS2_dESt10_Select1stIS5_ESt4lessIS2_ESaIS5_EE13_M_clone_nodeILb0ENSB_20_Reuse_or_alloc_nodeEEEPSt13_Rb_tree_nodeIS5_ESG_RT0_ @2290
    _ZNSt8_Rb_treeIPN10FiCo4OMNeT12CanDataFrameESt4pairIKS2_dESt10_Select1stIS5_ESt4lessIS2_ESaIS5_EE13_Rb_tree_implIS9_Lb1EEC2ERKSD_ @2291
    _ZNSt8_Rb_treeIPN10FiCo4OMNeT12CanDataFrameESt4pairIKS2_dESt10_Select1stIS5_ESt4lessIS2_ESaIS5_EE13_Rb_tree_implIS9_Lb1EEC2Ev @2292
    _ZNSt8_Rb_treeIPN10FiCo4OMNeT12CanDataFrameESt4pairIKS2_dESt10_Select1stIS5_ESt4lessIS2_ESaIS5_EE13_Rb_tree_implIS9_Lb1EED2Ev @2293
    _ZNSt8_Rb_treeIPN10FiCo4OMNeT12CanDataFrameESt4pairIKS2_dESt10_Select1stIS5_ESt4lessIS2_ESaIS5_EE14_M_create_nodeIJRKS5_EEEPSt13_Rb_tree_nodeIS5_EDpOT_ @2294
    _ZNSt8_Rb_treeIPN10FiCo4OMNeT12CanDataFrameESt4pairIKS2_dESt10_Select1stIS5_ESt4lessIS2_ESaIS5_EE14_M_create_nodeIJRKSt21piecewise_construct_tSt5tupleIJRS4_EESG_IJEEEEEPSt13_Rb_tree_nodeIS5_EDpOT_ @2295
    _ZNSt8_Rb_treeIPN10FiCo4OMNeT12CanDataFrameESt4pairIKS2_dESt10_Select1stIS5_ESt4lessIS2_ESaIS5_EE14_M_create_nodeIJS3_IS2_dEEEEPSt13_Rb_tree_nodeIS5_EDpOT_ @2296
    _ZNSt8_Rb_treeIPN10FiCo4OMNeT12CanDataFrameESt4pairIKS2_dESt10_Select1stIS5_ESt4lessIS2_ESaIS5_EE14_M_insert_nodeEPSt18_Rb_tree_node_baseSD_PSt13_Rb_tree_nodeIS5_E @2297
    _ZNSt8_Rb_treeIPN10FiCo4OMNeT12CanDataFrameESt4pairIKS2_dESt10_Select1stIS5_ESt4lessIS2_ESaIS5_EE14_M_lower_boundEPSt13_Rb_tree_nodeIS5_EPSt18_Rb_tree_node_baseRS4_ @2298
    _ZNSt8_Rb_treeIPN10FiCo4OMNeT12CanDataFrameESt4pairIKS2_dESt10_Select1stIS5_ESt4lessIS2_ESaIS5_EE14_M_move_assignERSB_St17integral_constantIbLb1EE @2299
    _ZNSt8_Rb_treeIPN10FiCo4OMNeT12CanDataFrameESt4pairIKS2_dESt10_Select1stIS5_ESt4lessIS2_ESaIS5_EE15_M_destroy_nodeEPSt13_Rb_tree_nodeIS5_E @2300
    _ZNSt8_Rb_treeIPN10FiCo4OMNeT12CanDataFrameESt4pairIKS2_dESt10_Select1stIS5_ESt4lessIS2_ESaIS5_EE17_M_construct_nodeIJRKS5_EEEvPSt13_Rb_tree_nodeIS5_EDpOT_ @2301
    _ZNSt8_Rb_treeIPN10FiCo4OMNeT12CanDataFrameESt4pairIKS2_dESt10_Select1stIS5_ESt4lessIS2_ESaIS5_EE17_M_construct_nodeIJRKSt21piecewise_construct_tSt5tupleIJRS4_EESG_IJEEEEEvPSt13_Rb_tree_nodeIS5_EDpOT_ @2302
    _ZNSt8_Rb_treeIPN10FiCo4OMNeT12CanDataFrameESt4pairIKS2_dESt10_Select1stIS5_ESt4lessIS2_ESaIS5_EE17_M_construct_nodeIJS3_IS2_dEEEEvPSt13_Rb_tree_nodeIS5_EDpOT_ @2303
    _ZNSt8_Rb_treeIPN10FiCo4OMNeT12CanDataFrameESt4pairIKS2_dESt10_Select1stIS5_ESt4lessIS2_ESaIS5_EE17_M_emplace_uniqueIJS3_IS2_dEEEES3_ISt17_Rb_tree_iteratorIS5_EbEDpOT_ @2304
    _ZNSt8_Rb_treeIPN10FiCo4OMNeT12CanDataFrameESt4pairIKS2_dESt10_Select1stIS5_ESt4lessIS2_ESaIS5_EE20_Reuse_or_alloc_node10_M_extractEv @2305
    _ZNSt8_Rb_treeIPN10FiCo4OMNeT12CanDataFrameESt4pairIKS2_dESt10_Select1stIS5_ESt4lessIS2_ESaIS5_EE20_Reuse_or_alloc_nodeC2ERSB_ @2306
    _ZNSt8_Rb_treeIPN10FiCo4OMNeT12CanDataFrameESt4pairIKS2_dESt10_Select1stIS5_ESt4lessIS2_ESaIS5_EE20_Reuse_or_alloc_nodeD2Ev @2307
    _ZNSt8_Rb_treeIPN10FiCo4OMNeT12CanDataFrameESt4pairIKS2_dESt10_Select1stIS5_ESt4lessIS2_ESaIS5_EE20_Reuse_or_alloc_nodeclIRKS5_EEPSt13_Rb_tree_nodeIS5_EOT_ @2308
    _ZNSt8_Rb_treeIPN10FiCo4OMNeT12CanDataFrameESt4pairIKS2_dESt10_Select1stIS5_ESt4lessIS2_ESaIS5_EE21_M_get_Node_allocatorEv @2309
    _ZNSt8_Rb_treeIPN10FiCo4OMNeT12CanDataFrameESt4pairIKS2_dESt10_Select1stIS5_ESt4lessIS2_ESaIS5_EE22_M_emplace_hint_uniqueIJRKSt21piecewise_construct_tSt5tupleIJRS4_EESG_IJEEEEESt17_Rb_tree_iteratorIS5_ESt23_Rb_tree_const_iteratorIS5_EDpOT_ @2310
    _ZNSt8_Rb_treeIPN10FiCo4OMNeT12CanDataFrameESt4pairIKS2_dESt10_Select1stIS5_ESt4lessIS2_ESaIS5_EE24_M_get_insert_unique_posERS4_ @2311
    _ZNSt8_Rb_treeIPN10FiCo4OMNeT12CanDataFrameESt4pairIKS2_dESt10_Select1stIS5_ESt4lessIS2_ESaIS5_EE29_M_get_insert_hint_unique_posESt23_Rb_tree_const_iteratorIS5_ERS4_ @2312
    _ZNSt8_Rb_treeIPN10FiCo4OMNeT12CanDataFrameESt4pairIKS2_dESt10_Select1stIS5_ESt4lessIS2_ESaIS5_EE3endEv @2313
    _ZNSt8_Rb_treeIPN10FiCo4OMNeT12CanDataFrameESt4pairIKS2_dESt10_Select1stIS5_ESt4lessIS2_ESaIS5_EE4findERS4_ @2314
    _ZNSt8_Rb_treeIPN10FiCo4OMNeT12CanDataFrameESt4pairIKS2_dESt10_Select1stIS5_ESt4lessIS2_ESaIS5_EE5beginEv @2315
    _ZNSt8_Rb_treeIPN10FiCo4OMNeT12CanDataFrameESt4pairIKS2_dESt10_Select1stIS5_ESt4lessIS2_ESaIS5_EE5clearEv @2316
    _ZNSt8_Rb_treeIPN10FiCo4OMNeT12CanDataFrameESt4pairIKS2_dESt10_Select1stIS5_ESt4lessIS2_ESaIS5_EE6_M_endEv @2317
    _ZNSt8_Rb_treeIPN10FiCo4OMNeT12CanDataFrameESt4pairIKS2_dESt10_Select1stIS5_ESt4lessIS2_ESaIS5_EE6_S_keyEPKSt13_Rb_tree_nodeIS5_E @2318
    _ZNSt8_Rb_treeIPN10FiCo4OMNeT12CanDataFrameESt4pairIKS2_dESt10_Select1stIS5_ESt4lessIS2_ESaIS5_EE6_S_keyEPKSt18_Rb_tree_node_base @2319
    _ZNSt8_Rb_treeIPN10FiCo4OMNeT12CanDataFrameESt4pairIKS2_dESt10_Select1stIS5_ESt4lessIS2_ESaIS5_EE7_M_copyERKSB_ @2320
    _ZNSt8_Rb_treeIPN10FiCo4OMNeT12CanDataFrameESt4pairIKS2_dESt10_Select1stIS5_ESt4lessIS2_ESaIS5_EE7_M_copyILb0ENSB_11_Alloc_nodeEEEPSt13_Rb_tree_nodeIS5_ERKSB_RT0_ @2321
    _ZNSt8_Rb_treeIPN10FiCo4OMNeT12CanDataFrameESt4pairIKS2_dESt10_Select1stIS5_ESt4lessIS2_ESaIS5_EE7_M_copyILb0ENSB_11_Alloc_nodeEEEPSt13_Rb_tree_nodeIS5_ESG_PSt18_Rb_tree_node_baseRT0_ @2322
    _ZNSt8_Rb_treeIPN10FiCo4OMNeT12CanDataFrameESt4pairIKS2_dESt10_Select1stIS5_ESt4lessIS2_ESaIS5_EE7_M_copyILb0ENSB_20_Reuse_or_alloc_nodeEEEPSt13_Rb_tree_nodeIS5_ERKSB_RT0_ @2323
    _ZNSt8_Rb_treeIPN10FiCo4OMNeT12CanDataFrameESt4pairIKS2_dESt10_Select1stIS5_ESt4lessIS2_ESaIS5_EE7_M_copyILb0ENSB_20_Reuse_or_alloc_nodeEEEPSt13_Rb_tree_nodeIS5_ESG_PSt18_Rb_tree_node_baseRT0_ @2324
    _ZNSt8_Rb_treeIPN10FiCo4OMNeT12CanDataFrameESt4pairIKS2_dESt10_Select1stIS5_ESt4lessIS2_ESaIS5_EE7_M_rootEv @2325
    _ZNSt8_Rb_treeIPN10FiCo4OMNeT12CanDataFrameESt4pairIKS2_dESt10_Select1stIS5_ESt4lessIS2_ESaIS5_EE7_S_leftEPSt18_Rb_tree_node_base @2326
    _ZNSt8_Rb_treeIPN10FiCo4OMNeT12CanDataFrameESt4pairIKS2_dESt10_Select1stIS5_ESt4lessIS2_ESaIS5_EE8_M_beginEv @2327
    _ZNSt8_Rb_treeIPN10FiCo4OMNeT12CanDataFrameESt4pairIKS2_dESt10_Select1stIS5_ESt4lessIS2_ESaIS5_EE8_M_eraseEPSt13_Rb_tree_nodeIS5_E @2328
    _ZNSt8_Rb_treeIPN10FiCo4OMNeT12CanDataFrameESt4pairIKS2_dESt10_Select1stIS5_ESt4lessIS2_ESaIS5_EE8_S_rightEPSt18_Rb_tree_node_base @2329
    _ZNSt8_Rb_treeIPN10FiCo4OMNeT12CanDataFrameESt4pairIKS2_dESt10_Select1stIS5_ESt4lessIS2_ESaIS5_EEC2ERKSB_ @2330
    _ZNSt8_Rb_treeIPN10FiCo4OMNeT12CanDataFrameESt4pairIKS2_dESt10_Select1stIS5_ESt4lessIS2_ESaIS5_EEC2Ev @2331
    _ZNSt8_Rb_treeIPN10FiCo4OMNeT12CanDataFrameESt4pairIKS2_dESt10_Select1stIS5_ESt4lessIS2_ESaIS5_EED2Ev @2332
    _ZNSt8_Rb_treeIPN10FiCo4OMNeT12CanDataFrameESt4pairIKS2_dESt10_Select1stIS5_ESt4lessIS2_ESaIS5_EEaSEOSB_ @2333
    _ZNSt8_Rb_treeIPN10FiCo4OMNeT12CanDataFrameESt4pairIKS2_dESt10_Select1stIS5_ESt4lessIS2_ESaIS5_EEaSERKSB_ @2334
    _ZNSt8_Rb_treeIiSt4pairIKiN7CAN4CQF22CircularRotationBuffer14wcrt_data_infoEESt10_Select1stIS5_ESt4lessIiESaIS5_EE10_Auto_node9_M_insertES0_IPSt18_Rb_tree_node_baseSE_E @2335
    _ZNSt8_Rb_treeIiSt4pairIKiN7CAN4CQF22CircularRotationBuffer14wcrt_data_infoEESt10_Select1stIS5_ESt4lessIiESaIS5_EE10_Auto_nodeC2IJRKSt21piecewise_construct_tSt5tupleIJRS1_EESH_IJEEEEERSB_DpOT_ @2336
    _ZNSt8_Rb_treeIiSt4pairIKiN7CAN4CQF22CircularRotationBuffer14wcrt_data_infoEESt10_Select1stIS5_ESt4lessIiESaIS5_EE10_Auto_nodeD2Ev @2337
    _ZNSt8_Rb_treeIiSt4pairIKiN7CAN4CQF22CircularRotationBuffer14wcrt_data_infoEESt10_Select1stIS5_ESt4lessIiESaIS5_EE11_M_get_nodeEv @2338
    _ZNSt8_Rb_treeIiSt4pairIKiN7CAN4CQF22CircularRotationBuffer14wcrt_data_infoEESt10_Select1stIS5_ESt4lessIiESaIS5_EE11_M_leftmostEv @2339
    _ZNSt8_Rb_treeIiSt4pairIKiN7CAN4CQF22CircularRotationBuffer14wcrt_data_infoEESt10_Select1stIS5_ESt4lessIiESaIS5_EE11_M_put_nodeEPSt13_Rb_tree_nodeIS5_E @2340
    _ZNSt8_Rb_treeIiSt4pairIKiN7CAN4CQF22CircularRotationBuffer14wcrt_data_infoEESt10_Select1stIS5_ESt4lessIiESaIS5_EE11lower_boundERS1_ @2341
    _ZNSt8_Rb_treeIiSt4pairIKiN7CAN4CQF22CircularRotationBuffer14wcrt_data_infoEESt10_Select1stIS5_ESt4lessIiESaIS5_EE12_M_drop_nodeEPSt13_Rb_tree_nodeIS5_E @2342
    _ZNSt8_Rb_treeIiSt4pairIKiN7CAN4CQF22CircularRotationBuffer14wcrt_data_infoEESt10_Select1stIS5_ESt4lessIiESaIS5_EE12_M_rightmostEv @2343
    _ZNSt8_Rb_treeIiSt4pairIKiN7CAN4CQF22CircularRotationBuffer14wcrt_data_infoEESt10_Select1stIS5_ESt4lessIiESaIS5_EE13_Rb_tree_implIS9_Lb1EEC2Ev @2344
    _ZNSt8_Rb_treeIiSt4pairIKiN7CAN4CQF22CircularRotationBuffer14wcrt_data_infoEESt10_Select1stIS5_ESt4lessIiESaIS5_EE13_Rb_tree_implIS9_Lb1EED2Ev @2345
    _ZNSt8_Rb_treeIiSt4pairIKiN7CAN4CQF22CircularRotationBuffer14wcrt_data_infoEESt10_Select1stIS5_ESt4lessIiESaIS5_EE14_M_create_nodeIJRKSt21piecewise_construct_tSt5tupleIJRS1_EESG_IJEEEEEPSt13_Rb_tree_nodeIS5_EDpOT_ @2346
    _ZNSt8_Rb_treeIiSt4pairIKiN7CAN4CQF22CircularRotationBuffer14wcrt_data_infoEESt10_Select1stIS5_ESt4lessIiESaIS5_EE14_M_insert_nodeEPSt18_Rb_tree_node_baseSD_PSt13_Rb_tree_nodeIS5_E @2347
    _ZNSt8_Rb_treeIiSt4pairIKiN7CAN4CQF22CircularRotationBuffer14wcrt_data_infoEESt10_Select1stIS5_ESt4lessIiESaIS5_EE14_M_lower_boundEPSt13_Rb_tree_nodeIS5_EPSt18_Rb_tree_node_baseRS1_ @2348
    _ZNSt8_Rb_treeIiSt4pairIKiN7CAN4CQF22CircularRotationBuffer14wcrt_data_infoEESt10_Select1stIS5_ESt4lessIiESaIS5_EE15_M_destroy_nodeEPSt13_Rb_tree_nodeIS5_E @2349
    _ZNSt8_Rb_treeIiSt4pairIKiN7CAN4CQF22CircularRotationBuffer14wcrt_data_infoEESt10_Select1stIS5_ESt4lessIiESaIS5_EE17_M_construct_nodeIJRKSt21piecewise_construct_tSt5tupleIJRS1_EESG_IJEEEEEvPSt13_Rb_tree_nodeIS5_EDpOT_ @2350
    _ZNSt8_Rb_treeIiSt4pairIKiN7CAN4CQF22CircularRotationBuffer14wcrt_data_infoEESt10_Select1stIS5_ESt4lessIiESaIS5_EE21_M_get_Node_allocatorEv @2351
    _ZNSt8_Rb_treeIiSt4pairIKiN7CAN4CQF22CircularRotationBuffer14wcrt_data_infoEESt10_Select1stIS5_ESt4lessIiESaIS5_EE22_M_emplace_hint_uniqueIJRKSt21piecewise_construct_tSt5tupleIJRS1_EESG_IJEEEEESt17_Rb_tree_iteratorIS5_ESt23_Rb_tree_const_iteratorIS5_EDpOT_ @2352
    _ZNSt8_Rb_treeIiSt4pairIKiN7CAN4CQF22CircularRotationBuffer14wcrt_data_infoEESt10_Select1stIS5_ESt4lessIiESaIS5_EE24_M_get_insert_unique_posERS1_ @2353
    _ZNSt8_Rb_treeIiSt4pairIKiN7CAN4CQF22CircularRotationBuffer14wcrt_data_infoEESt10_Select1stIS5_ESt4lessIiESaIS5_EE29_M_get_insert_hint_unique_posESt23_Rb_tree_const_iteratorIS5_ERS1_ @2354
    _ZNSt8_Rb_treeIiSt4pairIKiN7CAN4CQF22CircularRotationBuffer14wcrt_data_infoEESt10_Select1stIS5_ESt4lessIiESaIS5_EE3endEv @2355
    _ZNSt8_Rb_treeIiSt4pairIKiN7CAN4CQF22CircularRotationBuffer14wcrt_data_infoEESt10_Select1stIS5_ESt4lessIiESaIS5_EE4findERS1_ @2356
    _ZNSt8_Rb_treeIiSt4pairIKiN7CAN4CQF22CircularRotationBuffer14wcrt_data_infoEESt10_Select1stIS5_ESt4lessIiESaIS5_EE5beginEv @2357
    _ZNSt8_Rb_treeIiSt4pairIKiN7CAN4CQF22CircularRotationBuffer14wcrt_data_infoEESt10_Select1stIS5_ESt4lessIiESaIS5_EE6_M_endEv @2358
    _ZNSt8_Rb_treeIiSt4pairIKiN7CAN4CQF22CircularRotationBuffer14wcrt_data_infoEESt10_Select1stIS5_ESt4lessIiESaIS5_EE6_S_keyEPKSt13_Rb_tree_nodeIS5_E @2359
    _ZNSt8_Rb_treeIiSt4pairIKiN7CAN4CQF22CircularRotationBuffer14wcrt_data_infoEESt10_Select1stIS5_ESt4lessIiESaIS5_EE6_S_keyEPKSt18_Rb_tree_node_base @2360
    _ZNSt8_Rb_treeIiSt4pairIKiN7CAN4CQF22CircularRotationBuffer14wcrt_data_infoEESt10_Select1stIS5_ESt4lessIiESaIS5_EE7_S_leftEPSt18_Rb_tree_node_base @2361
    _ZNSt8_Rb_treeIiSt4pairIKiN7CAN4CQF22CircularRotationBuffer14wcrt_data_infoEESt10_Select1stIS5_ESt4lessIiESaIS5_EE8_M_beginEv @2362
    _ZNSt8_Rb_treeIiSt4pairIKiN7CAN4CQF22CircularRotationBuffer14wcrt_data_infoEESt10_Select1stIS5_ESt4lessIiESaIS5_EE8_M_eraseEPSt13_Rb_tree_nodeIS5_E @2363
    _ZNSt8_Rb_treeIiSt4pairIKiN7CAN4CQF22CircularRotationBuffer14wcrt_data_infoEESt10_Select1stIS5_ESt4lessIiESaIS5_EE8_S_rightEPSt18_Rb_tree_node_base @2364
    _ZNSt8_Rb_treeIiSt4pairIKiN7CAN4CQF22CircularRotationBuffer14wcrt_data_infoEESt10_Select1stIS5_ESt4lessIiESaIS5_EEC2Ev @2365
    _ZNSt8_Rb_treeIiSt4pairIKiN7CAN4CQF22CircularRotationBuffer14wcrt_data_infoEESt10_Select1stIS5_ESt4lessIiESaIS5_EED2Ev @2366
    _ZNSt8_Rb_treeIiSt4pairIKiPNSt7__cxx114listIPN7omnetpp8cMessageESaIS6_EEEESt10_Select1stISA_ESt4lessIiESaISA_EE10_Auto_node9_M_insertES0_IPSt18_Rb_tree_node_baseSJ_E @2367
    _ZNSt8_Rb_treeIiSt4pairIKiPNSt7__cxx114listIPN7omnetpp8cMessageESaIS6_EEEESt10_Select1stISA_ESt4lessIiESaISA_EE10_Auto_nodeC2IJRKSt21piecewise_construct_tSt5tupleIJOiEESM_IJEEEEERSG_DpOT_ @2368
    _ZNSt8_Rb_treeIiSt4pairIKiPNSt7__cxx114listIPN7omnetpp8cMessageESaIS6_EEEESt10_Select1stISA_ESt4lessIiESaISA_EE10_Auto_nodeC2IJS0_IjS9_EEEERSG_DpOT_ @2369
    _ZNSt8_Rb_treeIiSt4pairIKiPNSt7__cxx114listIPN7omnetpp8cMessageESaIS6_EEEESt10_Select1stISA_ESt4lessIiESaISA_EE10_Auto_nodeD2Ev @2370
    _ZNSt8_Rb_treeIiSt4pairIKiPNSt7__cxx114listIPN7omnetpp8cMessageESaIS6_EEEESt10_Select1stISA_ESt4lessIiESaISA_EE11_M_get_nodeEv @2371
    _ZNSt8_Rb_treeIiSt4pairIKiPNSt7__cxx114listIPN7omnetpp8cMessageESaIS6_EEEESt10_Select1stISA_ESt4lessIiESaISA_EE11_M_leftmostEv @2372
    _ZNSt8_Rb_treeIiSt4pairIKiPNSt7__cxx114listIPN7omnetpp8cMessageESaIS6_EEEESt10_Select1stISA_ESt4lessIiESaISA_EE11_M_put_nodeEPSt13_Rb_tree_nodeISA_E @2373
    _ZNSt8_Rb_treeIiSt4pairIKiPNSt7__cxx114listIPN7omnetpp8cMessageESaIS6_EEEESt10_Select1stISA_ESt4lessIiESaISA_EE11lower_boundERS1_ @2374
    _ZNSt8_Rb_treeIiSt4pairIKiPNSt7__cxx114listIPN7omnetpp8cMessageESaIS6_EEEESt10_Select1stISA_ESt4lessIiESaISA_EE12_M_drop_nodeEPSt13_Rb_tree_nodeISA_E @2375
    _ZNSt8_Rb_treeIiSt4pairIKiPNSt7__cxx114listIPN7omnetpp8cMessageESaIS6_EEEESt10_Select1stISA_ESt4lessIiESaISA_EE12_M_rightmostEv @2376
    _ZNSt8_Rb_treeIiSt4pairIKiPNSt7__cxx114listIPN7omnetpp8cMessageESaIS6_EEEESt10_Select1stISA_ESt4lessIiESaISA_EE13_Rb_tree_implISE_Lb1EEC2Ev @2377
    _ZNSt8_Rb_treeIiSt4pairIKiPNSt7__cxx114listIPN7omnetpp8cMessageESaIS6_EEEESt10_Select1stISA_ESt4lessIiESaISA_EE13_Rb_tree_implISE_Lb1EED2Ev @2378
    _ZNSt8_Rb_treeIiSt4pairIKiPNSt7__cxx114listIPN7omnetpp8cMessageESaIS6_EEEESt10_Select1stISA_ESt4lessIiESaISA_EE14_M_create_nodeIJRKSt21piecewise_construct_tSt5tupleIJOiEESL_IJEEEEEPSt13_Rb_tree_nodeISA_EDpOT_ @2379
    _ZNSt8_Rb_treeIiSt4pairIKiPNSt7__cxx114listIPN7omnetpp8cMessageESaIS6_EEEESt10_Select1stISA_ESt4lessIiESaISA_EE14_M_create_nodeIJS0_IjS9_EEEEPSt13_Rb_tree_nodeISA_EDpOT_ @2380
    _ZNSt8_Rb_treeIiSt4pairIKiPNSt7__cxx114listIPN7omnetpp8cMessageESaIS6_EEEESt10_Select1stISA_ESt4lessIiESaISA_EE14_M_insert_nodeEPSt18_Rb_tree_node_baseSI_PSt13_Rb_tree_nodeISA_E @2381
    _ZNSt8_Rb_treeIiSt4pairIKiPNSt7__cxx114listIPN7omnetpp8cMessageESaIS6_EEEESt10_Select1stISA_ESt4lessIiESaISA_EE14_M_lower_boundEPSt13_Rb_tree_nodeISA_EPSt18_Rb_tree_node_baseRS1_ @2382
    _ZNSt8_Rb_treeIiSt4pairIKiPNSt7__cxx114listIPN7omnetpp8cMessageESaIS6_EEEESt10_Select1stISA_ESt4lessIiESaISA_EE15_M_destroy_nodeEPSt13_Rb_tree_nodeISA_E @2383
    _ZNSt8_Rb_treeIiSt4pairIKiPNSt7__cxx114listIPN7omnetpp8cMessageESaIS6_EEEESt10_Select1stISA_ESt4lessIiESaISA_EE17_M_construct_nodeIJRKSt21piecewise_construct_tSt5tupleIJOiEESL_IJEEEEEvPSt13_Rb_tree_nodeISA_EDpOT_ @2384
    _ZNSt8_Rb_treeIiSt4pairIKiPNSt7__cxx114listIPN7omnetpp8cMessageESaIS6_EEEESt10_Select1stISA_ESt4lessIiESaISA_EE17_M_construct_nodeIJS0_IjS9_EEEEvPSt13_Rb_tree_nodeISA_EDpOT_ @2385
    _ZNSt8_Rb_treeIiSt4pairIKiPNSt7__cxx114listIPN7omnetpp8cMessageESaIS6_EEEESt10_Select1stISA_ESt4lessIiESaISA_EE17_M_emplace_uniqueIJS0_IjS9_EEEES0_ISt17_Rb_tree_iteratorISA_EbEDpOT_ @2386
    _ZNSt8_Rb_treeIiSt4pairIKiPNSt7__cxx114listIPN7omnetpp8cMessageESaIS6_EEEESt10_Select1stISA_ESt4lessIiESaISA_EE21_M_get_Node_allocatorEv @2387
    _ZNSt8_Rb_treeIiSt4pairIKiPNSt7__cxx114listIPN7omnetpp8cMessageESaIS6_EEEESt10_Select1stISA_ESt4lessIiESaISA_EE22_M_emplace_hint_uniqueIJRKSt21piecewise_construct_tSt5tupleIJOiEESL_IJEEEEESt17_Rb_tree_iteratorISA_ESt23_Rb_tree_const_iteratorISA_EDpOT_ @2388
    _ZNSt8_Rb_treeIiSt4pairIKiPNSt7__cxx114listIPN7omnetpp8cMessageESaIS6_EEEESt10_Select1stISA_ESt4lessIiESaISA_EE24_M_get_insert_unique_posERS1_ @2389
    _ZNSt8_Rb_treeIiSt4pairIKiPNSt7__cxx114listIPN7omnetpp8cMessageESaIS6_EEEESt10_Select1stISA_ESt4lessIiESaISA_EE29_M_get_insert_hint_unique_posESt23_Rb_tree_const_iteratorISA_ERS1_ @2390
    _ZNSt8_Rb_treeIiSt4pairIKiPNSt7__cxx114listIPN7omnetpp8cMessageESaIS6_EEEESt10_Select1stISA_ESt4lessIiESaISA_EE3endEv @2391
    _ZNSt8_Rb_treeIiSt4pairIKiPNSt7__cxx114listIPN7omnetpp8cMessageESaIS6_EEEESt10_Select1stISA_ESt4lessIiESaISA_EE5beginEv @2392
    _ZNSt8_Rb_treeIiSt4pairIKiPNSt7__cxx114listIPN7omnetpp8cMessageESaIS6_EEEESt10_Select1stISA_ESt4lessIiESaISA_EE6_M_endEv @2393
    _ZNSt8_Rb_treeIiSt4pairIKiPNSt7__cxx114listIPN7omnetpp8cMessageESaIS6_EEEESt10_Select1stISA_ESt4lessIiESaISA_EE6_S_keyEPKSt13_Rb_tree_nodeISA_E @2394
    _ZNSt8_Rb_treeIiSt4pairIKiPNSt7__cxx114listIPN7omnetpp8cMessageESaIS6_EEEESt10_Select1stISA_ESt4lessIiESaISA_EE6_S_keyEPKSt18_Rb_tree_node_base @2395
    _ZNSt8_Rb_treeIiSt4pairIKiPNSt7__cxx114listIPN7omnetpp8cMessageESaIS6_EEEESt10_Select1stISA_ESt4lessIiESaISA_EE7_S_leftEPSt18_Rb_tree_node_base @2396
    _ZNSt8_Rb_treeIiSt4pairIKiPNSt7__cxx114listIPN7omnetpp8cMessageESaIS6_EEEESt10_Select1stISA_ESt4lessIiESaISA_EE8_M_beginEv @2397
    _ZNSt8_Rb_treeIiSt4pairIKiPNSt7__cxx114listIPN7omnetpp8cMessageESaIS6_EEEESt10_Select1stISA_ESt4lessIiESaISA_EE8_M_eraseEPSt13_Rb_tree_nodeISA_E @2398
    _ZNSt8_Rb_treeIiSt4pairIKiPNSt7__cxx114listIPN7omnetpp8cMessageESaIS6_EEEESt10_Select1stISA_ESt4lessIiESaISA_EE8_S_rightEPSt18_Rb_tree_node_base @2399
    _ZNSt8_Rb_treeIiSt4pairIKiPNSt7__cxx114listIPN7omnetpp8cMessageESaIS6_EEEESt10_Select1stISA_ESt4lessIiESaISA_EEC2Ev @2400
    _ZNSt8_Rb_treeIiSt4pairIKiPNSt7__cxx114listIPN7omnetpp8cMessageESaIS6_EEEESt10_Select1stISA_ESt4lessIiESaISA_EED2Ev @2401
    _ZNSt8_Rb_treeIjSt4pairIKjNSt7__cxx114listIN7CAN4CQF21GatewayTransformation5QInfoESaIS6_EEEESt10_Select1stIS9_ESt4lessIjESaIS9_EE10_Auto_node9_M_insertES0_IPSt18_Rb_tree_node_baseSI_E @2402
    _ZNSt8_Rb_treeIjSt4pairIKjNSt7__cxx114listIN7CAN4CQF21GatewayTransformation5QInfoESaIS6_EEEESt10_Select1stIS9_ESt4lessIjESaIS9_EE10_Auto_nodeC2IJRKSt21piecewise_construct_tSt5tupleIJOjEESL_IJEEEEERSF_DpOT_ @2403
    _ZNSt8_Rb_treeIjSt4pairIKjNSt7__cxx114listIN7CAN4CQF21GatewayTransformation5QInfoESaIS6_EEEESt10_Select1stIS9_ESt4lessIjESaIS9_EE10_Auto_nodeD2Ev @2404
    _ZNSt8_Rb_treeIjSt4pairIKjNSt7__cxx114listIN7CAN4CQF21GatewayTransformation5QInfoESaIS6_EEEESt10_Select1stIS9_ESt4lessIjESaIS9_EE11_M_get_nodeEv @2405
    _ZNSt8_Rb_treeIjSt4pairIKjNSt7__cxx114listIN7CAN4CQF21GatewayTransformation5QInfoESaIS6_EEEESt10_Select1stIS9_ESt4lessIjESaIS9_EE11_M_leftmostEv @2406
    _ZNSt8_Rb_treeIjSt4pairIKjNSt7__cxx114listIN7CAN4CQF21GatewayTransformation5QInfoESaIS6_EEEESt10_Select1stIS9_ESt4lessIjESaIS9_EE11_M_put_nodeEPSt13_Rb_tree_nodeIS9_E @2407
    _ZNSt8_Rb_treeIjSt4pairIKjNSt7__cxx114listIN7CAN4CQF21GatewayTransformation5QInfoESaIS6_EEEESt10_Select1stIS9_ESt4lessIjESaIS9_EE11lower_boundERS1_ @2408
    _ZNSt8_Rb_treeIjSt4pairIKjNSt7__cxx114listIN7CAN4CQF21GatewayTransformation5QInfoESaIS6_EEEESt10_Select1stIS9_ESt4lessIjESaIS9_EE12_M_drop_nodeEPSt13_Rb_tree_nodeIS9_E @2409
    _ZNSt8_Rb_treeIjSt4pairIKjNSt7__cxx114listIN7CAN4CQF21GatewayTransformation5QInfoESaIS6_EEEESt10_Select1stIS9_ESt4lessIjESaIS9_EE12_M_rightmostEv @2410
    _ZNSt8_Rb_treeIjSt4pairIKjNSt7__cxx114listIN7CAN4CQF21GatewayTransformation5QInfoESaIS6_EEEESt10_Select1stIS9_ESt4lessIjESaIS9_EE13_Rb_tree_implISD_Lb1EEC2Ev @2411
    _ZNSt8_Rb_treeIjSt4pairIKjNSt7__cxx114listIN7CAN4CQF21GatewayTransformation5QInfoESaIS6_EEEESt10_Select1stIS9_ESt4lessIjESaIS9_EE13_Rb_tree_implISD_Lb1EED2Ev @2412
    _ZNSt8_Rb_treeIjSt4pairIKjNSt7__cxx114listIN7CAN4CQF21GatewayTransformation5QInfoESaIS6_EEEESt10_Select1stIS9_ESt4lessIjESaIS9_EE14_M_create_nodeIJRKSt21piecewise_construct_tSt5tupleIJOjEESK_IJEEEEEPSt13_Rb_tree_nodeIS9_EDpOT_ @2413
    _ZNSt8_Rb_treeIjSt4pairIKjNSt7__cxx114listIN7CAN4CQF21GatewayTransformation5QInfoESaIS6_EEEESt10_Select1stIS9_ESt4lessIjESaIS9_EE14_M_insert_nodeEPSt18_Rb_tree_node_baseSH_PSt13_Rb_tree_nodeIS9_E @2414
    _ZNSt8_Rb_treeIjSt4pairIKjNSt7__cxx114listIN7CAN4CQF21GatewayTransformation5QInfoESaIS6_EEEESt10_Select1stIS9_ESt4lessIjESaIS9_EE14_M_lower_boundEPSt13_Rb_tree_nodeIS9_EPSt18_Rb_tree_node_baseRS1_ @2415
    _ZNSt8_Rb_treeIjSt4pairIKjNSt7__cxx114listIN7CAN4CQF21GatewayTransformation5QInfoESaIS6_EEEESt10_Select1stIS9_ESt4lessIjESaIS9_EE15_M_destroy_nodeEPSt13_Rb_tree_nodeIS9_E @2416
    _ZNSt8_Rb_treeIjSt4pairIKjNSt7__cxx114listIN7CAN4CQF21GatewayTransformation5QInfoESaIS6_EEEESt10_Select1stIS9_ESt4lessIjESaIS9_EE17_M_construct_nodeIJRKSt21piecewise_construct_tSt5tupleIJOjEESK_IJEEEEEvPSt13_Rb_tree_nodeIS9_EDpOT_ @2417
    _ZNSt8_Rb_treeIjSt4pairIKjNSt7__cxx114listIN7CAN4CQF21GatewayTransformation5QInfoESaIS6_EEEESt10_Select1stIS9_ESt4lessIjESaIS9_EE21_M_get_Node_allocatorEv @2418
    _ZNSt8_Rb_treeIjSt4pairIKjNSt7__cxx114listIN7CAN4CQF21GatewayTransformation5QInfoESaIS6_EEEESt10_Select1stIS9_ESt4lessIjESaIS9_EE22_M_emplace_hint_uniqueIJRKSt21piecewise_construct_tSt5tupleIJOjEESK_IJEEEEESt17_Rb_tree_iteratorIS9_ESt23_Rb_tree_const_iteratorIS9_EDpOT_ @2419
    _ZNSt8_Rb_treeIjSt4pairIKjNSt7__cxx114listIN7CAN4CQF21GatewayTransformation5QInfoESaIS6_EEEESt10_Select1stIS9_ESt4lessIjESaIS9_EE24_M_get_insert_unique_posERS1_ @2420
    _ZNSt8_Rb_treeIjSt4pairIKjNSt7__cxx114listIN7CAN4CQF21GatewayTransformation5QInfoESaIS6_EEEESt10_Select1stIS9_ESt4lessIjESaIS9_EE29_M_get_insert_hint_unique_posESt23_Rb_tree_const_iteratorIS9_ERS1_ @2421
    _ZNSt8_Rb_treeIjSt4pairIKjNSt7__cxx114listIN7CAN4CQF21GatewayTransformation5QInfoESaIS6_EEEESt10_Select1stIS9_ESt4lessIjESaIS9_EE3endEv @2422
    _ZNSt8_Rb_treeIjSt4pairIKjNSt7__cxx114listIN7CAN4CQF21GatewayTransformation5QInfoESaIS6_EEEESt10_Select1stIS9_ESt4lessIjESaIS9_EE4findERS1_ @2423
    _ZNSt8_Rb_treeIjSt4pairIKjNSt7__cxx114listIN7CAN4CQF21GatewayTransformation5QInfoESaIS6_EEEESt10_Select1stIS9_ESt4lessIjESaIS9_EE5beginEv @2424
    _ZNSt8_Rb_treeIjSt4pairIKjNSt7__cxx114listIN7CAN4CQF21GatewayTransformation5QInfoESaIS6_EEEESt10_Select1stIS9_ESt4lessIjESaIS9_EE6_M_endEv @2425
    _ZNSt8_Rb_treeIjSt4pairIKjNSt7__cxx114listIN7CAN4CQF21GatewayTransformation5QInfoESaIS6_EEEESt10_Select1stIS9_ESt4lessIjESaIS9_EE6_S_keyEPKSt13_Rb_tree_nodeIS9_E @2426
    _ZNSt8_Rb_treeIjSt4pairIKjNSt7__cxx114listIN7CAN4CQF21GatewayTransformation5QInfoESaIS6_EEEESt10_Select1stIS9_ESt4lessIjESaIS9_EE6_S_keyEPKSt18_Rb_tree_node_base @2427
    _ZNSt8_Rb_treeIjSt4pairIKjNSt7__cxx114listIN7CAN4CQF21GatewayTransformation5QInfoESaIS6_EEEESt10_Select1stIS9_ESt4lessIjESaIS9_EE7_S_leftEPSt18_Rb_tree_node_base @2428
    _ZNSt8_Rb_treeIjSt4pairIKjNSt7__cxx114listIN7CAN4CQF21GatewayTransformation5QInfoESaIS6_EEEESt10_Select1stIS9_ESt4lessIjESaIS9_EE8_M_beginEv @2429
    _ZNSt8_Rb_treeIjSt4pairIKjNSt7__cxx114listIN7CAN4CQF21GatewayTransformation5QInfoESaIS6_EEEESt10_Select1stIS9_ESt4lessIjESaIS9_EE8_M_eraseEPSt13_Rb_tree_nodeIS9_E @2430
    _ZNSt8_Rb_treeIjSt4pairIKjNSt7__cxx114listIN7CAN4CQF21GatewayTransformation5QInfoESaIS6_EEEESt10_Select1stIS9_ESt4lessIjESaIS9_EE8_S_rightEPSt18_Rb_tree_node_base @2431
    _ZNSt8_Rb_treeIjSt4pairIKjNSt7__cxx114listIN7CAN4CQF21GatewayTransformation5QInfoESaIS6_EEEESt10_Select1stIS9_ESt4lessIjESaIS9_EEC2Ev @2432
    _ZNSt8_Rb_treeIjSt4pairIKjNSt7__cxx114listIN7CAN4CQF21GatewayTransformation5QInfoESaIS6_EEEESt10_Select1stIS9_ESt4lessIjESaIS9_EED2Ev @2433
    _ZNSt8_Rb_treeIjSt4pairIKjNSt7__cxx114listIN7CAN4CQF24EDFGatewayTransformation5QInfoESaIS6_EEEESt10_Select1stIS9_ESt4lessIjESaIS9_EE10_Auto_node9_M_insertES0_IPSt18_Rb_tree_node_baseSI_E @2434
    _ZNSt8_Rb_treeIjSt4pairIKjNSt7__cxx114listIN7CAN4CQF24EDFGatewayTransformation5QInfoESaIS6_EEEESt10_Select1stIS9_ESt4lessIjESaIS9_EE10_Auto_nodeC2IJRKSt21piecewise_construct_tSt5tupleIJOjEESL_IJEEEEERSF_DpOT_ @2435
    _ZNSt8_Rb_treeIjSt4pairIKjNSt7__cxx114listIN7CAN4CQF24EDFGatewayTransformation5QInfoESaIS6_EEEESt10_Select1stIS9_ESt4lessIjESaIS9_EE10_Auto_nodeD2Ev @2436
    _ZNSt8_Rb_treeIjSt4pairIKjNSt7__cxx114listIN7CAN4CQF24EDFGatewayTransformation5QInfoESaIS6_EEEESt10_Select1stIS9_ESt4lessIjESaIS9_EE11_M_get_nodeEv @2437
    _ZNSt8_Rb_treeIjSt4pairIKjNSt7__cxx114listIN7CAN4CQF24EDFGatewayTransformation5QInfoESaIS6_EEEESt10_Select1stIS9_ESt4lessIjESaIS9_EE11_M_leftmostEv @2438
    _ZNSt8_Rb_treeIjSt4pairIKjNSt7__cxx114listIN7CAN4CQF24EDFGatewayTransformation5QInfoESaIS6_EEEESt10_Select1stIS9_ESt4lessIjESaIS9_EE11_M_put_nodeEPSt13_Rb_tree_nodeIS9_E @2439
    _ZNSt8_Rb_treeIjSt4pairIKjNSt7__cxx114listIN7CAN4CQF24EDFGatewayTransformation5QInfoESaIS6_EEEESt10_Select1stIS9_ESt4lessIjESaIS9_EE11lower_boundERS1_ @2440
    _ZNSt8_Rb_treeIjSt4pairIKjNSt7__cxx114listIN7CAN4CQF24EDFGatewayTransformation5QInfoESaIS6_EEEESt10_Select1stIS9_ESt4lessIjESaIS9_EE12_M_drop_nodeEPSt13_Rb_tree_nodeIS9_E @2441
    _ZNSt8_Rb_treeIjSt4pairIKjNSt7__cxx114listIN7CAN4CQF24EDFGatewayTransformation5QInfoESaIS6_EEEESt10_Select1stIS9_ESt4lessIjESaIS9_EE12_M_rightmostEv @2442
    _ZNSt8_Rb_treeIjSt4pairIKjNSt7__cxx114listIN7CAN4CQF24EDFGatewayTransformation5QInfoESaIS6_EEEESt10_Select1stIS9_ESt4lessIjESaIS9_EE13_Rb_tree_implISD_Lb1EEC2Ev @2443
    _ZNSt8_Rb_treeIjSt4pairIKjNSt7__cxx114listIN7CAN4CQF24EDFGatewayTransformation5QInfoESaIS6_EEEESt10_Select1stIS9_ESt4lessIjESaIS9_EE13_Rb_tree_implISD_Lb1EED2Ev @2444
    _ZNSt8_Rb_treeIjSt4pairIKjNSt7__cxx114listIN7CAN4CQF24EDFGatewayTransformation5QInfoESaIS6_EEEESt10_Select1stIS9_ESt4lessIjESaIS9_EE14_M_create_nodeIJRKSt21piecewise_construct_tSt5tupleIJOjEESK_IJEEEEEPSt13_Rb_tree_nodeIS9_EDpOT_ @2445
    _ZNSt8_Rb_treeIjSt4pairIKjNSt7__cxx114listIN7CAN4CQF24EDFGatewayTransformation5QInfoESaIS6_EEEESt10_Select1stIS9_ESt4lessIjESaIS9_EE14_M_insert_nodeEPSt18_Rb_tree_node_baseSH_PSt13_Rb_tree_nodeIS9_E @2446
    _ZNSt8_Rb_treeIjSt4pairIKjNSt7__cxx114listIN7CAN4CQF24EDFGatewayTransformation5QInfoESaIS6_EEEESt10_Select1stIS9_ESt4lessIjESaIS9_EE14_M_lower_boundEPSt13_Rb_tree_nodeIS9_EPSt18_Rb_tree_node_baseRS1_ @2447
    _ZNSt8_Rb_treeIjSt4pairIKjNSt7__cxx114listIN7CAN4CQF24EDFGatewayTransformation5QInfoESaIS6_EEEESt10_Select1stIS9_ESt4lessIjESaIS9_EE15_M_destroy_nodeEPSt13_Rb_tree_nodeIS9_E @2448
    _ZNSt8_Rb_treeIjSt4pairIKjNSt7__cxx114listIN7CAN4CQF24EDFGatewayTransformation5QInfoESaIS6_EEEESt10_Select1stIS9_ESt4lessIjESaIS9_EE17_M_construct_nodeIJRKSt21piecewise_construct_tSt5tupleIJOjEESK_IJEEEEEvPSt13_Rb_tree_nodeIS9_EDpOT_ @2449
    _ZNSt8_Rb_treeIjSt4pairIKjNSt7__cxx114listIN7CAN4CQF24EDFGatewayTransformation5QInfoESaIS6_EEEESt10_Select1stIS9_ESt4lessIjESaIS9_EE21_M_get_Node_allocatorEv @2450
    _ZNSt8_Rb_treeIjSt4pairIKjNSt7__cxx114listIN7CAN4CQF24EDFGatewayTransformation5QInfoESaIS6_EEEESt10_Select1stIS9_ESt4lessIjESaIS9_EE22_M_emplace_hint_uniqueIJRKSt21piecewise_construct_tSt5tupleIJOjEESK_IJEEEEESt17_Rb_tree_iteratorIS9_ESt23_Rb_tree_const_iteratorIS9_EDpOT_ @2451
    _ZNSt8_Rb_treeIjSt4pairIKjNSt7__cxx114listIN7CAN4CQF24EDFGatewayTransformation5QInfoESaIS6_EEEESt10_Select1stIS9_ESt4lessIjESaIS9_EE24_M_get_insert_unique_posERS1_ @2452
    _ZNSt8_Rb_treeIjSt4pairIKjNSt7__cxx114listIN7CAN4CQF24EDFGatewayTransformation5QInfoESaIS6_EEEESt10_Select1stIS9_ESt4lessIjESaIS9_EE29_M_get_insert_hint_unique_posESt23_Rb_tree_const_iteratorIS9_ERS1_ @2453
    _ZNSt8_Rb_treeIjSt4pairIKjNSt7__cxx114listIN7CAN4CQF24EDFGatewayTransformation5QInfoESaIS6_EEEESt10_Select1stIS9_ESt4lessIjESaIS9_EE3endEv @2454
    _ZNSt8_Rb_treeIjSt4pairIKjNSt7__cxx114listIN7CAN4CQF24EDFGatewayTransformation5QInfoESaIS6_EEEESt10_Select1stIS9_ESt4lessIjESaIS9_EE4findERS1_ @2455
    _ZNSt8_Rb_treeIjSt4pairIKjNSt7__cxx114listIN7CAN4CQF24EDFGatewayTransformation5QInfoESaIS6_EEEESt10_Select1stIS9_ESt4lessIjESaIS9_EE5beginEv @2456
    _ZNSt8_Rb_treeIjSt4pairIKjNSt7__cxx114listIN7CAN4CQF24EDFGatewayTransformation5QInfoESaIS6_EEEESt10_Select1stIS9_ESt4lessIjESaIS9_EE6_M_endEv @2457
    _ZNSt8_Rb_treeIjSt4pairIKjNSt7__cxx114listIN7CAN4CQF24EDFGatewayTransformation5QInfoESaIS6_EEEESt10_Select1stIS9_ESt4lessIjESaIS9_EE6_S_keyEPKSt13_Rb_tree_nodeIS9_E @2458
    _ZNSt8_Rb_treeIjSt4pairIKjNSt7__cxx114listIN7CAN4CQF24EDFGatewayTransformation5QInfoESaIS6_EEEESt10_Select1stIS9_ESt4lessIjESaIS9_EE6_S_keyEPKSt18_Rb_tree_node_base @2459
    _ZNSt8_Rb_treeIjSt4pairIKjNSt7__cxx114listIN7CAN4CQF24EDFGatewayTransformation5QInfoESaIS6_EEEESt10_Select1stIS9_ESt4lessIjESaIS9_EE7_S_leftEPSt18_Rb_tree_node_base @2460
    _ZNSt8_Rb_treeIjSt4pairIKjNSt7__cxx114listIN7CAN4CQF24EDFGatewayTransformation5QInfoESaIS6_EEEESt10_Select1stIS9_ESt4lessIjESaIS9_EE8_M_beginEv @2461
    _ZNSt8_Rb_treeIjSt4pairIKjNSt7__cxx114listIN7CAN4CQF24EDFGatewayTransformation5QInfoESaIS6_EEEESt10_Select1stIS9_ESt4lessIjESaIS9_EE8_M_eraseEPSt13_Rb_tree_nodeIS9_E @2462
    _ZNSt8_Rb_treeIjSt4pairIKjNSt7__cxx114listIN7CAN4CQF24EDFGatewayTransformation5QInfoESaIS6_EEEESt10_Select1stIS9_ESt4lessIjESaIS9_EE8_S_rightEPSt18_Rb_tree_node_base @2463
    _ZNSt8_Rb_treeIjSt4pairIKjNSt7__cxx114listIN7CAN4CQF24EDFGatewayTransformation5QInfoESaIS6_EEEESt10_Select1stIS9_ESt4lessIjESaIS9_EEC2Ev @2464
    _ZNSt8_Rb_treeIjSt4pairIKjNSt7__cxx114listIN7CAN4CQF24EDFGatewayTransformation5QInfoESaIS6_EEEESt10_Select1stIS9_ESt4lessIjESaIS9_EED2Ev @2465
    _ZNSt8_Rb_treeIjSt4pairIKjNSt7__cxx114listIN7CAN4CQF24RAEGatewayTransformation5QInfoESaIS6_EEEESt10_Select1stIS9_ESt4lessIjESaIS9_EE10_Auto_node9_M_insertES0_IPSt18_Rb_tree_node_baseSI_E @2466
    _ZNSt8_Rb_treeIjSt4pairIKjNSt7__cxx114listIN7CAN4CQF24RAEGatewayTransformation5QInfoESaIS6_EEEESt10_Select1stIS9_ESt4lessIjESaIS9_EE10_Auto_nodeC2IJRKSt21piecewise_construct_tSt5tupleIJOjEESL_IJEEEEERSF_DpOT_ @2467
    _ZNSt8_Rb_treeIjSt4pairIKjNSt7__cxx114listIN7CAN4CQF24RAEGatewayTransformation5QInfoESaIS6_EEEESt10_Select1stIS9_ESt4lessIjESaIS9_EE10_Auto_nodeD2Ev @2468
    _ZNSt8_Rb_treeIjSt4pairIKjNSt7__cxx114listIN7CAN4CQF24RAEGatewayTransformation5QInfoESaIS6_EEEESt10_Select1stIS9_ESt4lessIjESaIS9_EE11_M_get_nodeEv @2469
    _ZNSt8_Rb_treeIjSt4pairIKjNSt7__cxx114listIN7CAN4CQF24RAEGatewayTransformation5QInfoESaIS6_EEEESt10_Select1stIS9_ESt4lessIjESaIS9_EE11_M_leftmostEv @2470
    _ZNSt8_Rb_treeIjSt4pairIKjNSt7__cxx114listIN7CAN4CQF24RAEGatewayTransformation5QInfoESaIS6_EEEESt10_Select1stIS9_ESt4lessIjESaIS9_EE11_M_put_nodeEPSt13_Rb_tree_nodeIS9_E @2471
    _ZNSt8_Rb_treeIjSt4pairIKjNSt7__cxx114listIN7CAN4CQF24RAEGatewayTransformation5QInfoESaIS6_EEEESt10_Select1stIS9_ESt4lessIjESaIS9_EE11lower_boundERS1_ @2472
    _ZNSt8_Rb_treeIjSt4pairIKjNSt7__cxx114listIN7CAN4CQF24RAEGatewayTransformation5QInfoESaIS6_EEEESt10_Select1stIS9_ESt4lessIjESaIS9_EE12_M_drop_nodeEPSt13_Rb_tree_nodeIS9_E @2473
    _ZNSt8_Rb_treeIjSt4pairIKjNSt7__cxx114listIN7CAN4CQF24RAEGatewayTransformation5QInfoESaIS6_EEEESt10_Select1stIS9_ESt4lessIjESaIS9_EE12_M_rightmostEv @2474
    _ZNSt8_Rb_treeIjSt4pairIKjNSt7__cxx114listIN7CAN4CQF24RAEGatewayTransformation5QInfoESaIS6_EEEESt10_Select1stIS9_ESt4lessIjESaIS9_EE13_Rb_tree_implISD_Lb1EEC2Ev @2475
    _ZNSt8_Rb_treeIjSt4pairIKjNSt7__cxx114listIN7CAN4CQF24RAEGatewayTransformation5QInfoESaIS6_EEEESt10_Select1stIS9_ESt4lessIjESaIS9_EE13_Rb_tree_implISD_Lb1EED2Ev @2476
    _ZNSt8_Rb_treeIjSt4pairIKjNSt7__cxx114listIN7CAN4CQF24RAEGatewayTransformation5QInfoESaIS6_EEEESt10_Select1stIS9_ESt4lessIjESaIS9_EE14_M_create_nodeIJRKSt21piecewise_construct_tSt5tupleIJOjEESK_IJEEEEEPSt13_Rb_tree_nodeIS9_EDpOT_ @2477
    _ZNSt8_Rb_treeIjSt4pairIKjNSt7__cxx114listIN7CAN4CQF24RAEGatewayTransformation5QInfoESaIS6_EEEESt10_Select1stIS9_ESt4lessIjESaIS9_EE14_M_insert_nodeEPSt18_Rb_tree_node_baseSH_PSt13_Rb_tree_nodeIS9_E @2478
    _ZNSt8_Rb_treeIjSt4pairIKjNSt7__cxx114listIN7CAN4CQF24RAEGatewayTransformation5QInfoESaIS6_EEEESt10_Select1stIS9_ESt4lessIjESaIS9_EE14_M_lower_boundEPSt13_Rb_tree_nodeIS9_EPSt18_Rb_tree_node_baseRS1_ @2479
    _ZNSt8_Rb_treeIjSt4pairIKjNSt7__cxx114listIN7CAN4CQF24RAEGatewayTransformation5QInfoESaIS6_EEEESt10_Select1stIS9_ESt4lessIjESaIS9_EE15_M_destroy_nodeEPSt13_Rb_tree_nodeIS9_E @2480
    _ZNSt8_Rb_treeIjSt4pairIKjNSt7__cxx114listIN7CAN4CQF24RAEGatewayTransformation5QInfoESaIS6_EEEESt10_Select1stIS9_ESt4lessIjESaIS9_EE17_M_construct_nodeIJRKSt21piecewise_construct_tSt5tupleIJOjEESK_IJEEEEEvPSt13_Rb_tree_nodeIS9_EDpOT_ @2481
    _ZNSt8_Rb_treeIjSt4pairIKjNSt7__cxx114listIN7CAN4CQF24RAEGatewayTransformation5QInfoESaIS6_EEEESt10_Select1stIS9_ESt4lessIjESaIS9_EE21_M_get_Node_allocatorEv @2482
    _ZNSt8_Rb_treeIjSt4pairIKjNSt7__cxx114listIN7CAN4CQF24RAEGatewayTransformation5QInfoESaIS6_EEEESt10_Select1stIS9_ESt4lessIjESaIS9_EE22_M_emplace_hint_uniqueIJRKSt21piecewise_construct_tSt5tupleIJOjEESK_IJEEEEESt17_Rb_tree_iteratorIS9_ESt23_Rb_tree_const_iteratorIS9_EDpOT_ @2483
    _ZNSt8_Rb_treeIjSt4pairIKjNSt7__cxx114listIN7CAN4CQF24RAEGatewayTransformation5QInfoESaIS6_EEEESt10_Select1stIS9_ESt4lessIjESaIS9_EE24_M_get_insert_unique_posERS1_ @2484
    _ZNSt8_Rb_treeIjSt4pairIKjNSt7__cxx114listIN7CAN4CQF24RAEGatewayTransformation5QInfoESaIS6_EEEESt10_Select1stIS9_ESt4lessIjESaIS9_EE29_M_get_insert_hint_unique_posESt23_Rb_tree_const_iteratorIS9_ERS1_ @2485
    _ZNSt8_Rb_treeIjSt4pairIKjNSt7__cxx114listIN7CAN4CQF24RAEGatewayTransformation5QInfoESaIS6_EEEESt10_Select1stIS9_ESt4lessIjESaIS9_EE3endEv @2486
    _ZNSt8_Rb_treeIjSt4pairIKjNSt7__cxx114listIN7CAN4CQF24RAEGatewayTransformation5QInfoESaIS6_EEEESt10_Select1stIS9_ESt4lessIjESaIS9_EE4findERS1_ @2487
    _ZNSt8_Rb_treeIjSt4pairIKjNSt7__cxx114listIN7CAN4CQF24RAEGatewayTransformation5QInfoESaIS6_EEEESt10_Select1stIS9_ESt4lessIjESaIS9_EE5beginEv @2488
    _ZNSt8_Rb_treeIjSt4pairIKjNSt7__cxx114listIN7CAN4CQF24RAEGatewayTransformation5QInfoESaIS6_EEEESt10_Select1stIS9_ESt4lessIjESaIS9_EE6_M_endEv @2489
    _ZNSt8_Rb_treeIjSt4pairIKjNSt7__cxx114listIN7CAN4CQF24RAEGatewayTransformation5QInfoESaIS6_EEEESt10_Select1stIS9_ESt4lessIjESaIS9_EE6_S_keyEPKSt13_Rb_tree_nodeIS9_E @2490
    _ZNSt8_Rb_treeIjSt4pairIKjNSt7__cxx114listIN7CAN4CQF24RAEGatewayTransformation5QInfoESaIS6_EEEESt10_Select1stIS9_ESt4lessIjESaIS9_EE6_S_keyEPKSt18_Rb_tree_node_base @2491
    _ZNSt8_Rb_treeIjSt4pairIKjNSt7__cxx114listIN7CAN4CQF24RAEGatewayTransformation5QInfoESaIS6_EEEESt10_Select1stIS9_ESt4lessIjESaIS9_EE7_S_leftEPSt18_Rb_tree_node_base @2492
    _ZNSt8_Rb_treeIjSt4pairIKjNSt7__cxx114listIN7CAN4CQF24RAEGatewayTransformation5QInfoESaIS6_EEEESt10_Select1stIS9_ESt4lessIjESaIS9_EE8_M_beginEv @2493
    _ZNSt8_Rb_treeIjSt4pairIKjNSt7__cxx114listIN7CAN4CQF24RAEGatewayTransformation5QInfoESaIS6_EEEESt10_Select1stIS9_ESt4lessIjESaIS9_EE8_M_eraseEPSt13_Rb_tree_nodeIS9_E @2494
    _ZNSt8_Rb_treeIjSt4pairIKjNSt7__cxx114listIN7CAN4CQF24RAEGatewayTransformation5QInfoESaIS6_EEEESt10_Select1stIS9_ESt4lessIjESaIS9_EE8_S_rightEPSt18_Rb_tree_node_base @2495
    _ZNSt8_Rb_treeIjSt4pairIKjNSt7__cxx114listIN7CAN4CQF24RAEGatewayTransformation5QInfoESaIS6_EEEESt10_Select1stIS9_ESt4lessIjESaIS9_EEC2Ev @2496
    _ZNSt8_Rb_treeIjSt4pairIKjNSt7__cxx114listIN7CAN4CQF24RAEGatewayTransformation5QInfoESaIS6_EEEESt10_Select1stIS9_ESt4lessIjESaIS9_EED2Ev @2497
    _ZNSt8_Rb_treeIjSt4pairIKjNSt7__cxx114listIN7CAN4CQF24VarGatewayTransformation5QInfoESaIS6_EEEESt10_Select1stIS9_ESt4lessIjESaIS9_EE10_Auto_node9_M_insertES0_IPSt18_Rb_tree_node_baseSI_E @2498
    _ZNSt8_Rb_treeIjSt4pairIKjNSt7__cxx114listIN7CAN4CQF24VarGatewayTransformation5QInfoESaIS6_EEEESt10_Select1stIS9_ESt4lessIjESaIS9_EE10_Auto_nodeC2IJRKSt21piecewise_construct_tSt5tupleIJOjEESL_IJEEEEERSF_DpOT_ @2499
    _ZNSt8_Rb_treeIjSt4pairIKjNSt7__cxx114listIN7CAN4CQF24VarGatewayTransformation5QInfoESaIS6_EEEESt10_Select1stIS9_ESt4lessIjESaIS9_EE10_Auto_nodeD2Ev @2500
    _ZNSt8_Rb_treeIjSt4pairIKjNSt7__cxx114listIN7CAN4CQF24VarGatewayTransformation5QInfoESaIS6_EEEESt10_Select1stIS9_ESt4lessIjESaIS9_EE11_M_get_nodeEv @2501
    _ZNSt8_Rb_treeIjSt4pairIKjNSt7__cxx114listIN7CAN4CQF24VarGatewayTransformation5QInfoESaIS6_EEEESt10_Select1stIS9_ESt4lessIjESaIS9_EE11_M_leftmostEv @2502
    _ZNSt8_Rb_treeIjSt4pairIKjNSt7__cxx114listIN7CAN4CQF24VarGatewayTransformation5QInfoESaIS6_EEEESt10_Select1stIS9_ESt4lessIjESaIS9_EE11_M_put_nodeEPSt13_Rb_tree_nodeIS9_E @2503
    _ZNSt8_Rb_treeIjSt4pairIKjNSt7__cxx114listIN7CAN4CQF24VarGatewayTransformation5QInfoESaIS6_EEEESt10_Select1stIS9_ESt4lessIjESaIS9_EE11lower_boundERS1_ @2504
    _ZNSt8_Rb_treeIjSt4pairIKjNSt7__cxx114listIN7CAN4CQF24VarGatewayTransformation5QInfoESaIS6_EEEESt10_Select1stIS9_ESt4lessIjESaIS9_EE12_M_drop_nodeEPSt13_Rb_tree_nodeIS9_E @2505
    _ZNSt8_Rb_treeIjSt4pairIKjNSt7__cxx114listIN7CAN4CQF24VarGatewayTransformation5QInfoESaIS6_EEEESt10_Select1stIS9_ESt4lessIjESaIS9_EE12_M_rightmostEv @2506
    _ZNSt8_Rb_treeIjSt4pairIKjNSt7__cxx114listIN7CAN4CQF24VarGatewayTransformation5QInfoESaIS6_EEEESt10_Select1stIS9_ESt4lessIjESaIS9_EE13_Rb_tree_implISD_Lb1EEC2Ev @2507
    _ZNSt8_Rb_treeIjSt4pairIKjNSt7__cxx114listIN7CAN4CQF24VarGatewayTransformation5QInfoESaIS6_EEEESt10_Select1stIS9_ESt4lessIjESaIS9_EE13_Rb_tree_implISD_Lb1EED2Ev @2508
    _ZNSt8_Rb_treeIjSt4pairIKjNSt7__cxx114listIN7CAN4CQF24VarGatewayTransformation5QInfoESaIS6_EEEESt10_Select1stIS9_ESt4lessIjESaIS9_EE14_M_create_nodeIJRKSt21piecewise_construct_tSt5tupleIJOjEESK_IJEEEEEPSt13_Rb_tree_nodeIS9_EDpOT_ @2509
    _ZNSt8_Rb_treeIjSt4pairIKjNSt7__cxx114listIN7CAN4CQF24VarGatewayTransformation5QInfoESaIS6_EEEESt10_Select1stIS9_ESt4lessIjESaIS9_EE14_M_insert_nodeEPSt18_Rb_tree_node_baseSH_PSt13_Rb_tree_nodeIS9_E @2510
    _ZNSt8_Rb_treeIjSt4pairIKjNSt7__cxx114listIN7CAN4CQF24VarGatewayTransformation5QInfoESaIS6_EEEESt10_Select1stIS9_ESt4lessIjESaIS9_EE14_M_lower_boundEPSt13_Rb_tree_nodeIS9_EPSt18_Rb_tree_node_baseRS1_ @2511
    _ZNSt8_Rb_treeIjSt4pairIKjNSt7__cxx114listIN7CAN4CQF24VarGatewayTransformation5QInfoESaIS6_EEEESt10_Select1stIS9_ESt4lessIjESaIS9_EE15_M_destroy_nodeEPSt13_Rb_tree_nodeIS9_E @2512
    _ZNSt8_Rb_treeIjSt4pairIKjNSt7__cxx114listIN7CAN4CQF24VarGatewayTransformation5QInfoESaIS6_EEEESt10_Select1stIS9_ESt4lessIjESaIS9_EE17_M_construct_nodeIJRKSt21piecewise_construct_tSt5tupleIJOjEESK_IJEEEEEvPSt13_Rb_tree_nodeIS9_EDpOT_ @2513
    _ZNSt8_Rb_treeIjSt4pairIKjNSt7__cxx114listIN7CAN4CQF24VarGatewayTransformation5QInfoESaIS6_EEEESt10_Select1stIS9_ESt4lessIjESaIS9_EE21_M_get_Node_allocatorEv @2514
    _ZNSt8_Rb_treeIjSt4pairIKjNSt7__cxx114listIN7CAN4CQF24VarGatewayTransformation5QInfoESaIS6_EEEESt10_Select1stIS9_ESt4lessIjESaIS9_EE22_M_emplace_hint_uniqueIJRKSt21piecewise_construct_tSt5tupleIJOjEESK_IJEEEEESt17_Rb_tree_iteratorIS9_ESt23_Rb_tree_const_iteratorIS9_EDpOT_ @2515
    _ZNSt8_Rb_treeIjSt4pairIKjNSt7__cxx114listIN7CAN4CQF24VarGatewayTransformation5QInfoESaIS6_EEEESt10_Select1stIS9_ESt4lessIjESaIS9_EE24_M_get_insert_unique_posERS1_ @2516
    _ZNSt8_Rb_treeIjSt4pairIKjNSt7__cxx114listIN7CAN4CQF24VarGatewayTransformation5QInfoESaIS6_EEEESt10_Select1stIS9_ESt4lessIjESaIS9_EE29_M_get_insert_hint_unique_posESt23_Rb_tree_const_iteratorIS9_ERS1_ @2517
    _ZNSt8_Rb_treeIjSt4pairIKjNSt7__cxx114listIN7CAN4CQF24VarGatewayTransformation5QInfoESaIS6_EEEESt10_Select1stIS9_ESt4lessIjESaIS9_EE3endEv @2518
    _ZNSt8_Rb_treeIjSt4pairIKjNSt7__cxx114listIN7CAN4CQF24VarGatewayTransformation5QInfoESaIS6_EEEESt10_Select1stIS9_ESt4lessIjESaIS9_EE4findERS1_ @2519
    _ZNSt8_Rb_treeIjSt4pairIKjNSt7__cxx114listIN7CAN4CQF24VarGatewayTransformation5QInfoESaIS6_EEEESt10_Select1stIS9_ESt4lessIjESaIS9_EE5beginEv @2520
    _ZNSt8_Rb_treeIjSt4pairIKjNSt7__cxx114listIN7CAN4CQF24VarGatewayTransformation5QInfoESaIS6_EEEESt10_Select1stIS9_ESt4lessIjESaIS9_EE6_M_endEv @2521
    _ZNSt8_Rb_treeIjSt4pairIKjNSt7__cxx114listIN7CAN4CQF24VarGatewayTransformation5QInfoESaIS6_EEEESt10_Select1stIS9_ESt4lessIjESaIS9_EE6_S_keyEPKSt13_Rb_tree_nodeIS9_E @2522
    _ZNSt8_Rb_treeIjSt4pairIKjNSt7__cxx114listIN7CAN4CQF24VarGatewayTransformation5QInfoESaIS6_EEEESt10_Select1stIS9_ESt4lessIjESaIS9_EE6_S_keyEPKSt18_Rb_tree_node_base @2523
    _ZNSt8_Rb_treeIjSt4pairIKjNSt7__cxx114listIN7CAN4CQF24VarGatewayTransformation5QInfoESaIS6_EEEESt10_Select1stIS9_ESt4lessIjESaIS9_EE7_S_leftEPSt18_Rb_tree_node_base @2524
    _ZNSt8_Rb_treeIjSt4pairIKjNSt7__cxx114listIN7CAN4CQF24VarGatewayTransformation5QInfoESaIS6_EEEESt10_Select1stIS9_ESt4lessIjESaIS9_EE8_M_beginEv @2525
    _ZNSt8_Rb_treeIjSt4pairIKjNSt7__cxx114listIN7CAN4CQF24VarGatewayTransformation5QInfoESaIS6_EEEESt10_Select1stIS9_ESt4lessIjESaIS9_EE8_M_eraseEPSt13_Rb_tree_nodeIS9_E @2526
    _ZNSt8_Rb_treeIjSt4pairIKjNSt7__cxx114listIN7CAN4CQF24VarGatewayTransformation5QInfoESaIS6_EEEESt10_Select1stIS9_ESt4lessIjESaIS9_EE8_S_rightEPSt18_Rb_tree_node_base @2527
    _ZNSt8_Rb_treeIjSt4pairIKjNSt7__cxx114listIN7CAN4CQF24VarGatewayTransformation5QInfoESaIS6_EEEESt10_Select1stIS9_ESt4lessIjESaIS9_EEC2Ev @2528
    _ZNSt8_Rb_treeIjSt4pairIKjNSt7__cxx114listIN7CAN4CQF24VarGatewayTransformation5QInfoESaIS6_EEEESt10_Select1stIS9_ESt4lessIjESaIS9_EED2Ev @2529
    _ZNSt8_Rb_treeIjSt4pairIKjNSt7__cxx114listIN7CAN4CQF28TimeoutGatewayTransformation5QInfoESaIS6_EEEESt10_Select1stIS9_ESt4lessIjESaIS9_EE10_Auto_node9_M_insertES0_IPSt18_Rb_tree_node_baseSI_E @2530
    _ZNSt8_Rb_treeIjSt4pairIKjNSt7__cxx114listIN7CAN4CQF28TimeoutGatewayTransformation5QInfoESaIS6_EEEESt10_Select1stIS9_ESt4lessIjESaIS9_EE10_Auto_nodeC2IJRKSt21piecewise_construct_tSt5tupleIJOjEESL_IJEEEEERSF_DpOT_ @2531
    _ZNSt8_Rb_treeIjSt4pairIKjNSt7__cxx114listIN7CAN4CQF28TimeoutGatewayTransformation5QInfoESaIS6_EEEESt10_Select1stIS9_ESt4lessIjESaIS9_EE10_Auto_nodeD2Ev @2532
    _ZNSt8_Rb_treeIjSt4pairIKjNSt7__cxx114listIN7CAN4CQF28TimeoutGatewayTransformation5QInfoESaIS6_EEEESt10_Select1stIS9_ESt4lessIjESaIS9_EE11_M_get_nodeEv @2533
    _ZNSt8_Rb_treeIjSt4pairIKjNSt7__cxx114listIN7CAN4CQF28TimeoutGatewayTransformation5QInfoESaIS6_EEEESt10_Select1stIS9_ESt4lessIjESaIS9_EE11_M_leftmostEv @2534
    _ZNSt8_Rb_treeIjSt4pairIKjNSt7__cxx114listIN7CAN4CQF28TimeoutGatewayTransformation5QInfoESaIS6_EEEESt10_Select1stIS9_ESt4lessIjESaIS9_EE11_M_put_nodeEPSt13_Rb_tree_nodeIS9_E @2535
    _ZNSt8_Rb_treeIjSt4pairIKjNSt7__cxx114listIN7CAN4CQF28TimeoutGatewayTransformation5QInfoESaIS6_EEEESt10_Select1stIS9_ESt4lessIjESaIS9_EE11lower_boundERS1_ @2536
    _ZNSt8_Rb_treeIjSt4pairIKjNSt7__cxx114listIN7CAN4CQF28TimeoutGatewayTransformation5QInfoESaIS6_EEEESt10_Select1stIS9_ESt4lessIjESaIS9_EE12_M_drop_nodeEPSt13_Rb_tree_nodeIS9_E @2537
    _ZNSt8_Rb_treeIjSt4pairIKjNSt7__cxx114listIN7CAN4CQF28TimeoutGatewayTransformation5QInfoESaIS6_EEEESt10_Select1stIS9_ESt4lessIjESaIS9_EE12_M_rightmostEv @2538
    _ZNSt8_Rb_treeIjSt4pairIKjNSt7__cxx114listIN7CAN4CQF28TimeoutGatewayTransformation5QInfoESaIS6_EEEESt10_Select1stIS9_ESt4lessIjESaIS9_EE13_Rb_tree_implISD_Lb1EEC2Ev @2539
    _ZNSt8_Rb_treeIjSt4pairIKjNSt7__cxx114listIN7CAN4CQF28TimeoutGatewayTransformation5QInfoESaIS6_EEEESt10_Select1stIS9_ESt4lessIjESaIS9_EE13_Rb_tree_implISD_Lb1EED2Ev @2540
    _ZNSt8_Rb_treeIjSt4pairIKjNSt7__cxx114listIN7CAN4CQF28TimeoutGatewayTransformation5QInfoESaIS6_EEEESt10_Select1stIS9_ESt4lessIjESaIS9_EE14_M_create_nodeIJRKSt21piecewise_construct_tSt5tupleIJOjEESK_IJEEEEEPSt13_Rb_tree_nodeIS9_EDpOT_ @2541
    _ZNSt8_Rb_treeIjSt4pairIKjNSt7__cxx114listIN7CAN4CQF28TimeoutGatewayTransformation5QInfoESaIS6_EEEESt10_Select1stIS9_ESt4lessIjESaIS9_EE14_M_insert_nodeEPSt18_Rb_tree_node_baseSH_PSt13_Rb_tree_nodeIS9_E @2542
    _ZNSt8_Rb_treeIjSt4pairIKjNSt7__cxx114listIN7CAN4CQF28TimeoutGatewayTransformation5QInfoESaIS6_EEEESt10_Select1stIS9_ESt4lessIjESaIS9_EE14_M_lower_boundEPSt13_Rb_tree_nodeIS9_EPSt18_Rb_tree_node_baseRS1_ @2543
    _ZNSt8_Rb_treeIjSt4pairIKjNSt7__cxx114listIN7CAN4CQF28TimeoutGatewayTransformation5QInfoESaIS6_EEEESt10_Select1stIS9_ESt4lessIjESaIS9_EE15_M_destroy_nodeEPSt13_Rb_tree_nodeIS9_E @2544
    _ZNSt8_Rb_treeIjSt4pairIKjNSt7__cxx114listIN7CAN4CQF28TimeoutGatewayTransformation5QInfoESaIS6_EEEESt10_Select1stIS9_ESt4lessIjESaIS9_EE17_M_construct_nodeIJRKSt21piecewise_construct_tSt5tupleIJOjEESK_IJEEEEEvPSt13_Rb_tree_nodeIS9_EDpOT_ @2545
    _ZNSt8_Rb_treeIjSt4pairIKjNSt7__cxx114listIN7CAN4CQF28TimeoutGatewayTransformation5QInfoESaIS6_EEEESt10_Select1stIS9_ESt4lessIjESaIS9_EE21_M_get_Node_allocatorEv @2546
    _ZNSt8_Rb_treeIjSt4pairIKjNSt7__cxx114listIN7CAN4CQF28TimeoutGatewayTransformation5QInfoESaIS6_EEEESt10_Select1stIS9_ESt4lessIjESaIS9_EE22_M_emplace_hint_uniqueIJRKSt21piecewise_construct_tSt5tupleIJOjEESK_IJEEEEESt17_Rb_tree_iteratorIS9_ESt23_Rb_tree_const_iteratorIS9_EDpOT_ @2547
    _ZNSt8_Rb_treeIjSt4pairIKjNSt7__cxx114listIN7CAN4CQF28TimeoutGatewayTransformation5QInfoESaIS6_EEEESt10_Select1stIS9_ESt4lessIjESaIS9_EE24_M_get_insert_unique_posERS1_ @2548
    _ZNSt8_Rb_treeIjSt4pairIKjNSt7__cxx114listIN7CAN4CQF28TimeoutGatewayTransformation5QInfoESaIS6_EEEESt10_Select1stIS9_ESt4lessIjESaIS9_EE29_M_get_insert_hint_unique_posESt23_Rb_tree_const_iteratorIS9_ERS1_ @2549
    _ZNSt8_Rb_treeIjSt4pairIKjNSt7__cxx114listIN7CAN4CQF28TimeoutGatewayTransformation5QInfoESaIS6_EEEESt10_Select1stIS9_ESt4lessIjESaIS9_EE3endEv @2550
    _ZNSt8_Rb_treeIjSt4pairIKjNSt7__cxx114listIN7CAN4CQF28TimeoutGatewayTransformation5QInfoESaIS6_EEEESt10_Select1stIS9_ESt4lessIjESaIS9_EE4findERS1_ @2551
    _ZNSt8_Rb_treeIjSt4pairIKjNSt7__cxx114listIN7CAN4CQF28TimeoutGatewayTransformation5QInfoESaIS6_EEEESt10_Select1stIS9_ESt4lessIjESaIS9_EE5beginEv @2552
    _ZNSt8_Rb_treeIjSt4pairIKjNSt7__cxx114listIN7CAN4CQF28TimeoutGatewayTransformation5QInfoESaIS6_EEEESt10_Select1stIS9_ESt4lessIjESaIS9_EE6_M_endEv @2553
    _ZNSt8_Rb_treeIjSt4pairIKjNSt7__cxx114listIN7CAN4CQF28TimeoutGatewayTransformation5QInfoESaIS6_EEEESt10_Select1stIS9_ESt4lessIjESaIS9_EE6_S_keyEPKSt13_Rb_tree_nodeIS9_E @2554
    _ZNSt8_Rb_treeIjSt4pairIKjNSt7__cxx114listIN7CAN4CQF28TimeoutGatewayTransformation5QInfoESaIS6_EEEESt10_Select1stIS9_ESt4lessIjESaIS9_EE6_S_keyEPKSt18_Rb_tree_node_base @2555
    _ZNSt8_Rb_treeIjSt4pairIKjNSt7__cxx114listIN7CAN4CQF28TimeoutGatewayTransformation5QInfoESaIS6_EEEESt10_Select1stIS9_ESt4lessIjESaIS9_EE7_S_leftEPSt18_Rb_tree_node_base @2556
    _ZNSt8_Rb_treeIjSt4pairIKjNSt7__cxx114listIN7CAN4CQF28TimeoutGatewayTransformation5QInfoESaIS6_EEEESt10_Select1stIS9_ESt4lessIjESaIS9_EE8_M_beginEv @2557
    _ZNSt8_Rb_treeIjSt4pairIKjNSt7__cxx114listIN7CAN4CQF28TimeoutGatewayTransformation5QInfoESaIS6_EEEESt10_Select1stIS9_ESt4lessIjESaIS9_EE8_M_eraseEPSt13_Rb_tree_nodeIS9_E @2558
    _ZNSt8_Rb_treeIjSt4pairIKjNSt7__cxx114listIN7CAN4CQF28TimeoutGatewayTransformation5QInfoESaIS6_EEEESt10_Select1stIS9_ESt4lessIjESaIS9_EE8_S_rightEPSt18_Rb_tree_node_base @2559
    _ZNSt8_Rb_treeIjSt4pairIKjNSt7__cxx114listIN7CAN4CQF28TimeoutGatewayTransformation5QInfoESaIS6_EEEESt10_Select1stIS9_ESt4lessIjESaIS9_EEC2Ev @2560
    _ZNSt8_Rb_treeIjSt4pairIKjNSt7__cxx114listIN7CAN4CQF28TimeoutGatewayTransformation5QInfoESaIS6_EEEESt10_Select1stIS9_ESt4lessIjESaIS9_EED2Ev @2561
    _ZNSt8__detail10_Hash_nodeISt4pairIKtNSt7__cxx114listIPN9CoRE4INET6BufferESaIS7_EEEELb0EEC2Ev @2562
    _ZNSt8__detail14_Node_iteratorISt4pairIKtNSt7__cxx114listIPN9CoRE4INET6BufferESaIS7_EEEELb0ELb0EEC2EPNS_10_Hash_nodeISA_Lb0EEE @2563
    _ZNSt8__detail14_Node_iteratorISt4pairIKtNSt7__cxx114listIPN9CoRE4INET6BufferESaIS7_EEEELb0ELb0EEC2Ev @2564
    _ZNSt8__detail14_Node_iteratorISt4pairIKtNSt7__cxx114listIPN9CoRE4INET6BufferESaIS7_EEEELb0ELb0EEppEi @2565
    _ZNSt8__detail14_Node_iteratorISt4pairIKtNSt7__cxx114listIPN9CoRE4INET6BufferESaIS7_EEEELb0ELb0EEppEv @2566
    _ZNSt8__detail15_Hash_code_baseItSt4pairIKtNSt7__cxx114listIPN9CoRE4INET6BufferESaIS7_EEEENS_10_Select1stESt4hashItENS_18_Mod_range_hashingENS_20_Default_ranged_hashELb0EEC2Ev @2567
    _ZNSt8__detail15_Hashtable_baseItSt4pairIKtNSt7__cxx114listIPN9CoRE4INET6BufferESaIS7_EEEENS_10_Select1stESt8equal_toItESt4hashItENS_18_Mod_range_hashingENS_20_Default_ranged_hashENS_17_Hashtable_traitsILb0ELb0ELb1EEEE9_S_equalsEyRKNS_21_Hash_node_code_cacheILb0EEE @2568
    _ZNSt8__detail15_Hashtable_baseItSt4pairIKtNSt7__cxx114listIPN9CoRE4INET6BufferESaIS7_EEEENS_10_Select1stESt8equal_toItESt4hashItENS_18_Mod_range_hashingENS_20_Default_ranged_hashENS_17_Hashtable_traitsILb0ELb0ELb1EEEEC2Ev @2569
    _ZNSt8__detail16_Hashtable_allocISaINS_10_Hash_nodeISt4pairIKtNSt7__cxx114listIPN9CoRE4INET6BufferESaIS8_EEEELb0EEEEE16_M_allocate_nodeIJRKSt21piecewise_construct_tSt5tupleIJOtEESJ_IJEEEEEPSC_DpOT_ @2570
    _ZNSt8__detail16_Hashtable_allocISaINS_10_Hash_nodeISt4pairIKtNSt7__cxx114listIPN9CoRE4INET6BufferESaIS8_EEEELb0EEEEE17_M_node_allocatorEv @2571
    _ZNSt8__detail16_Hashtable_allocISaINS_10_Hash_nodeISt4pairIKtNSt7__cxx114listIPN9CoRE4INET6BufferESaIS8_EEEELb0EEEEE18_M_deallocate_nodeEPSC_ @2572
    _ZNSt8__detail16_Hashtable_allocISaINS_10_Hash_nodeISt4pairIKtNSt7__cxx114listIPN9CoRE4INET6BufferESaIS8_EEEELb0EEEEE19_M_allocate_bucketsEy @2573
    _ZNSt8__detail16_Hashtable_allocISaINS_10_Hash_nodeISt4pairIKtNSt7__cxx114listIPN9CoRE4INET6BufferESaIS8_EEEELb0EEEEE19_M_deallocate_nodesEPSC_ @2574
    _ZNSt8__detail16_Hashtable_allocISaINS_10_Hash_nodeISt4pairIKtNSt7__cxx114listIPN9CoRE4INET6BufferESaIS8_EEEELb0EEEEE21_M_deallocate_bucketsEPPNS_15_Hash_node_baseEy @2575
    _ZNSt8__detail16_Hashtable_allocISaINS_10_Hash_nodeISt4pairIKtNSt7__cxx114listIPN9CoRE4INET6BufferESaIS8_EEEELb0EEEEE22_M_deallocate_node_ptrEPSC_ @2576
    _ZNSt8__detail16_Hashtable_allocISaINS_10_Hash_nodeISt4pairIKtNSt7__cxx114listIPN9CoRE4INET6BufferESaIS8_EEEELb0EEEEEC2Ev @2577
    _ZNSt8__detail16_Hashtable_allocISaINS_10_Hash_nodeISt4pairIKtNSt7__cxx114listIPN9CoRE4INET6BufferESaIS8_EEEELb0EEEEED2Ev @2578
    _ZNSt8__detail19_Node_iterator_baseISt4pairIKtNSt7__cxx114listIPN9CoRE4INET6BufferESaIS7_EEEELb0EE7_M_incrEv @2579
    _ZNSt8__detail19_Node_iterator_baseISt4pairIKtNSt7__cxx114listIPN9CoRE4INET6BufferESaIS7_EEEELb0EEC2EPNS_10_Hash_nodeISA_Lb0EEE @2580
    _ZNSt8__detail19_Node_iterator_baseISt4pairIKtNSt7__cxx114listIPN9CoRE4INET6BufferESaIS7_EEEELb0EEC2Ev @2581
    _ZNSt8__detail21_Hash_node_value_baseISt4pairIKtNSt7__cxx114listIPN9CoRE4INET6BufferESaIS7_EEEEE4_M_vEv @2582
    _ZNSt8__detail21_Hash_node_value_baseISt4pairIKtNSt7__cxx114listIPN9CoRE4INET6BufferESaIS7_EEEEE9_M_valptrEv @2583
    _ZNSt8__detail21_Hashtable_ebo_helperILi0ESaINS_10_Hash_nodeISt4pairIKtNSt7__cxx114listIPN9CoRE4INET6BufferESaIS8_EEEELb0EEEELb1EE6_M_getEv @2584
    _ZNSt8__detail21_Hashtable_ebo_helperILi0ESaINS_10_Hash_nodeISt4pairIKtNSt7__cxx114listIPN9CoRE4INET6BufferESaIS8_EEEELb0EEEELb1EEC2Ev @2585
    _ZNSt8__detail21_Hashtable_ebo_helperILi0ESaINS_10_Hash_nodeISt4pairIKtNSt7__cxx114listIPN9CoRE4INET6BufferESaIS8_EEEELb0EEEELb1EED2Ev @2586
    _ZNSt8__detail9_Map_baseItSt4pairIKtNSt7__cxx114listIPN9CoRE4INET6BufferESaIS7_EEEESaISA_ENS_10_Select1stESt8equal_toItESt4hashItENS_18_Mod_range_hashingENS_20_Default_ranged_hashENS_20_Prime_rehash_policyENS_17_Hashtable_traitsILb0ELb0ELb1EEELb1EEixEOt @2587
    _ZNSt8__detailneERKNS_19_Node_iterator_baseISt4pairIKtNSt7__cxx114listIPN9CoRE4INET6BufferESaIS7_EEEELb0EEESD_ @2588
    _ZNSt9exceptionC2Ev @2589
    _ZSt10_ConstructIN7CAN4CQF22CircularRotationBuffer9canfdInfoEJRKS2_EEvPT_DpOT0_ @2590
    _ZSt10_ConstructIN7CAN4CQF24RAEGatewayTransformation10order_infoEJRKS2_EEvPT_DpOT0_ @2591
    _ZSt10_ConstructIN8nlohmann16json_abi_v3_11_310basic_jsonISt3mapSt6vectorNSt7__cxx1112basic_stringIcSt11char_traitsIcESaIcEEEbxydSaNS1_14adl_serializerES4_IhSaIhEEvEEJRKNS1_6detail8json_refISE_EEEEvPT_DpOT0_ @2592
    _ZSt10_ConstructIN8nlohmann16json_abi_v3_11_310basic_jsonISt3mapSt6vectorNSt7__cxx1112basic_stringIcSt11char_traitsIcESaIcEEEbxydSaNS1_14adl_serializerES4_IhSaIhEEvEEJRKSE_EEvPT_DpOT0_ @2593
    _ZSt10_ConstructIN8nlohmann16json_abi_v3_11_36detail21output_string_adapterIcNSt7__cxx1112basic_stringIcSt11char_traitsIcESaIcEEEEEJRS9_EEvPT_DpOT0_ @2594
    _ZSt10__distanceIPKN8nlohmann16json_abi_v3_11_36detail8json_refINS1_10basic_jsonISt3mapSt6vectorNSt7__cxx1112basic_stringIcSt11char_traitsIcESaIcEEEbxydSaNS1_14adl_serializerES6_IhSaIhEEvEEEEENSt15iterator_traitsIT_E15difference_typeESL_SL_St26random_access_iterator_tag @2595
    _ZSt11__addressofIKSt8_Rb_treeIPN10FiCo4OMNeT12CanDataFrameESt4pairIKS3_dESt10_Select1stIS6_ESt4lessIS3_ESaIS6_EEEPT_RSE_ @2596
    _ZSt11__addressofIN7CAN4CQF22CircularRotationBuffer9canfdInfoEEPT_RS3_ @2597
    _ZSt11__addressofIN7CAN4CQF24RAEGatewayTransformation10order_infoEEPT_RS3_ @2598
    _ZSt11__addressofIN8nlohmann16json_abi_v3_11_310basic_jsonISt3mapSt6vectorNSt7__cxx1112basic_stringIcSt11char_traitsIcESaIcEEEbxydSaNS1_14adl_serializerES4_IhSaIhEEvEEEPT_RSF_ @2599
    _ZSt11__addressofINSt8__detail10_Hash_nodeISt4pairIKtNSt7__cxx114listIPN9CoRE4INET6BufferESaIS8_EEEELb0EEEEPT_RSD_ @2600
    _ZSt11__addressofISaISt10_List_nodeIN7CAN4CQF21GatewayTransformation5QInfoEEEEPT_RS6_ @2601
    _ZSt11__addressofISaISt10_List_nodeIN7CAN4CQF24EDFGatewayTransformation5QInfoEEEEPT_RS6_ @2602
    _ZSt11__addressofISaISt10_List_nodeIN7CAN4CQF24RAEGatewayTransformation5QInfoEEEEPT_RS6_ @2603
    _ZSt11__addressofISaISt10_List_nodeIN7CAN4CQF24VarGatewayTransformation5QInfoEEEEPT_RS6_ @2604
    _ZSt11__addressofISaISt10_List_nodeIN7CAN4CQF28TimeoutGatewayTransformation5QInfoEEEEPT_RS6_ @2605
    _ZSt11__addressofISaISt10_List_nodeIPN9CoRE4INET6BufferEEEEPT_RS6_ @2606
    _ZSt11__addressofISaISt23_Sp_counted_ptr_inplaceIN8nlohmann16json_abi_v3_11_36detail21output_string_adapterIcNSt7__cxx1112basic_stringIcSt11char_traitsIcESaIcEEEEESaIvELN9__gnu_cxx12_Lock_policyE2EEEEPT_RSH_ @2607
    _ZSt11__addressofISt4pairIPN10FiCo4OMNeT12CanDataFrameEdEEPT_RS5_ @2608
    _ZSt11__addressofISt6vectorIN8nlohmann16json_abi_v3_11_310basic_jsonISt3mapS0_NSt7__cxx1112basic_stringIcSt11char_traitsIcESaIcEEEbxydSaNS2_14adl_serializerES0_IhSaIhEEvEESaISE_EEEPT_RSH_ @2609
    _ZSt11find_if_notIPKN8nlohmann16json_abi_v3_11_36detail8json_refINS1_10basic_jsonISt3mapSt6vectorNSt7__cxx1112basic_stringIcSt11char_traitsIcESaIcEEEbxydSaNS1_14adl_serializerES6_IhSaIhEEvEEEEZNSG_C1ESt16initializer_listISH_EbNS2_7value_tEEUlRSI_E_ET_SP_SP_T0_ @2610
    _ZSt11make_sharedIN8nlohmann16json_abi_v3_11_36detail21output_string_adapterIcNSt7__cxx1112basic_stringIcSt11char_traitsIcESaIcEEEEEJRS9_EESt10shared_ptrINSt9enable_ifIXntsr8is_arrayIT_EE5valueESE_E4typeEEDpOT0_ @2611
    _ZSt11swap_rangesIN9__gnu_cxx17__normal_iteratorIPN7CAN4CQF24RAEGatewayTransformation10order_infoESt6vectorIS4_SaIS4_EEEES9_ET0_T_SB_SA_ @2612
    _ZSt12__get_helperILy0EOiJEERT0_RSt11_Tuple_implIXT_EJS1_DpT1_EE @2613
    _ZSt12__get_helperILy0EPN8nlohmann16json_abi_v3_11_327byte_container_with_subtypeISt6vectorIhSaIhEEEEJZNS1_10basic_jsonISt3mapS3_NSt7__cxx1112basic_stringIcSt11char_traitsIcESaIcEEEbxydSaNS1_14adl_serializerES5_vE6createIS6_JEEEPT_DpOT0_EUlS7_E_EERKT0_RKSt11_Tuple_implIXT_EJSP_DpT1_EE @2614
    _ZSt12__get_helperILy0EPN8nlohmann16json_abi_v3_11_327byte_container_with_subtypeISt6vectorIhSaIhEEEEJZNS1_10basic_jsonISt3mapS3_NSt7__cxx1112basic_stringIcSt11char_traitsIcESaIcEEEbxydSaNS1_14adl_serializerES5_vE6createIS6_JEEEPT_DpOT0_EUlS7_E_EERT0_RSt11_Tuple_implIXT_EJSP_DpT1_EE @2615
    _ZSt12__get_helperILy0EPN8nlohmann16json_abi_v3_11_327byte_container_with_subtypeISt6vectorIhSaIhEEEEJZNS1_10basic_jsonISt3mapS3_NSt7__cxx1112basic_stringIcSt11char_traitsIcESaIcEEEbxydSaNS1_14adl_serializerES5_vE6createIS6_JRKS6_EEEPT_DpOT0_EUlS7_E_EERKT0_RKSt11_Tuple_implIXT_EJSR_DpT1_EE @2616
    _ZSt12__get_helperILy0EPN8nlohmann16json_abi_v3_11_327byte_container_with_subtypeISt6vectorIhSaIhEEEEJZNS1_10basic_jsonISt3mapS3_NSt7__cxx1112basic_stringIcSt11char_traitsIcESaIcEEEbxydSaNS1_14adl_serializerES5_vE6createIS6_JRKS6_EEEPT_DpOT0_EUlS7_E_EERT0_RSt11_Tuple_implIXT_EJSR_DpT1_EE @2617
    _ZSt12__get_helperILy0EPNSt7__cxx1112basic_stringIcSt11char_traitsIcESaIcEEEJZN8nlohmann16json_abi_v3_11_310basic_jsonISt3mapSt6vectorS5_bxydSaNS8_14adl_serializerESB_IhSaIhEEvE6createIS5_JRA1_KcEEEPT_DpOT0_EUlS6_E_EERKT0_RKSt11_Tuple_implIXT_EJSQ_DpT1_EE @2618
    _ZSt12__get_helperILy0EPNSt7__cxx1112basic_stringIcSt11char_traitsIcESaIcEEEJZN8nlohmann16json_abi_v3_11_310basic_jsonISt3mapSt6vectorS5_bxydSaNS8_14adl_serializerESB_IhSaIhEEvE6createIS5_JRA1_KcEEEPT_DpOT0_EUlS6_E_EERT0_RSt11_Tuple_implIXT_EJSQ_DpT1_EE @2619
    _ZSt12__get_helperILy0EPNSt7__cxx1112basic_stringIcSt11char_traitsIcESaIcEEEJZN8nlohmann16json_abi_v3_11_310basic_jsonISt3mapSt6vectorS5_bxydSaNS8_14adl_serializerESB_IhSaIhEEvE6createIS5_JRKS5_EEEPT_DpOT0_EUlS6_E_EERKT0_RKSt11_Tuple_implIXT_EJSP_DpT1_EE @2620
    _ZSt12__get_helperILy0EPNSt7__cxx1112basic_stringIcSt11char_traitsIcESaIcEEEJZN8nlohmann16json_abi_v3_11_310basic_jsonISt3mapSt6vectorS5_bxydSaNS8_14adl_serializerESB_IhSaIhEEvE6createIS5_JRKS5_EEEPT_DpOT0_EUlS6_E_EERT0_RSt11_Tuple_implIXT_EJSP_DpT1_EE @2621
    _ZSt12__get_helperILy0EPSt3mapINSt7__cxx1112basic_stringIcSt11char_traitsIcESaIcEEEN8nlohmann16json_abi_v3_11_310basic_jsonIS0_St6vectorS6_bxydSaNS8_14adl_serializerESA_IhSaIhEEvEESt4lessIvESaISt4pairIKS6_SE_EEEJZNSE_6createISL_JEEEPT_DpOT0_EUlSM_E_EERKT0_RKSt11_Tuple_implIXT_EJSU_DpT1_EE @2622
    _ZSt12__get_helperILy0EPSt3mapINSt7__cxx1112basic_stringIcSt11char_traitsIcESaIcEEEN8nlohmann16json_abi_v3_11_310basic_jsonIS0_St6vectorS6_bxydSaNS8_14adl_serializerESA_IhSaIhEEvEESt4lessIvESaISt4pairIKS6_SE_EEEJZNSE_6createISL_JEEEPT_DpOT0_EUlSM_E_EERT0_RSt11_Tuple_implIXT_EJSU_DpT1_EE @2623
    _ZSt12__get_helperILy0EPSt3mapINSt7__cxx1112basic_stringIcSt11char_traitsIcESaIcEEEN8nlohmann16json_abi_v3_11_310basic_jsonIS0_St6vectorS6_bxydSaNS8_14adl_serializerESA_IhSaIhEEvEESt4lessIvESaISt4pairIKS6_SE_EEEJZNSE_6createISL_JRKSL_EEEPT_DpOT0_EUlSM_E_EERKT0_RKSt11_Tuple_implIXT_EJSW_DpT1_EE @2624
    _ZSt12__get_helperILy0EPSt3mapINSt7__cxx1112basic_stringIcSt11char_traitsIcESaIcEEEN8nlohmann16json_abi_v3_11_310basic_jsonIS0_St6vectorS6_bxydSaNS8_14adl_serializerESA_IhSaIhEEvEESt4lessIvESaISt4pairIKS6_SE_EEEJZNSE_6createISL_JRKSL_EEEPT_DpOT0_EUlSM_E_EERT0_RSt11_Tuple_implIXT_EJSW_DpT1_EE @2625
    _ZSt12__get_helperILy0EPSt6vectorIN8nlohmann16json_abi_v3_11_310basic_jsonISt3mapS0_NSt7__cxx1112basic_stringIcSt11char_traitsIcESaIcEEEbxydSaNS2_14adl_serializerES0_IhSaIhEEvEESaISE_EEJZNSE_6createISG_JEEEPT_DpOT0_EUlSH_E_EERKT0_RKSt11_Tuple_implIXT_EJSP_DpT1_EE @2626
    _ZSt12__get_helperILy0EPSt6vectorIN8nlohmann16json_abi_v3_11_310basic_jsonISt3mapS0_NSt7__cxx1112basic_stringIcSt11char_traitsIcESaIcEEEbxydSaNS2_14adl_serializerES0_IhSaIhEEvEESaISE_EEJZNSE_6createISG_JEEEPT_DpOT0_EUlSH_E_EERT0_RSt11_Tuple_implIXT_EJSP_DpT1_EE @2627
    _ZSt12__get_helperILy0EPSt6vectorIN8nlohmann16json_abi_v3_11_310basic_jsonISt3mapS0_NSt7__cxx1112basic_stringIcSt11char_traitsIcESaIcEEEbxydSaNS2_14adl_serializerES0_IhSaIhEEvEESaISE_EEJZNSE_6createISG_JPKNS2_6detail8json_refISE_EESN_EEEPT_DpOT0_EUlSH_E_EERKT0_RKSt11_Tuple_implIXT_EJSU_DpT1_EE @2628
    _ZSt12__get_helperILy0EPSt6vectorIN8nlohmann16json_abi_v3_11_310basic_jsonISt3mapS0_NSt7__cxx1112basic_stringIcSt11char_traitsIcESaIcEEEbxydSaNS2_14adl_serializerES0_IhSaIhEEvEESaISE_EEJZNSE_6createISG_JPKNS2_6detail8json_refISE_EESN_EEEPT_DpOT0_EUlSH_E_EERT0_RSt11_Tuple_implIXT_EJSU_DpT1_EE @2629
    _ZSt12__get_helperILy0EPSt6vectorIN8nlohmann16json_abi_v3_11_310basic_jsonISt3mapS0_NSt7__cxx1112basic_stringIcSt11char_traitsIcESaIcEEEbxydSaNS2_14adl_serializerES0_IhSaIhEEvEESaISE_EEJZNSE_6createISG_JRKSG_EEEPT_DpOT0_EUlSH_E_EERKT0_RKSt11_Tuple_implIXT_EJSR_DpT1_EE @2630
    _ZSt12__get_helperILy0EPSt6vectorIN8nlohmann16json_abi_v3_11_310basic_jsonISt3mapS0_NSt7__cxx1112basic_stringIcSt11char_traitsIcESaIcEEEbxydSaNS2_14adl_serializerES0_IhSaIhEEvEESaISE_EEJZNSE_6createISG_JRKSG_EEEPT_DpOT0_EUlSH_E_EERT0_RSt11_Tuple_implIXT_EJSR_DpT1_EE @2631
    _ZSt12__get_helperILy0ERKPN10FiCo4OMNeT12CanDataFrameEJEERT0_RSt11_Tuple_implIXT_EJS5_DpT1_EE @2632
    _ZSt12__get_helperILy1EZN8nlohmann16json_abi_v3_11_310basic_jsonISt3mapSt6vectorNSt7__cxx1112basic_stringIcSt11char_traitsIcESaIcEEEbxydSaNS1_14adl_serializerES4_IhSaIhEEvE6createINS1_27byte_container_with_subtypeISD_EEJEEEPT_DpOT0_EUlPSH_E_JEERT0_RSt11_Tuple_implIXT_EJSP_DpT1_EE @2633
    _ZSt12__get_helperILy1EZN8nlohmann16json_abi_v3_11_310basic_jsonISt3mapSt6vectorNSt7__cxx1112basic_stringIcSt11char_traitsIcESaIcEEEbxydSaNS1_14adl_serializerES4_IhSaIhEEvE6createINS1_27byte_container_with_subtypeISD_EEJRKSH_EEEPT_DpOT0_EUlPSH_E_JEERT0_RSt11_Tuple_implIXT_EJSR_DpT1_EE @2634
    _ZSt12__get_helperILy1EZN8nlohmann16json_abi_v3_11_310basic_jsonISt3mapSt6vectorNSt7__cxx1112basic_stringIcSt11char_traitsIcESaIcEEEbxydSaNS1_14adl_serializerES4_IhSaIhEEvE6createIS3_ISA_SE_St4lessIvESaISt4pairIKSA_SE_EEEJEEEPT_DpOT0_EUlPSM_E_JEERT0_RSt11_Tuple_implIXT_EJSU_DpT1_EE @2635
    _ZSt12__get_helperILy1EZN8nlohmann16json_abi_v3_11_310basic_jsonISt3mapSt6vectorNSt7__cxx1112basic_stringIcSt11char_traitsIcESaIcEEEbxydSaNS1_14adl_serializerES4_IhSaIhEEvE6createIS3_ISA_SE_St4lessIvESaISt4pairIKSA_SE_EEEJRKSM_EEEPT_DpOT0_EUlPSM_E_JEERT0_RSt11_Tuple_implIXT_EJSW_DpT1_EE @2636
    _ZSt12__get_helperILy1EZN8nlohmann16json_abi_v3_11_310basic_jsonISt3mapSt6vectorNSt7__cxx1112basic_stringIcSt11char_traitsIcESaIcEEEbxydSaNS1_14adl_serializerES4_IhSaIhEEvE6createIS4_ISE_SaISE_EEJEEEPT_DpOT0_EUlPSH_E_JEERT0_RSt11_Tuple_implIXT_EJSP_DpT1_EE @2637
    _ZSt12__get_helperILy1EZN8nlohmann16json_abi_v3_11_310basic_jsonISt3mapSt6vectorNSt7__cxx1112basic_stringIcSt11char_traitsIcESaIcEEEbxydSaNS1_14adl_serializerES4_IhSaIhEEvE6createIS4_ISE_SaISE_EEJPKNS1_6detail8json_refISE_EESM_EEEPT_DpOT0_EUlPSH_E_JEERT0_RSt11_Tuple_implIXT_EJSU_DpT1_EE @2638
    _ZSt12__get_helperILy1EZN8nlohmann16json_abi_v3_11_310basic_jsonISt3mapSt6vectorNSt7__cxx1112basic_stringIcSt11char_traitsIcESaIcEEEbxydSaNS1_14adl_serializerES4_IhSaIhEEvE6createIS4_ISE_SaISE_EEJRKSH_EEEPT_DpOT0_EUlPSH_E_JEERT0_RSt11_Tuple_implIXT_EJSR_DpT1_EE @2639
    _ZSt12__get_helperILy1EZN8nlohmann16json_abi_v3_11_310basic_jsonISt3mapSt6vectorNSt7__cxx1112basic_stringIcSt11char_traitsIcESaIcEEEbxydSaNS1_14adl_serializerES4_IhSaIhEEvE6createISA_JRA1_KcEEEPT_DpOT0_EUlPSA_E_JEERT0_RSt11_Tuple_implIXT_EJSQ_DpT1_EE @2640
    _ZSt12__get_helperILy1EZN8nlohmann16json_abi_v3_11_310basic_jsonISt3mapSt6vectorNSt7__cxx1112basic_stringIcSt11char_traitsIcESaIcEEEbxydSaNS1_14adl_serializerES4_IhSaIhEEvE6createISA_JRKSA_EEEPT_DpOT0_EUlPSA_E_JEERT0_RSt11_Tuple_implIXT_EJSP_DpT1_EE @2641
    _ZSt12__miter_baseIN9__gnu_cxx17__normal_iteratorIPKhSt6vectorIhSaIhEEEEET_S8_ @2642
    _ZSt12__miter_baseIN9__gnu_cxx17__normal_iteratorIPN7CAN4CQF22CircularRotationBuffer9canfdInfoESt6vectorIS4_SaIS4_EEEEET_SA_ @2643
    _ZSt12__miter_baseIN9__gnu_cxx17__normal_iteratorIPN7CAN4CQF24RAEGatewayTransformation10order_infoESt6vectorIS4_SaIS4_EEEEET_SA_ @2644
    _ZSt12__miter_baseIN9__gnu_cxx17__normal_iteratorIPN8nlohmann16json_abi_v3_11_310basic_jsonISt3mapSt6vectorNSt7__cxx1112basic_stringIcSt11char_traitsIcESaIcEEEbxydSaNS3_14adl_serializerES6_IhSaIhEEvEES6_ISG_SaISG_EEEEET_SL_ @2645
    _ZSt12__miter_baseIN9__gnu_cxx17__normal_iteratorIPSt4pairIPN10FiCo4OMNeT12CanDataFrameEdESt6vectorIS6_SaIS6_EEEEET_SC_ @2646
    _ZSt12__niter_baseIPKhSt6vectorIhSaIhEEET_N9__gnu_cxx17__normal_iteratorIS5_T0_EE @2647
    _ZSt12__niter_baseIPN7CAN4CQF22CircularRotationBuffer9canfdInfoESt6vectorIS2_SaIS2_EEET_N9__gnu_cxx17__normal_iteratorIS7_T0_EE @2648
    _ZSt12__niter_baseIPN7CAN4CQF24RAEGatewayTransformation10order_infoESt6vectorIS2_SaIS2_EEET_N9__gnu_cxx17__normal_iteratorIS7_T0_EE @2649
    _ZSt12__niter_baseIPN8nlohmann16json_abi_v3_11_310basic_jsonISt3mapSt6vectorNSt7__cxx1112basic_stringIcSt11char_traitsIcESaIcEEEbxydSaNS1_14adl_serializerES4_IhSaIhEEvEEET_SG_ @2650
    _ZSt12__niter_baseIPN8nlohmann16json_abi_v3_11_310basic_jsonISt3mapSt6vectorNSt7__cxx1112basic_stringIcSt11char_traitsIcESaIcEEEbxydSaNS1_14adl_serializerES4_IhSaIhEEvEES4_ISE_SaISE_EEET_N9__gnu_cxx17__normal_iteratorISI_T0_EE @2651
    _ZSt12__niter_baseIPSt4pairIPN10FiCo4OMNeT12CanDataFrameEdEET_S6_ @2652
    _ZSt12__niter_baseIPSt4pairIPN10FiCo4OMNeT12CanDataFrameEdESt6vectorIS4_SaIS4_EEET_N9__gnu_cxx17__normal_iteratorIS9_T0_EE @2653
    _ZSt12__niter_baseIPhET_S1_ @2654
    _ZSt12__niter_baseISt20back_insert_iteratorISt6vectorIN8nlohmann16json_abi_v3_11_310basic_jsonISt3mapS1_NSt7__cxx1112basic_stringIcSt11char_traitsIcESaIcEEEbxydSaNS3_14adl_serializerES1_IhSaIhEEvEESaISF_EEEET_SJ_ @2655
    _ZSt12__niter_wrapIN9__gnu_cxx17__normal_iteratorIPN7CAN4CQF22CircularRotationBuffer9canfdInfoESt6vectorIS4_SaIS4_EEEES5_ET_SA_T0_ @2656
    _ZSt12__niter_wrapIN9__gnu_cxx17__normal_iteratorIPN7CAN4CQF24RAEGatewayTransformation10order_infoESt6vectorIS4_SaIS4_EEEES5_ET_SA_T0_ @2657
    _ZSt12__niter_wrapIN9__gnu_cxx17__normal_iteratorIPSt4pairIPN10FiCo4OMNeT12CanDataFrameEdESt6vectorIS6_SaIS6_EEEES7_ET_SC_T0_ @2658
    _ZSt12__niter_wrapIPhET_RKS1_S1_ @2659
    _ZSt12__niter_wrapISt20back_insert_iteratorISt6vectorIN8nlohmann16json_abi_v3_11_310basic_jsonISt3mapS1_NSt7__cxx1112basic_stringIcSt11char_traitsIcESaIcEEEbxydSaNS3_14adl_serializerES1_IhSaIhEEvEESaISF_EEEET_RKSJ_SJ_ @2660
    _ZSt12__relocate_aIPN8nlohmann16json_abi_v3_11_310basic_jsonISt3mapSt6vectorNSt7__cxx1112basic_stringIcSt11char_traitsIcESaIcEEEbxydSaNS1_14adl_serializerES4_IhSaIhEEvEESF_SaISE_EET0_T_SI_SH_RT1_ @2661
    _ZSt12__relocate_aIPSt4pairIPN10FiCo4OMNeT12CanDataFrameEdES5_SaIS4_EET0_T_S8_S7_RT1_ @2662
    _ZSt12__to_addressINSt8__detail10_Hash_nodeISt4pairIKtNSt7__cxx114listIPN9CoRE4INET6BufferESaIS8_EEEELb0EEEEPT_SE_ @2663
    _ZSt12__to_addressISt23_Sp_counted_ptr_inplaceIN8nlohmann16json_abi_v3_11_36detail21output_string_adapterIcNSt7__cxx1112basic_stringIcSt11char_traitsIcESaIcEEEEESaIvELN9__gnu_cxx12_Lock_policyE2EEEPT_SH_ @2664
    _ZSt13__copy_move_aILb0EN9__gnu_cxx17__normal_iteratorIPKhSt6vectorIhSaIhEEEEPhET1_T0_SA_S9_ @2665
    _ZSt13__copy_move_aILb1EN9__gnu_cxx17__normal_iteratorIPN7CAN4CQF22CircularRotationBuffer9canfdInfoESt6vectorIS4_SaIS4_EEEES9_ET1_T0_SB_SA_ @2666
    _ZSt13__copy_move_aILb1EN9__gnu_cxx17__normal_iteratorIPN8nlohmann16json_abi_v3_11_310basic_jsonISt3mapSt6vectorNSt7__cxx1112basic_stringIcSt11char_traitsIcESaIcEEEbxydSaNS3_14adl_serializerES6_IhSaIhEEvEES6_ISG_SaISG_EEEESt20back_insert_iteratorISJ_EET1_T0_SO_SN_ @2667
    _ZSt13__find_if_notIPKN8nlohmann16json_abi_v3_11_36detail8json_refINS1_10basic_jsonISt3mapSt6vectorNSt7__cxx1112basic_stringIcSt11char_traitsIcESaIcEEEbxydSaNS1_14adl_serializerES6_IhSaIhEEvEEEEN9__gnu_cxx5__ops10_Iter_predIZNSG_C1ESt16initializer_listISH_EbNS2_7value_tEEUlRSI_E_EEET_ST_ST_T0_ @2668
    _ZSt13back_inserterISt6vectorIN8nlohmann16json_abi_v3_11_310basic_jsonISt3mapS0_NSt7__cxx1112basic_stringIcSt11char_traitsIcESaIcEEEbxydSaNS2_14adl_serializerES0_IhSaIhEEvEESaISE_EEESt20back_insert_iteratorIT_ERSI_ @2669
    _ZSt13move_backwardIN9__gnu_cxx17__normal_iteratorIPN7CAN4CQF24RAEGatewayTransformation10order_infoESt6vectorIS4_SaIS4_EEEES9_ET0_T_SB_SA_ @2670
    _ZSt13move_backwardIN9__gnu_cxx17__normal_iteratorIPSt4pairIPN10FiCo4OMNeT12CanDataFrameEdESt6vectorIS6_SaIS6_EEEESB_ET0_T_SD_SC_ @2671
    _ZSt14__copy_move_a1ILb0EPKhPhET1_T0_S4_S3_ @2672
    _ZSt14__copy_move_a1ILb1EPN7CAN4CQF22CircularRotationBuffer9canfdInfoES3_ET1_T0_S5_S4_ @2673
    _ZSt14__copy_move_a1ILb1EPN8nlohmann16json_abi_v3_11_310basic_jsonISt3mapSt6vectorNSt7__cxx1112basic_stringIcSt11char_traitsIcESaIcEEEbxydSaNS1_14adl_serializerES4_IhSaIhEEvEESt20back_insert_iteratorIS4_ISE_SaISE_EEEET1_T0_SL_SK_ @2674
    _ZSt14__copy_move_a2ILb0EPKhPhET1_T0_S4_S3_ @2675
    _ZSt14__copy_move_a2ILb1EPN7CAN4CQF22CircularRotationBuffer9canfdInfoES3_ET1_T0_S5_S4_ @2676
    _ZSt14__copy_move_a2ILb1EPN8nlohmann16json_abi_v3_11_310basic_jsonISt3mapSt6vectorNSt7__cxx1112basic_stringIcSt11char_traitsIcESaIcEEEbxydSaNS1_14adl_serializerES4_IhSaIhEEvEESt20back_insert_iteratorIS4_ISE_SaISE_EEEET1_T0_SL_SK_ @2677
    _ZSt14__relocate_a_1IPN8nlohmann16json_abi_v3_11_310basic_jsonISt3mapSt6vectorNSt7__cxx1112basic_stringIcSt11char_traitsIcESaIcEEEbxydSaNS1_14adl_serializerES4_IhSaIhEEvEESF_SaISE_EET0_T_SI_SH_RT1_ @2678
    _ZSt14__relocate_a_1IPSt4pairIPN10FiCo4OMNeT12CanDataFrameEdES5_SaIS4_EET0_T_S8_S7_RT1_ @2679
    _ZSt15__alloc_on_moveISaISt10_List_nodeIPN10FiCo4OMNeT12CanDataFrameEEEEvRT_S7_ @2680
    _ZSt15__alloc_on_moveISaISt13_Rb_tree_nodeISt4pairIKPN10FiCo4OMNeT12CanDataFrameEN7omnetpp7SimTimeEEEEEvRT_SC_ @2681
    _ZSt15__alloc_on_moveISaISt13_Rb_tree_nodeISt4pairIKPN10FiCo4OMNeT12CanDataFrameEdEEEEvRT_SA_ @2682
    _ZSt16__do_uninit_copyIN9__gnu_cxx17__normal_iteratorIPKN8nlohmann16json_abi_v3_11_310basic_jsonISt3mapSt6vectorNSt7__cxx1112basic_stringIcSt11char_traitsIcESaIcEEEbxydSaNS3_14adl_serializerES6_IhSaIhEEvEES6_ISG_SaISG_EEEEPSG_ET0_T_SO_SN_ @2683
    _ZSt16__do_uninit_copyIPKN7CAN4CQF22CircularRotationBuffer9canfdInfoEPS2_ET0_T_S7_S6_ @2684
    _ZSt16__do_uninit_copyIPKN7CAN4CQF24RAEGatewayTransformation10order_infoEPS2_ET0_T_S7_S6_ @2685
    _ZSt16__do_uninit_copyIPKN8nlohmann16json_abi_v3_11_36detail8json_refINS1_10basic_jsonISt3mapSt6vectorNSt7__cxx1112basic_stringIcSt11char_traitsIcESaIcEEEbxydSaNS1_14adl_serializerES6_IhSaIhEEvEEEEPSG_ET0_T_SM_SL_ @2686
    _ZSt16forward_as_tupleIJiEESt5tupleIJDpOT_EES3_ @2687
    _ZSt18__allocate_guardedISaISt23_Sp_counted_ptr_inplaceIN8nlohmann16json_abi_v3_11_36detail21output_string_adapterIcNSt7__cxx1112basic_stringIcSt11char_traitsIcESaIcEEEEESaIvELN9__gnu_cxx12_Lock_policyE2EEEESt15__allocated_ptrIT_ERSI_ @2688
    _ZSt18__do_alloc_on_moveISaISt10_List_nodeIPN10FiCo4OMNeT12CanDataFrameEEEEvRT_S7_St17integral_constantIbLb1EE @2689
    _ZSt18__do_alloc_on_moveISaISt13_Rb_tree_nodeISt4pairIKPN10FiCo4OMNeT12CanDataFrameEN7omnetpp7SimTimeEEEEEvRT_SC_St17integral_constantIbLb1EE @2690
    _ZSt18__do_alloc_on_moveISaISt13_Rb_tree_nodeISt4pairIKPN10FiCo4OMNeT12CanDataFrameEdEEEEvRT_SA_St17integral_constantIbLb1EE @2691
    _ZSt18uninitialized_copyIN9__gnu_cxx17__normal_iteratorIPKN8nlohmann16json_abi_v3_11_310basic_jsonISt3mapSt6vectorNSt7__cxx1112basic_stringIcSt11char_traitsIcESaIcEEEbxydSaNS3_14adl_serializerES6_IhSaIhEEvEES6_ISG_SaISG_EEEEPSG_ET0_T_SO_SN_ @2692
    _ZSt18uninitialized_copyIN9__gnu_cxx17__normal_iteratorIPKhSt6vectorIhSaIhEEEEPhET0_T_SA_S9_ @2693
    _ZSt18uninitialized_copyIPKN7CAN4CQF22CircularRotationBuffer9canfdInfoEPS2_ET0_T_S7_S6_ @2694
    _ZSt18uninitialized_copyIPKN7CAN4CQF24RAEGatewayTransformation10order_infoEPS2_ET0_T_S7_S6_ @2695
    _ZSt18uninitialized_copyIPKN8nlohmann16json_abi_v3_11_36detail8json_refINS1_10basic_jsonISt3mapSt6vectorNSt7__cxx1112basic_stringIcSt11char_traitsIcESaIcEEEbxydSaNS1_14adl_serializerES6_IhSaIhEEvEEEEPSG_ET0_T_SM_SL_ @2696
    _ZSt19__iterator_categoryIN9__gnu_cxx17__normal_iteratorIPN7CAN4CQF24RAEGatewayTransformation10order_infoESt6vectorIS4_SaIS4_EEEEENSt15iterator_traitsIT_E17iterator_categoryERKSB_ @2697
    _ZSt19__iterator_categoryIPKN8nlohmann16json_abi_v3_11_36detail8json_refINS1_10basic_jsonISt3mapSt6vectorNSt7__cxx1112basic_stringIcSt11char_traitsIcESaIcEEEbxydSaNS1_14adl_serializerES6_IhSaIhEEvEEEEENSt15iterator_traitsIT_E17iterator_categoryERKSL_ @2698
    _ZSt19__iterator_categoryISt23_Rb_tree_const_iteratorISt4pairIKNSt7__cxx1112basic_stringIcSt11char_traitsIcESaIcEEEN8nlohmann16json_abi_v3_11_310basic_jsonISt3mapSt6vectorS7_bxydSaNSA_14adl_serializerESD_IhSaIhEEvEEEEENSt15iterator_traitsIT_E17iterator_categoryERKSL_ @2699
    _ZSt19__relocate_object_aIN8nlohmann16json_abi_v3_11_310basic_jsonISt3mapSt6vectorNSt7__cxx1112basic_stringIcSt11char_traitsIcESaIcEEEbxydSaNS1_14adl_serializerES4_IhSaIhEEvEESE_SaISE_EEvPT_PT0_RT1_ @2700
    _ZSt19__relocate_object_aISt4pairIPN10FiCo4OMNeT12CanDataFrameEdES4_SaIS4_EEvPT_PT0_RT1_ @2701
    _ZSt22__copy_move_backward_aILb1EN9__gnu_cxx17__normal_iteratorIPN7CAN4CQF24RAEGatewayTransformation10order_infoESt6vectorIS4_SaIS4_EEEES9_ET1_T0_SB_SA_ @2702
    _ZSt22__copy_move_backward_aILb1EN9__gnu_cxx17__normal_iteratorIPSt4pairIPN10FiCo4OMNeT12CanDataFrameEdESt6vectorIS6_SaIS6_EEEESB_ET1_T0_SD_SC_ @2703
    _ZSt22__uninitialized_copy_aIN9__gnu_cxx17__normal_iteratorIPKN8nlohmann16json_abi_v3_11_310basic_jsonISt3mapSt6vectorNSt7__cxx1112basic_stringIcSt11char_traitsIcESaIcEEEbxydSaNS3_14adl_serializerES6_IhSaIhEEvEES6_ISG_SaISG_EEEEPSG_SG_ET0_T_SO_SN_RSaIT1_E @2704
    _ZSt22__uninitialized_copy_aIN9__gnu_cxx17__normal_iteratorIPKhSt6vectorIhSaIhEEEEPhhET0_T_SA_S9_RSaIT1_E @2705
    _ZSt22__uninitialized_copy_aIPKN7CAN4CQF22CircularRotationBuffer9canfdInfoEPS2_S2_ET0_T_S7_S6_RSaIT1_E @2706
    _ZSt22__uninitialized_copy_aIPKN7CAN4CQF24RAEGatewayTransformation10order_infoEPS2_S2_ET0_T_S7_S6_RSaIT1_E @2707
    _ZSt22__uninitialized_copy_aIPKN8nlohmann16json_abi_v3_11_36detail8json_refINS1_10basic_jsonISt3mapSt6vectorNSt7__cxx1112basic_stringIcSt11char_traitsIcESaIcEEEbxydSaNS1_14adl_serializerES6_IhSaIhEEvEEEEPSG_SG_ET0_T_SM_SL_RSaIT1_E @2708
    _ZSt23__copy_move_backward_a1ILb1EPN7CAN4CQF24RAEGatewayTransformation10order_infoES3_ET1_T0_S5_S4_ @2709
    _ZSt23__copy_move_backward_a1ILb1EPSt4pairIPN10FiCo4OMNeT12CanDataFrameEdES5_ET1_T0_S7_S6_ @2710
    _ZSt23__copy_move_backward_a2ILb1EPN7CAN4CQF24RAEGatewayTransformation10order_infoES3_ET1_T0_S5_S4_ @2711
    _ZSt23__copy_move_backward_a2ILb1EPSt4pairIPN10FiCo4OMNeT12CanDataFrameEdES5_ET1_T0_S7_S6_ @2712
    _ZSt32__make_move_if_noexcept_iteratorIN7CAN4CQF22CircularRotationBuffer9canfdInfoEPKS2_ET0_PT_ @2713
    _ZSt32__make_move_if_noexcept_iteratorIN7CAN4CQF24RAEGatewayTransformation10order_infoEPKS2_ET0_PT_ @2714
    _ZSt34__uninitialized_move_if_noexcept_aIPN7CAN4CQF22CircularRotationBuffer9canfdInfoES3_SaIS2_EET0_T_S6_S5_RT1_ @2715
    _ZSt34__uninitialized_move_if_noexcept_aIPN7CAN4CQF24RAEGatewayTransformation10order_infoES3_SaIS2_EET0_T_S6_S5_RT1_ @2716
    _ZSt3endISt6vectorIN7CAN4CQF24RAEGatewayTransformation10order_infoESaIS3_EEEDTcldtfp_3endEERT_ @2717
    _ZSt3getILy0EJOiEERNSt13tuple_elementIXT_ESt5tupleIJDpT0_EEE4typeERS5_ @2718
    _ZSt3getILy0EJPN8nlohmann16json_abi_v3_11_327byte_container_with_subtypeISt6vectorIhSaIhEEEEZNS1_10basic_jsonISt3mapS3_NSt7__cxx1112basic_stringIcSt11char_traitsIcESaIcEEEbxydSaNS1_14adl_serializerES5_vE6createIS6_JEEEPT_DpOT0_EUlS7_E_EERKNSt13tuple_elementIXT_ESt5tupleIJDpSL_EEE4typeERKSS_ @2719
    _ZSt3getILy0EJPN8nlohmann16json_abi_v3_11_327byte_container_with_subtypeISt6vectorIhSaIhEEEEZNS1_10basic_jsonISt3mapS3_NSt7__cxx1112basic_stringIcSt11char_traitsIcESaIcEEEbxydSaNS1_14adl_serializerES5_vE6createIS6_JEEEPT_DpOT0_EUlS7_E_EERNSt13tuple_elementIXT_ESt5tupleIJDpSL_EEE4typeERSS_ @2720
    _ZSt3getILy0EJPN8nlohmann16json_abi_v3_11_327byte_container_with_subtypeISt6vectorIhSaIhEEEEZNS1_10basic_jsonISt3mapS3_NSt7__cxx1112basic_stringIcSt11char_traitsIcESaIcEEEbxydSaNS1_14adl_serializerES5_vE6createIS6_JRKS6_EEEPT_DpOT0_EUlS7_E_EERKNSt13tuple_elementIXT_ESt5tupleIJDpSN_EEE4typeERKSU_ @2721
    _ZSt3getILy0EJPN8nlohmann16json_abi_v3_11_327byte_container_with_subtypeISt6vectorIhSaIhEEEEZNS1_10basic_jsonISt3mapS3_NSt7__cxx1112basic_stringIcSt11char_traitsIcESaIcEEEbxydSaNS1_14adl_serializerES5_vE6createIS6_JRKS6_EEEPT_DpOT0_EUlS7_E_EERNSt13tuple_elementIXT_ESt5tupleIJDpSN_EEE4typeERSU_ @2722
    _ZSt3getILy0EJPNSt7__cxx1112basic_stringIcSt11char_traitsIcESaIcEEEZN8nlohmann16json_abi_v3_11_310basic_jsonISt3mapSt6vectorS5_bxydSaNS8_14adl_serializerESB_IhSaIhEEvE6createIS5_JRA1_KcEEEPT_DpOT0_EUlS6_E_EERKNSt13tuple_elementIXT_ESt5tupleIJDpSM_EEE4typeERKST_ @2723
    _ZSt3getILy0EJPNSt7__cxx1112basic_stringIcSt11char_traitsIcESaIcEEEZN8nlohmann16json_abi_v3_11_310basic_jsonISt3mapSt6vectorS5_bxydSaNS8_14adl_serializerESB_IhSaIhEEvE6createIS5_JRA1_KcEEEPT_DpOT0_EUlS6_E_EERNSt13tuple_elementIXT_ESt5tupleIJDpSM_EEE4typeERST_ @2724
    _ZSt3getILy0EJPNSt7__cxx1112basic_stringIcSt11char_traitsIcESaIcEEEZN8nlohmann16json_abi_v3_11_310basic_jsonISt3mapSt6vectorS5_bxydSaNS8_14adl_serializerESB_IhSaIhEEvE6createIS5_JRKS5_EEEPT_DpOT0_EUlS6_E_EERKNSt13tuple_elementIXT_ESt5tupleIJDpSL_EEE4typeERKSS_ @2725
    _ZSt3getILy0EJPNSt7__cxx1112basic_stringIcSt11char_traitsIcESaIcEEEZN8nlohmann16json_abi_v3_11_310basic_jsonISt3mapSt6vectorS5_bxydSaNS8_14adl_serializerESB_IhSaIhEEvE6createIS5_JRKS5_EEEPT_DpOT0_EUlS6_E_EERNSt13tuple_elementIXT_ESt5tupleIJDpSL_EEE4typeERSS_ @2726
    _ZSt3getILy0EJPSt3mapINSt7__cxx1112basic_stringIcSt11char_traitsIcESaIcEEEN8nlohmann16json_abi_v3_11_310basic_jsonIS0_St6vectorS6_bxydSaNS8_14adl_serializerESA_IhSaIhEEvEESt4lessIvESaISt4pairIKS6_SE_EEEZNSE_6createISL_JEEEPT_DpOT0_EUlSM_E_EERKNSt13tuple_elementIXT_ESt5tupleIJDpSQ_EEE4typeERKSX_ @2727
    _ZSt3getILy0EJPSt3mapINSt7__cxx1112basic_stringIcSt11char_traitsIcESaIcEEEN8nlohmann16json_abi_v3_11_310basic_jsonIS0_St6vectorS6_bxydSaNS8_14adl_serializerESA_IhSaIhEEvEESt4lessIvESaISt4pairIKS6_SE_EEEZNSE_6createISL_JEEEPT_DpOT0_EUlSM_E_EERNSt13tuple_elementIXT_ESt5tupleIJDpSQ_EEE4typeERSX_ @2728
    _ZSt3getILy0EJPSt3mapINSt7__cxx1112basic_stringIcSt11char_traitsIcESaIcEEEN8nlohmann16json_abi_v3_11_310basic_jsonIS0_St6vectorS6_bxydSaNS8_14adl_serializerESA_IhSaIhEEvEESt4lessIvESaISt4pairIKS6_SE_EEEZNSE_6createISL_JRKSL_EEEPT_DpOT0_EUlSM_E_EERKNSt13tuple_elementIXT_ESt5tupleIJDpSS_EEE4typeERKSZ_ @2729
    _ZSt3getILy0EJPSt3mapINSt7__cxx1112basic_stringIcSt11char_traitsIcESaIcEEEN8nlohmann16json_abi_v3_11_310basic_jsonIS0_St6vectorS6_bxydSaNS8_14adl_serializerESA_IhSaIhEEvEESt4lessIvESaISt4pairIKS6_SE_EEEZNSE_6createISL_JRKSL_EEEPT_DpOT0_EUlSM_E_EERNSt13tuple_elementIXT_ESt5tupleIJDpSS_EEE4typeERSZ_ @2730
    _ZSt3getILy0EJPSt6vectorIN8nlohmann16json_abi_v3_11_310basic_jsonISt3mapS0_NSt7__cxx1112basic_stringIcSt11char_traitsIcESaIcEEEbxydSaNS2_14adl_serializerES0_IhSaIhEEvEESaISE_EEZNSE_6createISG_JEEEPT_DpOT0_EUlSH_E_EERKNSt13tuple_elementIXT_ESt5tupleIJDpSL_EEE4typeERKSS_ @2731
    _ZSt3getILy0EJPSt6vectorIN8nlohmann16json_abi_v3_11_310basic_jsonISt3mapS0_NSt7__cxx1112basic_stringIcSt11char_traitsIcESaIcEEEbxydSaNS2_14adl_serializerES0_IhSaIhEEvEESaISE_EEZNSE_6createISG_JEEEPT_DpOT0_EUlSH_E_EERNSt13tuple_elementIXT_ESt5tupleIJDpSL_EEE4typeERSS_ @2732
    _ZSt3getILy0EJPSt6vectorIN8nlohmann16json_abi_v3_11_310basic_jsonISt3mapS0_NSt7__cxx1112basic_stringIcSt11char_traitsIcESaIcEEEbxydSaNS2_14adl_serializerES0_IhSaIhEEvEESaISE_EEZNSE_6createISG_JPKNS2_6detail8json_refISE_EESN_EEEPT_DpOT0_EUlSH_E_EERKNSt13tuple_elementIXT_ESt5tupleIJDpSQ_EEE4typeERKSX_ @2733
    _ZSt3getILy0EJPSt6vectorIN8nlohmann16json_abi_v3_11_310basic_jsonISt3mapS0_NSt7__cxx1112basic_stringIcSt11char_traitsIcESaIcEEEbxydSaNS2_14adl_serializerES0_IhSaIhEEvEESaISE_EEZNSE_6createISG_JPKNS2_6detail8json_refISE_EESN_EEEPT_DpOT0_EUlSH_E_EERNSt13tuple_elementIXT_ESt5tupleIJDpSQ_EEE4typeERSX_ @2734
    _ZSt3getILy0EJPSt6vectorIN8nlohmann16json_abi_v3_11_310basic_jsonISt3mapS0_NSt7__cxx1112basic_stringIcSt11char_traitsIcESaIcEEEbxydSaNS2_14adl_serializerES0_IhSaIhEEvEESaISE_EEZNSE_6createISG_JRKSG_EEEPT_DpOT0_EUlSH_E_EERKNSt13tuple_elementIXT_ESt5tupleIJDpSN_EEE4typeERKSU_ @2735
    _ZSt3getILy0EJPSt6vectorIN8nlohmann16json_abi_v3_11_310basic_jsonISt3mapS0_NSt7__cxx1112basic_stringIcSt11char_traitsIcESaIcEEEbxydSaNS2_14adl_serializerES0_IhSaIhEEvEESaISE_EEZNSE_6createISG_JRKSG_EEEPT_DpOT0_EUlSH_E_EERNSt13tuple_elementIXT_ESt5tupleIJDpSN_EEE4typeERSU_ @2736
    _ZSt3getILy0EJRKPN10FiCo4OMNeT12CanDataFrameEEERNSt13tuple_elementIXT_ESt5tupleIJDpT0_EEE4typeERS9_ @2737
    _ZSt3getILy1EJPN8nlohmann16json_abi_v3_11_327byte_container_with_subtypeISt6vectorIhSaIhEEEEZNS1_10basic_jsonISt3mapS3_NSt7__cxx1112basic_stringIcSt11char_traitsIcESaIcEEEbxydSaNS1_14adl_serializerES5_vE6createIS6_JEEEPT_DpOT0_EUlS7_E_EERNSt13tuple_elementIXT_ESt5tupleIJDpSL_EEE4typeERSS_ @2738
    _ZSt3getILy1EJPN8nlohmann16json_abi_v3_11_327byte_container_with_subtypeISt6vectorIhSaIhEEEEZNS1_10basic_jsonISt3mapS3_NSt7__cxx1112basic_stringIcSt11char_traitsIcESaIcEEEbxydSaNS1_14adl_serializerES5_vE6createIS6_JRKS6_EEEPT_DpOT0_EUlS7_E_EERNSt13tuple_elementIXT_ESt5tupleIJDpSN_EEE4typeERSU_ @2739
    _ZSt3getILy1EJPNSt7__cxx1112basic_stringIcSt11char_traitsIcESaIcEEEZN8nlohmann16json_abi_v3_11_310basic_jsonISt3mapSt6vectorS5_bxydSaNS8_14adl_serializerESB_IhSaIhEEvE6createIS5_JRA1_KcEEEPT_DpOT0_EUlS6_E_EERNSt13tuple_elementIXT_ESt5tupleIJDpSM_EEE4typeERST_ @2740
    _ZSt3getILy1EJPNSt7__cxx1112basic_stringIcSt11char_traitsIcESaIcEEEZN8nlohmann16json_abi_v3_11_310basic_jsonISt3mapSt6vectorS5_bxydSaNS8_14adl_serializerESB_IhSaIhEEvE6createIS5_JRKS5_EEEPT_DpOT0_EUlS6_E_EERNSt13tuple_elementIXT_ESt5tupleIJDpSL_EEE4typeERSS_ @2741
    _ZSt3getILy1EJPSt3mapINSt7__cxx1112basic_stringIcSt11char_traitsIcESaIcEEEN8nlohmann16json_abi_v3_11_310basic_jsonIS0_St6vectorS6_bxydSaNS8_14adl_serializerESA_IhSaIhEEvEESt4lessIvESaISt4pairIKS6_SE_EEEZNSE_6createISL_JEEEPT_DpOT0_EUlSM_E_EERNSt13tuple_elementIXT_ESt5tupleIJDpSQ_EEE4typeERSX_ @2742
    _ZSt3getILy1EJPSt3mapINSt7__cxx1112basic_stringIcSt11char_traitsIcESaIcEEEN8nlohmann16json_abi_v3_11_310basic_jsonIS0_St6vectorS6_bxydSaNS8_14adl_serializerESA_IhSaIhEEvEESt4lessIvESaISt4pairIKS6_SE_EEEZNSE_6createISL_JRKSL_EEEPT_DpOT0_EUlSM_E_EERNSt13tuple_elementIXT_ESt5tupleIJDpSS_EEE4typeERSZ_ @2743
    _ZSt3getILy1EJPSt6vectorIN8nlohmann16json_abi_v3_11_310basic_jsonISt3mapS0_NSt7__cxx1112basic_stringIcSt11char_traitsIcESaIcEEEbxydSaNS2_14adl_serializerES0_IhSaIhEEvEESaISE_EEZNSE_6createISG_JEEEPT_DpOT0_EUlSH_E_EERNSt13tuple_elementIXT_ESt5tupleIJDpSL_EEE4typeERSS_ @2744
    _ZSt3getILy1EJPSt6vectorIN8nlohmann16json_abi_v3_11_310basic_jsonISt3mapS0_NSt7__cxx1112basic_stringIcSt11char_traitsIcESaIcEEEbxydSaNS2_14adl_serializerES0_IhSaIhEEvEESaISE_EEZNSE_6createISG_JPKNS2_6detail8json_refISE_EESN_EEEPT_DpOT0_EUlSH_E_EERNSt13tuple_elementIXT_ESt5tupleIJDpSQ_EEE4typeERSX_ @2745
    _ZSt3getILy1EJPSt6vectorIN8nlohmann16json_abi_v3_11_310basic_jsonISt3mapS0_NSt7__cxx1112basic_stringIcSt11char_traitsIcESaIcEEEbxydSaNS2_14adl_serializerES0_IhSaIhEEvEESaISE_EEZNSE_6createISG_JRKSG_EEEPT_DpOT0_EUlSH_E_EERNSt13tuple_elementIXT_ESt5tupleIJDpSN_EEE4typeERSU_ @2746
    _ZSt3maxIdERKT_S2_S2_ @2747
    _ZSt4copyIN9__gnu_cxx17__normal_iteratorIPKhSt6vectorIhSaIhEEEEPhET0_T_SA_S9_ @2748
    _ZSt4moveIN9__gnu_cxx17__normal_iteratorIPN7CAN4CQF22CircularRotationBuffer9canfdInfoESt6vectorIS4_SaIS4_EEEES9_ET0_T_SB_SA_ @2749
    _ZSt4moveIN9__gnu_cxx17__normal_iteratorIPN8nlohmann16json_abi_v3_11_310basic_jsonISt3mapSt6vectorNSt7__cxx1112basic_stringIcSt11char_traitsIcESaIcEEEbxydSaNS3_14adl_serializerES6_IhSaIhEEvEES6_ISG_SaISG_EEEESt20back_insert_iteratorISJ_EET0_T_SO_SN_ @2750
    _ZSt4moveIRN7CAN4CQF22CircularRotationBuffer9canfdInfoEEONSt16remove_referenceIT_E4typeEOS5_ @2751
    _ZSt4moveIRN7CAN4CQF24RAEGatewayTransformation10order_infoEEONSt16remove_referenceIT_E4typeEOS5_ @2752
    _ZSt4moveIRN8nlohmann16json_abi_v3_11_310basic_jsonISt3mapSt6vectorNSt7__cxx1112basic_stringIcSt11char_traitsIcESaIcEEEbxydSaNS1_14adl_serializerES4_IhSaIhEEvE10json_valueEEONSt16remove_referenceIT_E4typeEOSI_ @2753
    _ZSt4moveIRN8nlohmann16json_abi_v3_11_310basic_jsonISt3mapSt6vectorNSt7__cxx1112basic_stringIcSt11char_traitsIcESaIcEEEbxydSaNS1_14adl_serializerES4_IhSaIhEEvE4dataEEONSt16remove_referenceIT_E4typeEOSI_ @2754
    _ZSt4moveIRN8nlohmann16json_abi_v3_11_310basic_jsonISt3mapSt6vectorNSt7__cxx1112basic_stringIcSt11char_traitsIcESaIcEEEbxydSaNS1_14adl_serializerES4_IhSaIhEEvEEEONSt16remove_referenceIT_E4typeEOSH_ @2755
    _ZSt4moveIRN8nlohmann16json_abi_v3_11_36detail7value_tEEONSt16remove_referenceIT_E4typeEOS6_ @2756
    _ZSt4moveIRNSt7__cxx114listIPN10FiCo4OMNeT12CanDataFrameESaIS4_EEEEONSt16remove_referenceIT_E4typeEOS9_ @2757
    _ZSt4moveIRPN8nlohmann16json_abi_v3_11_327byte_container_with_subtypeISt6vectorIhSaIhEEEEEONSt16remove_referenceIT_E4typeEOSA_ @2758
    _ZSt4moveIRPNSt7__cxx1112basic_stringIcSt11char_traitsIcESaIcEEEEONSt16remove_referenceIT_E4typeEOS9_ @2759
    _ZSt4moveIRPSt3mapINSt7__cxx1112basic_stringIcSt11char_traitsIcESaIcEEEN8nlohmann16json_abi_v3_11_310basic_jsonIS0_St6vectorS6_bxydSaNS8_14adl_serializerESA_IhSaIhEEvEESt4lessIvESaISt4pairIKS6_SE_EEEEONSt16remove_referenceIT_E4typeEOSP_ @2760
    _ZSt4moveIRPSt6vectorIN8nlohmann16json_abi_v3_11_310basic_jsonISt3mapS0_NSt7__cxx1112basic_stringIcSt11char_traitsIcESaIcEEEbxydSaNS2_14adl_serializerES0_IhSaIhEEvEESaISE_EEEONSt16remove_referenceIT_E4typeEOSK_ @2761
    _ZSt4moveIRSaISt13_Rb_tree_nodeISt4pairIKPN10FiCo4OMNeT12CanDataFrameEN7omnetpp7SimTimeEEEEEONSt16remove_referenceIT_E4typeEOSD_ @2762
    _ZSt4moveIRSaISt13_Rb_tree_nodeISt4pairIKPN10FiCo4OMNeT12CanDataFrameEdEEEEONSt16remove_referenceIT_E4typeEOSB_ @2763
    _ZSt4moveIRSt10shared_ptrIN8nlohmann16json_abi_v3_11_36detail21output_string_adapterIcNSt7__cxx1112basic_stringIcSt11char_traitsIcESaIcEEEEEEEONSt16remove_referenceIT_E4typeEOSF_ @2764
    _ZSt4moveIRSt10shared_ptrIN8nlohmann16json_abi_v3_11_36detail23output_adapter_protocolIcEEEEONSt16remove_referenceIT_E4typeEOS9_ @2765
    _ZSt4moveIRSt4lessIPN10FiCo4OMNeT12CanDataFrameEEEONSt16remove_referenceIT_E4typeEOS7_ @2766
    _ZSt4moveIRSt4pairIPN10FiCo4OMNeT12CanDataFrameEdEEONSt16remove_referenceIT_E4typeEOS7_ @2767
    _ZSt4moveIRZN8nlohmann16json_abi_v3_11_310basic_jsonISt3mapSt6vectorNSt7__cxx1112basic_stringIcSt11char_traitsIcESaIcEEEbxydSaNS1_14adl_serializerES4_IhSaIhEEvEC1ESt16initializer_listINS1_6detail8json_refISE_EEEbNSG_7value_tEEUlRKSI_E_EONSt16remove_referenceIT_E4typeEOSQ_ @2768
    _ZSt4moveIRdEONSt16remove_referenceIT_E4typeEOS2_ @2769
    _ZSt4moveIRxEONSt16remove_referenceIT_E4typeEOS2_ @2770
    _ZSt4nextISt23_Rb_tree_const_iteratorISt4pairIKNSt7__cxx1112basic_stringIcSt11char_traitsIcESaIcEEEN8nlohmann16json_abi_v3_11_310basic_jsonISt3mapSt6vectorS7_bxydSaNSA_14adl_serializerESD_IhSaIhEEvEEEEET_SK_NSt15iterator_traitsISK_E15difference_typeE @2771
    _ZSt4swapIN7CAN4CQF24RAEGatewayTransformation10order_infoEENSt9enable_ifIXsr6__and_ISt6__not_ISt15__is_tuple_likeIT_EESt21is_move_constructibleIS6_ESt18is_move_assignableIS6_EEE5valueEvE4typeERS6_SF_ @2772
    _ZSt4swapIN8nlohmann16json_abi_v3_11_310basic_jsonISt3mapSt6vectorNSt7__cxx1112basic_stringIcSt11char_traitsIcESaIcEEEbxydSaNS1_14adl_serializerES4_IhSaIhEEvE10json_valueEENSt9enable_ifIXsr6__and_ISt6__not_ISt15__is_tuple_likeIT_EESt21is_move_constructibleISJ_ESt18is_move_assignableISJ_EEE5valueEvE4typeERSJ_SS_ @2773
    _ZSt4swapIN8nlohmann16json_abi_v3_11_36detail7value_tEENSt9enable_ifIXsr6__and_ISt6__not_ISt15__is_tuple_likeIT_EESt21is_move_constructibleIS7_ESt18is_move_assignableIS7_EEE5valueEvE4typeERS7_SG_ @2774
    _ZSt4swapIPN10FiCo4OMNeT12CanDataFrameEENSt9enable_ifIXsr6__and_ISt6__not_ISt15__is_tuple_likeIT_EESt21is_move_constructibleIS6_ESt18is_move_assignableIS6_EEE5valueEvE4typeERS6_SF_ @2775
    _ZSt4swapIPN10FiCo4OMNeT12CanDataFrameEdENSt9enable_ifIXsr6__and_ISt14__is_swappableIT_ES4_IT0_EEE5valueEvE4typeERSt4pairIS5_S7_ESD_ @2776
    _ZSt4swapIdENSt9enable_ifIXsr6__and_ISt6__not_ISt15__is_tuple_likeIT_EESt21is_move_constructibleIS3_ESt18is_move_assignableIS3_EEE5valueEvE4typeERS3_SC_ @2777
    _ZSt4swapIxENSt9enable_ifIXsr6__and_ISt6__not_ISt15__is_tuple_likeIT_EESt21is_move_constructibleIS3_ESt18is_move_assignableIS3_EEE5valueEvE4typeERS3_SC_ @2778
    _ZSt5beginISt6vectorIN7CAN4CQF24RAEGatewayTransformation10order_infoESaIS3_EEEDTcldtfp_5beginEERT_ @2779
    _ZSt6all_ofIPKN8nlohmann16json_abi_v3_11_36detail8json_refINS1_10basic_jsonISt3mapSt6vectorNSt7__cxx1112basic_stringIcSt11char_traitsIcESaIcEEEbxydSaNS1_14adl_serializerES6_IhSaIhEEvEEEEZNSG_C1ESt16initializer_listISH_EbNS2_7value_tEEUlRSI_E_EbT_SP_T0_ @2780
    _ZSt7advanceISt23_Rb_tree_const_iteratorISt4pairIKNSt7__cxx1112basic_stringIcSt11char_traitsIcESaIcEEEN8nlohmann16json_abi_v3_11_310basic_jsonISt3mapSt6vectorS7_bxydSaNSA_14adl_serializerESD_IhSaIhEEvEEEExEvRT_T0_ @2781
    _ZSt7forwardIDnEOT_RNSt16remove_referenceIS0_E4typeE @2782
    _ZSt7forwardIN8nlohmann16json_abi_v3_11_310basic_jsonISt3mapSt6vectorNSt7__cxx1112basic_stringIcSt11char_traitsIcESaIcEEEbxydSaNS1_14adl_serializerES4_IhSaIhEEvEEEOT_RNSt16remove_referenceISF_E4typeE @2783
    _ZSt7forwardIN8nlohmann16json_abi_v3_11_36detail17json_default_baseEEOT_RNSt16remove_referenceIS4_E4typeE @2784
    _ZSt7forwardIOiEOT_RNSt16remove_referenceIS1_E4typeE @2785
    _ZSt7forwardIPKN8nlohmann16json_abi_v3_11_36detail8json_refINS1_10basic_jsonISt3mapSt6vectorNSt7__cxx1112basic_stringIcSt11char_traitsIcESaIcEEEbxydSaNS1_14adl_serializerES6_IhSaIhEEvEEEEEOT_RNSt16remove_referenceISK_E4typeE @2786
    _ZSt7forwardIPKcEOT_RNSt16remove_referenceIS2_E4typeE @2787
    _ZSt7forwardIRA17_KcEOT_RNSt16remove_referenceIS3_E4typeE @2788
    _ZSt7forwardIRA1_KcEOT_RNSt16remove_referenceIS3_E4typeE @2789
    _ZSt7forwardIRA29_KcEOT_RNSt16remove_referenceIS3_E4typeE @2790
    _ZSt7forwardIRA39_KcEOT_RNSt16remove_referenceIS3_E4typeE @2791
    _ZSt7forwardIRA3_KcEOT_RNSt16remove_referenceIS3_E4typeE @2792
    _ZSt7forwardIRA51_KcEOT_RNSt16remove_referenceIS3_E4typeE @2793
    _ZSt7forwardIRA52_KcEOT_RNSt16remove_referenceIS3_E4typeE @2794
    _ZSt7forwardIRA5_KcEOT_RNSt16remove_referenceIS3_E4typeE @2795
    _ZSt7forwardIRKN7CAN4CQF21GatewayTransformation5QInfoEEOT_RNSt16remove_referenceIS5_E4typeE @2796
    _ZSt7forwardIRKN7CAN4CQF22CircularRotationBuffer9canfdInfoEEOT_RNSt16remove_referenceIS5_E4typeE @2797
    _ZSt7forwardIRKN7CAN4CQF24EDFGatewayTransformation5QInfoEEOT_RNSt16remove_referenceIS5_E4typeE @2798
    _ZSt7forwardIRKN7CAN4CQF24RAEGatewayTransformation10order_infoEEOT_RNSt16remove_referenceIS5_E4typeE @2799
    _ZSt7forwardIRKN7CAN4CQF24RAEGatewayTransformation5QInfoEEOT_RNSt16remove_referenceIS5_E4typeE @2800
    _ZSt7forwardIRKN7CAN4CQF24VarGatewayTransformation5QInfoEEOT_RNSt16remove_referenceIS5_E4typeE @2801
    _ZSt7forwardIRKN7CAN4CQF28TimeoutGatewayTransformation5QInfoEEOT_RNSt16remove_referenceIS5_E4typeE @2802
    _ZSt7forwardIRKN8nlohmann16json_abi_v3_11_310basic_jsonISt3mapSt6vectorNSt7__cxx1112basic_stringIcSt11char_traitsIcESaIcEEEbxydSaNS1_14adl_serializerES4_IhSaIhEEvEEEOT_RNSt16remove_referenceISH_E4typeE @2803
    _ZSt7forwardIRKN8nlohmann16json_abi_v3_11_327byte_container_with_subtypeISt6vectorIhSaIhEEEEEOT_RNSt16remove_referenceIS9_E4typeE @2804
    _ZSt7forwardIRKN8nlohmann16json_abi_v3_11_36detail8json_refINS1_10basic_jsonISt3mapSt6vectorNSt7__cxx1112basic_stringIcSt11char_traitsIcESaIcEEEbxydSaNS1_14adl_serializerES6_IhSaIhEEvEEEEEOT_RNSt16remove_referenceISK_E4typeE @2805
    _ZSt7forwardIRKPN9CoRE4INET6BufferEEOT_RNSt16remove_referenceIS5_E4typeE @2806
    _ZSt7forwardIRKSt3mapINSt7__cxx1112basic_stringIcSt11char_traitsIcESaIcEEEN8nlohmann16json_abi_v3_11_310basic_jsonIS0_St6vectorS6_bxydSaNS8_14adl_serializerESA_IhSaIhEEvEESt4lessIvESaISt4pairIKS6_SE_EEEEOT_RNSt16remove_referenceISO_E4typeE @2807
    _ZSt7forwardIRKSt4pairIKNSt7__cxx1112basic_stringIcSt11char_traitsIcESaIcEEEN8nlohmann16json_abi_v3_11_310basic_jsonISt3mapSt6vectorS6_bxydSaNS9_14adl_serializerESC_IhSaIhEEvEEEEOT_RNSt16remove_referenceISK_E4typeE @2808
    _ZSt7forwardIRKSt4pairIKPN10FiCo4OMNeT12CanDataFrameEN7omnetpp7SimTimeEEEOT_RNSt16remove_referenceISA_E4typeE @2809
    _ZSt7forwardIRKSt4pairIKPN10FiCo4OMNeT12CanDataFrameEdEEOT_RNSt16remove_referenceIS8_E4typeE @2810
    _ZSt7forwardIRKSt4pairIKtNSt7__cxx114listIPN9CoRE4INET6BufferESaIS6_EEEEEOT_RNSt16remove_referenceISC_E4typeE @2811
    _ZSt7forwardIRKSt6vectorIN8nlohmann16json_abi_v3_11_310basic_jsonISt3mapS0_NSt7__cxx1112basic_stringIcSt11char_traitsIcESaIcEEEbxydSaNS2_14adl_serializerES0_IhSaIhEEvEESaISE_EEEOT_RNSt16remove_referenceISJ_E4typeE @2812
    _ZSt7forwardIRKZN8nlohmann16json_abi_v3_11_310basic_jsonISt3mapSt6vectorNSt7__cxx1112basic_stringIcSt11char_traitsIcESaIcEEEbxydSaNS1_14adl_serializerES4_IhSaIhEEvE6createINS1_27byte_container_with_subtypeISD_EEJEEEPT_DpOT0_EUlPSH_E_EOSI_RNSt16remove_referenceISI_E4typeE @2813
    _ZSt7forwardIRKZN8nlohmann16json_abi_v3_11_310basic_jsonISt3mapSt6vectorNSt7__cxx1112basic_stringIcSt11char_traitsIcESaIcEEEbxydSaNS1_14adl_serializerES4_IhSaIhEEvE6createINS1_27byte_container_with_subtypeISD_EEJRKSH_EEEPT_DpOT0_EUlPSH_E_EOSK_RNSt16remove_referenceISK_E4typeE @2814
    _ZSt7forwardIRKZN8nlohmann16json_abi_v3_11_310basic_jsonISt3mapSt6vectorNSt7__cxx1112basic_stringIcSt11char_traitsIcESaIcEEEbxydSaNS1_14adl_serializerES4_IhSaIhEEvE6createIS3_ISA_SE_St4lessIvESaISt4pairIKSA_SE_EEEJEEEPT_DpOT0_EUlPSM_E_EOSN_RNSt16remove_referenceISN_E4typeE @2815
    _ZSt7forwardIRKZN8nlohmann16json_abi_v3_11_310basic_jsonISt3mapSt6vectorNSt7__cxx1112basic_stringIcSt11char_traitsIcESaIcEEEbxydSaNS1_14adl_serializerES4_IhSaIhEEvE6createIS3_ISA_SE_St4lessIvESaISt4pairIKSA_SE_EEEJRKSM_EEEPT_DpOT0_EUlPSM_E_EOSP_RNSt16remove_referenceISP_E4typeE @2816
    _ZSt7forwardIRKZN8nlohmann16json_abi_v3_11_310basic_jsonISt3mapSt6vectorNSt7__cxx1112basic_stringIcSt11char_traitsIcESaIcEEEbxydSaNS1_14adl_serializerES4_IhSaIhEEvE6createIS4_ISE_SaISE_EEJEEEPT_DpOT0_EUlPSH_E_EOSI_RNSt16remove_referenceISI_E4typeE @2817
    _ZSt7forwardIRKZN8nlohmann16json_abi_v3_11_310basic_jsonISt3mapSt6vectorNSt7__cxx1112basic_stringIcSt11char_traitsIcESaIcEEEbxydSaNS1_14adl_serializerES4_IhSaIhEEvE6createIS4_ISE_SaISE_EEJPKNS1_6detail8json_refISE_EESM_EEEPT_DpOT0_EUlPSH_E_EOSN_RNSt16remove_referenceISN_E4typeE @2818
    _ZSt7forwardIRKZN8nlohmann16json_abi_v3_11_310basic_jsonISt3mapSt6vectorNSt7__cxx1112basic_stringIcSt11char_traitsIcESaIcEEEbxydSaNS1_14adl_serializerES4_IhSaIhEEvE6createIS4_ISE_SaISE_EEJRKSH_EEEPT_DpOT0_EUlPSH_E_EOSK_RNSt16remove_referenceISK_E4typeE @2819
    _ZSt7forwardIRKZN8nlohmann16json_abi_v3_11_310basic_jsonISt3mapSt6vectorNSt7__cxx1112basic_stringIcSt11char_traitsIcESaIcEEEbxydSaNS1_14adl_serializerES4_IhSaIhEEvE6createISA_JRA1_KcEEEPT_DpOT0_EUlPSA_E_EOSJ_RNSt16remove_referenceISJ_E4typeE @2820
    _ZSt7forwardIRKZN8nlohmann16json_abi_v3_11_310basic_jsonISt3mapSt6vectorNSt7__cxx1112basic_stringIcSt11char_traitsIcESaIcEEEbxydSaNS1_14adl_serializerES4_IhSaIhEEvE6createISA_JRKSA_EEEPT_DpOT0_EUlPSA_E_EOSI_RNSt16remove_referenceISI_E4typeE @2821
    _ZSt7forwardIRKdEOT_RNSt16remove_referenceIS2_E4typeE @2822
    _ZSt7forwardIRNSt7__cxx1112basic_stringIcSt11char_traitsIcESaIcEEEEOT_RNSt16remove_referenceIS7_E4typeE @2823
    _ZSt7forwardIRPN10FiCo4OMNeT12CanDataFrameEEOT_RNSt16remove_referenceIS4_E4typeE @2824
    _ZSt7forwardIRPN8nlohmann16json_abi_v3_11_327byte_container_with_subtypeISt6vectorIhSaIhEEEEEOT_RNSt16remove_referenceIS9_E4typeE @2825
    _ZSt7forwardIRPNSt7__cxx1112basic_stringIcSt11char_traitsIcESaIcEEEEOT_RNSt16remove_referenceIS8_E4typeE @2826
    _ZSt7forwardIRPSt13_Rb_tree_nodeISt4pairIKNSt7__cxx1112basic_stringIcSt11char_traitsIcESaIcEEEN8nlohmann16json_abi_v3_11_310basic_jsonISt3mapSt6vectorS7_bxydSaNSA_14adl_serializerESD_IhSaIhEEvEEEEEOT_RNSt16remove_referenceISM_E4typeE @2827
    _ZSt7forwardIRPSt13_Rb_tree_nodeISt4pairIKPN10FiCo4OMNeT12CanDataFrameEN7omnetpp7SimTimeEEEEOT_RNSt16remove_referenceISC_E4typeE @2828
    _ZSt7forwardIRPSt13_Rb_tree_nodeISt4pairIKPN10FiCo4OMNeT12CanDataFrameEdEEEOT_RNSt16remove_referenceISA_E4typeE @2829
    _ZSt7forwardIRPSt13_Rb_tree_nodeISt4pairIKiN7CAN4CQF22CircularRotationBuffer14wcrt_data_infoEEEEOT_RNSt16remove_referenceISA_E4typeE @2830
    _ZSt7forwardIRPSt13_Rb_tree_nodeISt4pairIKiPNSt7__cxx114listIPN7omnetpp8cMessageESaIS7_EEEEEEOT_RNSt16remove_referenceISF_E4typeE @2831
    _ZSt7forwardIRPSt13_Rb_tree_nodeISt4pairIKjNSt7__cxx114listIN7CAN4CQF21GatewayTransformation5QInfoESaIS7_EEEEEEOT_RNSt16remove_referenceISE_E4typeE @2832
    _ZSt7forwardIRPSt13_Rb_tree_nodeISt4pairIKjNSt7__cxx114listIN7CAN4CQF24EDFGatewayTransformation5QInfoESaIS7_EEEEEEOT_RNSt16remove_referenceISE_E4typeE @2833
    _ZSt7forwardIRPSt13_Rb_tree_nodeISt4pairIKjNSt7__cxx114listIN7CAN4CQF24RAEGatewayTransformation5QInfoESaIS7_EEEEEEOT_RNSt16remove_referenceISE_E4typeE @2834
    _ZSt7forwardIRPSt13_Rb_tree_nodeISt4pairIKjNSt7__cxx114listIN7CAN4CQF24VarGatewayTransformation5QInfoESaIS7_EEEEEEOT_RNSt16remove_referenceISE_E4typeE @2835
    _ZSt7forwardIRPSt13_Rb_tree_nodeISt4pairIKjNSt7__cxx114listIN7CAN4CQF28TimeoutGatewayTransformation5QInfoESaIS7_EEEEEEOT_RNSt16remove_referenceISE_E4typeE @2836
    _ZSt7forwardIRPSt3mapINSt7__cxx1112basic_stringIcSt11char_traitsIcESaIcEEEN8nlohmann16json_abi_v3_11_310basic_jsonIS0_St6vectorS6_bxydSaNS8_14adl_serializerESA_IhSaIhEEvEESt4lessIvESaISt4pairIKS6_SE_EEEEOT_RNSt16remove_referenceISO_E4typeE @2837
    _ZSt7forwardIRPSt6vectorIN8nlohmann16json_abi_v3_11_310basic_jsonISt3mapS0_NSt7__cxx1112basic_stringIcSt11char_traitsIcESaIcEEEbxydSaNS2_14adl_serializerES0_IhSaIhEEvEESaISE_EEEOT_RNSt16remove_referenceISJ_E4typeE @2838
    _ZSt7forwardISt17_Rb_tree_iteratorISt4pairIKNSt7__cxx1112basic_stringIcSt11char_traitsIcESaIcEEEN8nlohmann16json_abi_v3_11_310basic_jsonISt3mapSt6vectorS7_bxydSaNSA_14adl_serializerESD_IhSaIhEEvEEEEEOT_RNSt16remove_referenceISK_E4typeE @2839
    _ZSt7forwardISt17_Rb_tree_iteratorISt4pairIKPN10FiCo4OMNeT12CanDataFrameEN7omnetpp7SimTimeEEEEOT_RNSt16remove_referenceISA_E4typeE @2840
    _ZSt7forwardISt17_Rb_tree_iteratorISt4pairIKPN10FiCo4OMNeT12CanDataFrameEdEEEOT_RNSt16remove_referenceIS8_E4typeE @2841
    _ZSt7forwardISt17_Rb_tree_iteratorISt4pairIKiPNSt7__cxx114listIPN7omnetpp8cMessageESaIS7_EEEEEEOT_RNSt16remove_referenceISD_E4typeE @2842
    _ZSt7forwardISt4pairIPN10FiCo4OMNeT12CanDataFrameEN7omnetpp7SimTimeEEEOT_RNSt16remove_referenceIS7_E4typeE @2843
    _ZSt7forwardISt4pairIPN10FiCo4OMNeT12CanDataFrameEdEEOT_RNSt16remove_referenceIS5_E4typeE @2844
    _ZSt7forwardISt5tupleIJOiEEEOT_RNSt16remove_referenceIS3_E4typeE @2845
    _ZSt7forwardISt5tupleIJRKPN10FiCo4OMNeT12CanDataFrameEEEEOT_RNSt16remove_referenceIS7_E4typeE @2846
    _ZSt7forwardIcEOT_RNSt16remove_referenceIS0_E4typeE @2847
    _ZSt7signbitd @2848
    _ZSt8_DestroyIN8nlohmann16json_abi_v3_11_310basic_jsonISt3mapSt6vectorNSt7__cxx1112basic_stringIcSt11char_traitsIcESaIcEEEbxydSaNS1_14adl_serializerES4_IhSaIhEEvEEEvPT_ @2849
    _ZSt8_DestroyIN8nlohmann16json_abi_v3_11_36detail21output_string_adapterIcNSt7__cxx1112basic_stringIcSt11char_traitsIcESaIcEEEEEEvPT_ @2850
    _ZSt8_DestroyIPN7CAN4CQF22CircularRotationBuffer9canfdInfoEEvT_S4_ @2851
    _ZSt8_DestroyIPN7CAN4CQF22CircularRotationBuffer9canfdInfoES2_EvT_S4_RSaIT0_E @2852
    _ZSt8_DestroyIPN7CAN4CQF24RAEGatewayTransformation10order_infoEEvT_S4_ @2853
    _ZSt8_DestroyIPN7CAN4CQF24RAEGatewayTransformation10order_infoES2_EvT_S4_RSaIT0_E @2854
    _ZSt8_DestroyIPN8nlohmann16json_abi_v3_11_310basic_jsonISt3mapSt6vectorNSt7__cxx1112basic_stringIcSt11char_traitsIcESaIcEEEbxydSaNS1_14adl_serializerES4_IhSaIhEEvEEEvT_SG_ @2855
    _ZSt8_DestroyIPN8nlohmann16json_abi_v3_11_310basic_jsonISt3mapSt6vectorNSt7__cxx1112basic_stringIcSt11char_traitsIcESaIcEEEbxydSaNS1_14adl_serializerES4_IhSaIhEEvEESE_EvT_SG_RSaIT0_E @2856
    _ZSt8_DestroyIPSt4pairIPN10FiCo4OMNeT12CanDataFrameEdEEvT_S6_ @2857
    _ZSt8_DestroyIPSt4pairIPN10FiCo4OMNeT12CanDataFrameEdES4_EvT_S6_RSaIT0_E @2858
    _ZSt8_DestroyIPhEvT_S1_ @2859
    _ZSt8_DestroyIPhhEvT_S1_RSaIT0_E @2860
    _ZSt8distanceIPKN8nlohmann16json_abi_v3_11_36detail8json_refINS1_10basic_jsonISt3mapSt6vectorNSt7__cxx1112basic_stringIcSt11char_traitsIcESaIcEEEbxydSaNS1_14adl_serializerES6_IhSaIhEEvEEEEENSt15iterator_traitsIT_E15difference_typeESL_SL_ @2861
    _ZSt8isfinited @2862
    _ZSt9__advanceISt23_Rb_tree_const_iteratorISt4pairIKNSt7__cxx1112basic_stringIcSt11char_traitsIcESaIcEEEN8nlohmann16json_abi_v3_11_310basic_jsonISt3mapSt6vectorS7_bxydSaNSA_14adl_serializerESD_IhSaIhEEvEEEExEvRT_T0_St26bidirectional_iterator_tag @2863
    _ZSt9__find_ifIPKN8nlohmann16json_abi_v3_11_36detail8json_refINS1_10basic_jsonISt3mapSt6vectorNSt7__cxx1112basic_stringIcSt11char_traitsIcESaIcEEEbxydSaNS1_14adl_serializerES6_IhSaIhEEvEEEEN9__gnu_cxx5__ops12_Iter_negateIZNSG_C1ESt16initializer_listISH_EbNS2_7value_tEEUlRSI_E_EEET_ST_ST_T0_St26random_access_iterator_tag @2864
    _ZSt9addressofINSt8__detail10_Hash_nodeISt4pairIKtNSt7__cxx114listIPN9CoRE4INET6BufferESaIS8_EEEELb0EEEEPT_RSD_ @2865
    _ZSt9iter_swapIN9__gnu_cxx17__normal_iteratorIPN7CAN4CQF24RAEGatewayTransformation10order_infoESt6vectorIS4_SaIS4_EEEES9_EvT_T0_ @2866
    _ZSt9iter_swapIN9__gnu_cxx17__normal_iteratorIPSt4pairIPN10FiCo4OMNeT12CanDataFrameEdESt6vectorIS6_SaIS6_EEEESB_EvT_T0_ @2867
    _ZSt9make_pairIRPN10FiCo4OMNeT12CanDataFrameERdESt4pairINSt25__strip_reference_wrapperINSt5decayIT_E4typeEE6__typeENS6_INS7_IT0_E4typeEE6__typeEEOS8_OSD_ @2868
    _ZSteqIN9__gnu_cxx17__normal_iteratorIPN7CAN4CQF24RAEGatewayTransformation10order_infoESt6vectorIS4_SaIS4_EEEEEbRKSt16reverse_iteratorIT_ESE_ @2869
    _ZSteqIN9__gnu_cxx17__normal_iteratorIPiSt6vectorIiSaIiEEEEEbRKSt16reverse_iteratorIT_ESB_ @2870
    _ZSteqRKSt17_Rb_tree_iteratorISt4pairIKNSt7__cxx1112basic_stringIcSt11char_traitsIcESaIcEEEN8nlohmann16json_abi_v3_11_310basic_jsonISt3mapSt6vectorS6_bxydSaNS9_14adl_serializerESC_IhSaIhEEvEEEESK_ @2871
    _ZSteqRKSt17_Rb_tree_iteratorISt4pairIKPN10FiCo4OMNeT12CanDataFrameEN7omnetpp7SimTimeEEESA_ @2872
    _ZSteqRKSt17_Rb_tree_iteratorISt4pairIKPN10FiCo4OMNeT12CanDataFrameEdEES8_ @2873
    _ZSteqRKSt17_Rb_tree_iteratorISt4pairIKiN7CAN4CQF22CircularRotationBuffer14wcrt_data_infoEEES8_ @2874
    _ZSteqRKSt17_Rb_tree_iteratorISt4pairIKiPNSt7__cxx114listIPN7omnetpp8cMessageESaIS6_EEEEESD_ @2875
    _ZSteqRKSt17_Rb_tree_iteratorISt4pairIKjNSt7__cxx114listIN7CAN4CQF21GatewayTransformation5QInfoESaIS6_EEEEESC_ @2876
    _ZSteqRKSt17_Rb_tree_iteratorISt4pairIKjNSt7__cxx114listIN7CAN4CQF24EDFGatewayTransformation5QInfoESaIS6_EEEEESC_ @2877
    _ZSteqRKSt17_Rb_tree_iteratorISt4pairIKjNSt7__cxx114listIN7CAN4CQF24RAEGatewayTransformation5QInfoESaIS6_EEEEESC_ @2878
    _ZSteqRKSt17_Rb_tree_iteratorISt4pairIKjNSt7__cxx114listIN7CAN4CQF24VarGatewayTransformation5QInfoESaIS6_EEEEESC_ @2879
    _ZSteqRKSt17_Rb_tree_iteratorISt4pairIKjNSt7__cxx114listIN7CAN4CQF28TimeoutGatewayTransformation5QInfoESaIS6_EEEEESC_ @2880
    _ZSteqRKSt23_Rb_tree_const_iteratorISt4pairIKNSt7__cxx1112basic_stringIcSt11char_traitsIcESaIcEEEN8nlohmann16json_abi_v3_11_310basic_jsonISt3mapSt6vectorS6_bxydSaNS9_14adl_serializerESC_IhSaIhEEvEEEESK_ @2881
    _ZSteqRKSt23_Rb_tree_const_iteratorISt4pairIKPN10FiCo4OMNeT12CanDataFrameEN7omnetpp7SimTimeEEESA_ @2882
    _ZStneIN8nlohmann16json_abi_v3_11_327byte_container_with_subtypeISt6vectorIhSaIhEEEEZNS1_10basic_jsonISt3mapS3_NSt7__cxx1112basic_stringIcSt11char_traitsIcESaIcEEEbxydSaNS1_14adl_serializerES5_vE6createIS6_JEEEPT_DpOT0_EUlPS6_E_EbRKSt10unique_ptrISI_T0_EDn @2883
    _ZStneIN8nlohmann16json_abi_v3_11_327byte_container_with_subtypeISt6vectorIhSaIhEEEEZNS1_10basic_jsonISt3mapS3_NSt7__cxx1112basic_stringIcSt11char_traitsIcESaIcEEEbxydSaNS1_14adl_serializerES5_vE6createIS6_JRKS6_EEEPT_DpOT0_EUlPS6_E_EbRKSt10unique_ptrISK_T0_EDn @2884
    _ZStneIN9__gnu_cxx17__normal_iteratorIPN7CAN4CQF24RAEGatewayTransformation10order_infoESt6vectorIS4_SaIS4_EEEEEbRKSt16reverse_iteratorIT_ESE_ @2885
    _ZStneIN9__gnu_cxx17__normal_iteratorIPiSt6vectorIiSaIiEEEEEbRKSt16reverse_iteratorIT_ESB_ @2886
    _ZStneINSt7__cxx1112basic_stringIcSt11char_traitsIcESaIcEEEZN8nlohmann16json_abi_v3_11_310basic_jsonISt3mapSt6vectorS5_bxydSaNS7_14adl_serializerESA_IhSaIhEEvE6createIS5_JRA1_KcEEEPT_DpOT0_EUlPS5_E_EbRKSt10unique_ptrISJ_T0_EDn @2887
    _ZStneINSt7__cxx1112basic_stringIcSt11char_traitsIcESaIcEEEZN8nlohmann16json_abi_v3_11_310basic_jsonISt3mapSt6vectorS5_bxydSaNS7_14adl_serializerESA_IhSaIhEEvE6createIS5_JRKS5_EEEPT_DpOT0_EUlPS5_E_EbRKSt10unique_ptrISI_T0_EDn @2888
    _ZStneISt3mapINSt7__cxx1112basic_stringIcSt11char_traitsIcESaIcEEEN8nlohmann16json_abi_v3_11_310basic_jsonIS0_St6vectorS6_bxydSaNS8_14adl_serializerESA_IhSaIhEEvEESt4lessIvESaISt4pairIKS6_SE_EEEZNSE_6createISL_JEEEPT_DpOT0_EUlPSL_E_EbRKSt10unique_ptrISN_T0_EDn @2889
    _ZStneISt3mapINSt7__cxx1112basic_stringIcSt11char_traitsIcESaIcEEEN8nlohmann16json_abi_v3_11_310basic_jsonIS0_St6vectorS6_bxydSaNS8_14adl_serializerESA_IhSaIhEEvEESt4lessIvESaISt4pairIKS6_SE_EEEZNSE_6createISL_JRKSL_EEEPT_DpOT0_EUlPSL_E_EbRKSt10unique_ptrISP_T0_EDn @2890
    _ZStneISt6vectorIN8nlohmann16json_abi_v3_11_310basic_jsonISt3mapS0_NSt7__cxx1112basic_stringIcSt11char_traitsIcESaIcEEEbxydSaNS2_14adl_serializerES0_IhSaIhEEvEESaISE_EEZNSE_6createISG_JEEEPT_DpOT0_EUlPSG_E_EbRKSt10unique_ptrISI_T0_EDn @2891
    _ZStneISt6vectorIN8nlohmann16json_abi_v3_11_310basic_jsonISt3mapS0_NSt7__cxx1112basic_stringIcSt11char_traitsIcESaIcEEEbxydSaNS2_14adl_serializerES0_IhSaIhEEvEESaISE_EEZNSE_6createISG_JPKNS2_6detail8json_refISE_EESM_EEEPT_DpOT0_EUlPSG_E_EbRKSt10unique_ptrISN_T0_EDn @2892
    _ZStneISt6vectorIN8nlohmann16json_abi_v3_11_310basic_jsonISt3mapS0_NSt7__cxx1112basic_stringIcSt11char_traitsIcESaIcEEEbxydSaNS2_14adl_serializerES0_IhSaIhEEvEESaISE_EEZNSE_6createISG_JRKSG_EEEPT_DpOT0_EUlPSG_E_EbRKSt10unique_ptrISK_T0_EDn @2893
    _ZStneRKSt14_List_iteratorIN7CAN4CQF21GatewayTransformation5QInfoEES5_ @2894
    _ZStneRKSt14_List_iteratorIN7CAN4CQF24EDFGatewayTransformation5QInfoEES5_ @2895
    _ZStneRKSt14_List_iteratorIN7CAN4CQF24RAEGatewayTransformation5QInfoEES5_ @2896
    _ZStneRKSt14_List_iteratorIN7CAN4CQF24VarGatewayTransformation5QInfoEES5_ @2897
    _ZStneRKSt14_List_iteratorIN7CAN4CQF28TimeoutGatewayTransformation5QInfoEES5_ @2898
    _ZStneRKSt17_Rb_tree_iteratorISt4pairIKNSt7__cxx1112basic_stringIcSt11char_traitsIcESaIcEEEN8nlohmann16json_abi_v3_11_310basic_jsonISt3mapSt6vectorS6_bxydSaNS9_14adl_serializerESC_IhSaIhEEvEEEESK_ @2899
    _ZStneRKSt17_Rb_tree_iteratorISt4pairIKPN10FiCo4OMNeT12CanDataFrameEN7omnetpp7SimTimeEEESA_ @2900
    _ZStneRKSt17_Rb_tree_iteratorISt4pairIKPN10FiCo4OMNeT12CanDataFrameEdEES8_ @2901
    _ZStneRKSt17_Rb_tree_iteratorISt4pairIKiN7CAN4CQF22CircularRotationBuffer14wcrt_data_infoEEES8_ @2902
    _ZStneRKSt17_Rb_tree_iteratorISt4pairIKjNSt7__cxx114listIN7CAN4CQF21GatewayTransformation5QInfoESaIS6_EEEEESC_ @2903
    _ZStneRKSt17_Rb_tree_iteratorISt4pairIKjNSt7__cxx114listIN7CAN4CQF24EDFGatewayTransformation5QInfoESaIS6_EEEEESC_ @2904
    _ZStneRKSt17_Rb_tree_iteratorISt4pairIKjNSt7__cxx114listIN7CAN4CQF24RAEGatewayTransformation5QInfoESaIS6_EEEEESC_ @2905
    _ZStneRKSt17_Rb_tree_iteratorISt4pairIKjNSt7__cxx114listIN7CAN4CQF24VarGatewayTransformation5QInfoESaIS6_EEEEESC_ @2906
    _ZStneRKSt17_Rb_tree_iteratorISt4pairIKjNSt7__cxx114listIN7CAN4CQF28TimeoutGatewayTransformation5QInfoESaIS6_EEEEESC_ @2907
    _ZStneRKSt23_Rb_tree_const_iteratorISt4pairIKNSt7__cxx1112basic_stringIcSt11char_traitsIcESaIcEEEN8nlohmann16json_abi_v3_11_310basic_jsonISt3mapSt6vectorS6_bxydSaNS9_14adl_serializerESC_IhSaIhEEvEEEESK_ @2908
    _ZStneRKSt23_Rb_tree_const_iteratorISt4pairIKPN10FiCo4OMNeT12CanDataFrameEN7omnetpp7SimTimeEEESA_ @2909
    _ZStneRKSt23_Rb_tree_const_iteratorISt4pairIKPN10FiCo4OMNeT12CanDataFrameEdEES8_ @2910
    _ZTCN7CAN4CQF12AVBInControlINS_20IEEE8021QchInControlIN9CoRE4INET13BaseInControlEEEEE0_NS1_IS3_EE @2911 DATA
    _ZTCN7CAN4CQF12AVBInControlINS_20IEEE8021QchInControlIN9CoRE4INET13BaseInControlEEEEE0_NS2_13BaseInControlE @2912 DATA
    _ZTCN7CAN4CQF12AVBInControlINS_20IEEE8021QchInControlIN9CoRE4INET13BaseInControlEEEEE0_NS2_5TimedE @2913 DATA
    _ZTCN7CAN4CQF12BE_InControlE0_N9CoRE4INET11BEInControlINS0_13BaseInControlEEE @2914 DATA
    _ZTCN7CAN4CQF12BE_InControlE0_N9CoRE4INET13BaseInControlE @2915 DATA
    _ZTCN7CAN4CQF12BE_InControlE0_N9CoRE4INET5TimedE @2916 DATA
    _ZTCN7CAN4CQF17TTApplicationBaseE64_N9CoRE4INET15ApplicationBaseE @2917 DATA
    _ZTCN7CAN4CQF19AVB_8021Q_InControlE0_N9CoRE4INET13BaseInControlE @2918 DATA
    _ZTCN7CAN4CQF19AVB_8021Q_InControlE0_N9CoRE4INET5TimedE @2919 DATA
    _ZTCN7CAN4CQF19AVB_8021Q_InControlE0_NS_12AVBInControlINS_20IEEE8021QchInControlIN9CoRE4INET13BaseInControlEEEEE @2920 DATA
    _ZTCN7CAN4CQF19AVB_8021Q_InControlE0_NS_20IEEE8021QchInControlIN9CoRE4INET13BaseInControlEEE @2921 DATA
    _ZTCN7CAN4CQF20IEEE8021QchInControlIN9CoRE4INET13BaseInControlEEE0_NS1_13BaseInControlE @2922 DATA
    _ZTCN7CAN4CQF20IEEE8021QchInControlIN9CoRE4INET13BaseInControlEEE0_NS1_5TimedE @2923 DATA
    _ZTCN7CAN4CQF21IEEE8021Qch_InControlE0_N9CoRE4INET13BaseInControlE @2924 DATA
    _ZTCN7CAN4CQF21IEEE8021Qch_InControlE0_N9CoRE4INET5TimedE @2925 DATA
    _ZTCN7CAN4CQF21IEEE8021Qch_InControlE0_NS_20IEEE8021QchInControlIN9CoRE4INET13BaseInControlEEE @2926 DATA
    _ZTCN7CAN4CQF26EthernetGatewayApplicationE72_N9CoRE4INET15ApplicationBaseE @2927 DATA
    _ZTCN7CAN4CQF26EthernetGatewayApplicationE8_NS_17TTApplicationBaseE @2928 DATA
    _ZTCN7CAN4CQF26IEEE8021QchGateControlListE112_N9CoRE4INET5TimedE @2929 DATA
    _ZTCN7CAN4CQF26IEEE8021QchGateControlListE112_N9CoRE4INET9ScheduledE @2930 DATA
    _ZTCN7CAN4CQF6RxgateE104_N9CoRE4INET5TimedE @2931 DATA
    _ZTCN7CAN4CQF6RxgateE104_N9CoRE4INET9ScheduledE @2932 DATA
    _ZTI19cStdListUMapWatcherItNSt7__cxx114listIPN9CoRE4INET6BufferESaIS4_EEEE @2933 DATA
    _ZTI29cStdCollectionUMapWatcherBaseItNSt7__cxx114listIPN9CoRE4INET6BufferESaIS4_EEEE @2934 DATA
    _ZTIN7CAN4CQF11PoolMessageE @2935 DATA
    _ZTIN7CAN4CQF12AVBInControlINS_20IEEE8021QchInControlIN9CoRE4INET13BaseInControlEEEEE @2936 DATA
    _ZTIN7CAN4CQF12BE_InControlE @2937 DATA
    _ZTIN7CAN4CQF14ARTFDescriptorE @2938 DATA
    _ZTIN7CAN4CQF14HRTFDescriptorE @2939 DATA
    _ZTIN7CAN4CQF17BaseGatewayRouterE @2940 DATA
    _ZTIN7CAN4CQF17IEEE8021QchBEFlowE @2941 DATA
    _ZTIN7CAN4CQF17IEEE8021QchTTFlowE @2942 DATA
    _ZTIN7CAN4CQF17TTApplicationBaseE @2943 DATA
    _ZTIN7CAN4CQF18NoGatewayBufferingE @2944 DATA
    _ZTIN7CAN4CQF19AVB_8021Q_InControlE @2945 DATA
    _ZTIN7CAN4CQF19IEEE8021QchQueueingE @2946 DATA
    _ZTIN7CAN4CQF20IEEE8021QchInControlIN9CoRE4INET13BaseInControlEEE @2947 DATA
    _ZTIN7CAN4CQF21GatewayTransformationE @2948 DATA
    _ZTIN7CAN4CQF21IEEE8021Qch_InControlE @2949 DATA
    _ZTIN7CAN4CQF21PoolMessageDescriptorE @2950 DATA
    _ZTIN7CAN4CQF22CircularRotationBufferE @2951 DATA
    _ZTIN7CAN4CQF23CircularRotationMessageE @2952 DATA
    _ZTIN7CAN4CQF23NoGatewayTransformationE @2953 DATA
    _ZTIN7CAN4CQF24EDFGatewayTransformationE @2954 DATA
    _ZTIN7CAN4CQF24RAEGatewayTransformationE @2955 DATA
    _ZTIN7CAN4CQF24VarGatewayTransformationE @2956 DATA
    _ZTIN7CAN4CQF26EthernetGatewayApplicationE @2957 DATA
    _ZTIN7CAN4CQF26IEEE8021QchGateControlListE @2958 DATA
    _ZTIN7CAN4CQF27AggregationGatewayBufferingE @2959 DATA
    _ZTIN7CAN4CQF27IEEE8021QchBEFlowDescriptorE @2960 DATA
    _ZTIN7CAN4CQF27IEEE8021QchTTFlowDescriptorE @2961 DATA
    _ZTIN7CAN4CQF28CircularRotationMessage_BaseE @2962 DATA
    _ZTIN7CAN4CQF28TimeoutGatewayTransformationE @2963 DATA
    _ZTIN7CAN4CQF33CircularRotationMessageDescriptorE @2964 DATA
    _ZTIN7CAN4CQF33ResortAggregationGatewayBufferingE @2965 DATA
    _ZTIN7CAN4CQF4ARTFE @2966 DATA
    _ZTIN7CAN4CQF4HRTFE @2967 DATA
    _ZTIN7CAN4CQF6RxgateE @2968 DATA
    _ZTIN7CAN4CQF9ARTF_BaseE @2969 DATA
    _ZTIN8nlohmann16json_abi_v3_11_36detail10type_errorE @2970 DATA
    _ZTIN8nlohmann16json_abi_v3_11_36detail11other_errorE @2971 DATA
    _ZTIN8nlohmann16json_abi_v3_11_36detail21output_string_adapterIcNSt7__cxx1112basic_stringIcSt11char_traitsIcESaIcEEEEE @2972 DATA
    _ZTIN8nlohmann16json_abi_v3_11_36detail23output_adapter_protocolIcEE @2973 DATA
    _ZTIN8nlohmann16json_abi_v3_11_36detail9exceptionE @2974 DATA
    _ZTINSt7__cxx1110_List_baseIPN9CoRE4INET6BufferESaIS3_EEE @2975 DATA
    _ZTINSt7__cxx114listIPN9CoRE4INET6BufferESaIS3_EEE @2976 DATA
    _ZTIPN7CAN4CQF11PoolMessageE @2977 DATA
    _ZTIPN7CAN4CQF17IEEE8021QchBEFlowE @2978 DATA
    _ZTIPN7CAN4CQF17IEEE8021QchTTFlowE @2979 DATA
    _ZTIPN7CAN4CQF28CircularRotationMessage_BaseE @2980 DATA
    _ZTIPN7CAN4CQF4HRTFE @2981 DATA
    _ZTIPN7CAN4CQF9ARTF_BaseE @2982 DATA
    _ZTISt23_Sp_counted_ptr_inplaceIN8nlohmann16json_abi_v3_11_36detail21output_string_adapterIcNSt7__cxx1112basic_stringIcSt11char_traitsIcESaIcEEEEESaIvELN9__gnu_cxx12_Lock_policyE2EE @2983 DATA
    _ZTS19cStdListUMapWatcherItNSt7__cxx114listIPN9CoRE4INET6BufferESaIS4_EEEE @2984 DATA
    _ZTS29cStdCollectionUMapWatcherBaseItNSt7__cxx114listIPN9CoRE4INET6BufferESaIS4_EEEE @2985 DATA
    _ZTSN7CAN4CQF11PoolMessageE @2986 DATA
    _ZTSN7CAN4CQF12AVBInControlINS_20IEEE8021QchInControlIN9CoRE4INET13BaseInControlEEEEE @2987 DATA
    _ZTSN7CAN4CQF12BE_InControlE @2988 DATA
    _ZTSN7CAN4CQF14ARTFDescriptorE @2989 DATA
    _ZTSN7CAN4CQF14HRTFDescriptorE @2990 DATA
    _ZTSN7CAN4CQF17BaseGatewayRouterE @2991 DATA
    _ZTSN7CAN4CQF17IEEE8021QchBEFlowE @2992 DATA
    _ZTSN7CAN4CQF17IEEE8021QchTTFlowE @2993 DATA
    _ZTSN7CAN4CQF17TTApplicationBaseE @2994 DATA
    _ZTSN7CAN4CQF18NoGatewayBufferingE @2995 DATA
    _ZTSN7CAN4CQF19AVB_8021Q_InControlE @2996 DATA
    _ZTSN7CAN4CQF19IEEE8021QchQueueingE @2997 DATA
    _ZTSN7CAN4CQF20IEEE8021QchInControlIN9CoRE4INET13BaseInControlEEE @2998 DATA
    _ZTSN7CAN4CQF21GatewayTransformationE @2999 DATA
    _ZTSN7CAN4CQF21IEEE8021Qch_InControlE @3000 DATA
    _ZTSN7CAN4CQF21PoolMessageDescriptorE @3001 DATA
    _ZTSN7CAN4CQF22CircularRotationBufferE @3002 DATA
    _ZTSN7CAN4CQF23CircularRotationMessageE @3003 DATA
    _ZTSN7CAN4CQF23NoGatewayTransformationE @3004 DATA
    _ZTSN7CAN4CQF24EDFGatewayTransformationE @3005 DATA
    _ZTSN7CAN4CQF24RAEGatewayTransformationE @3006 DATA
    _ZTSN7CAN4CQF24VarGatewayTransformationE @3007 DATA
    _ZTSN7CAN4CQF26EthernetGatewayApplicationE @3008 DATA
    _ZTSN7CAN4CQF26IEEE8021QchGateControlListE @3009 DATA
    _ZTSN7CAN4CQF27AggregationGatewayBufferingE @3010 DATA
    _ZTSN7CAN4CQF27IEEE8021QchBEFlowDescriptorE @3011 DATA
    _ZTSN7CAN4CQF27IEEE8021QchTTFlowDescriptorE @3012 DATA
    _ZTSN7CAN4CQF28CircularRotationMessage_BaseE @3013 DATA
    _ZTSN7CAN4CQF28TimeoutGatewayTransformationE @3014 DATA
    _ZTSN7CAN4CQF33CircularRotationMessageDescriptorE @3015 DATA
    _ZTSN7CAN4CQF33ResortAggregationGatewayBufferingE @3016 DATA
    _ZTSN7CAN4CQF4ARTFE @3017 DATA
    _ZTSN7CAN4CQF4HRTFE @3018 DATA
    _ZTSN7CAN4CQF6RxgateE @3019 DATA
    _ZTSN7CAN4CQF9ARTF_BaseE @3020 DATA
    _ZTSN8nlohmann16json_abi_v3_11_36detail10type_errorE @3021 DATA
    _ZTSN8nlohmann16json_abi_v3_11_36detail11other_errorE @3022 DATA
    _ZTSN8nlohmann16json_abi_v3_11_36detail21output_string_adapterIcNSt7__cxx1112basic_stringIcSt11char_traitsIcESaIcEEEEE @3023 DATA
    _ZTSN8nlohmann16json_abi_v3_11_36detail23output_adapter_protocolIcEE @3024 DATA
    _ZTSN8nlohmann16json_abi_v3_11_36detail9exceptionE @3025 DATA
    _ZTSNSt7__cxx1110_List_baseIPN9CoRE4INET6BufferESaIS3_EEE @3026 DATA
    _ZTSNSt7__cxx114listIPN9CoRE4INET6BufferESaIS3_EEE @3027 DATA
    _ZTSPN7CAN4CQF11PoolMessageE @3028 DATA
    _ZTSPN7CAN4CQF17IEEE8021QchBEFlowE @3029 DATA
    _ZTSPN7CAN4CQF17IEEE8021QchTTFlowE @3030 DATA
    _ZTSPN7CAN4CQF28CircularRotationMessage_BaseE @3031 DATA
    _ZTSPN7CAN4CQF4HRTFE @3032 DATA
    _ZTSPN7CAN4CQF9ARTF_BaseE @3033 DATA
    _ZTSSt23_Sp_counted_ptr_inplaceIN8nlohmann16json_abi_v3_11_36detail21output_string_adapterIcNSt7__cxx1112basic_stringIcSt11char_traitsIcESaIcEEEEESaIvELN9__gnu_cxx12_Lock_policyE2EE @3034 DATA
    _ZTTN7CAN4CQF12AVBInControlINS_20IEEE8021QchInControlIN9CoRE4INET13BaseInControlEEEEE @3035 DATA
    _ZTTN7CAN4CQF12BE_InControlE @3036 DATA
    _ZTTN7CAN4CQF17TTApplicationBaseE @3037 DATA
    _ZTTN7CAN4CQF19AVB_8021Q_InControlE @3038 DATA
    _ZTTN7CAN4CQF20IEEE8021QchInControlIN9CoRE4INET13BaseInControlEEE @3039 DATA
    _ZTTN7CAN4CQF21IEEE8021Qch_InControlE @3040 DATA
    _ZTTN7CAN4CQF26EthernetGatewayApplicationE @3041 DATA
    _ZTTN7CAN4CQF26IEEE8021QchGateControlListE @3042 DATA
    _ZTTN7CAN4CQF6RxgateE @3043 DATA
    _ZTV19cStdListUMapWatcherItNSt7__cxx114listIPN9CoRE4INET6BufferESaIS4_EEEE @3044 DATA
    _ZTV29cStdCollectionUMapWatcherBaseItNSt7__cxx114listIPN9CoRE4INET6BufferESaIS4_EEEE @3045 DATA
    _ZTVN7CAN4CQF11PoolMessageE @3046 DATA
    _ZTVN7CAN4CQF12AVBInControlINS_20IEEE8021QchInControlIN9CoRE4INET13BaseInControlEEEEE @3047 DATA
    _ZTVN7CAN4CQF12BE_InControlE @3048 DATA
    _ZTVN7CAN4CQF14ARTFDescriptorE @3049 DATA
    _ZTVN7CAN4CQF14HRTFDescriptorE @3050 DATA
    _ZTVN7CAN4CQF17BaseGatewayRouterE @3051 DATA
    _ZTVN7CAN4CQF17IEEE8021QchBEFlowE @3052 DATA
    _ZTVN7CAN4CQF17IEEE8021QchTTFlowE @3053 DATA
    _ZTVN7CAN4CQF17TTApplicationBaseE @3054 DATA
    _ZTVN7CAN4CQF18NoGatewayBufferingE @3055 DATA
    _ZTVN7CAN4CQF19AVB_8021Q_InControlE @3056 DATA
    _ZTVN7CAN4CQF19IEEE8021QchQueueingE @3057 DATA
    _ZTVN7CAN4CQF20IEEE8021QchInControlIN9CoRE4INET13BaseInControlEEE @3058 DATA
    _ZTVN7CAN4CQF21GatewayTransformationE @3059 DATA
    _ZTVN7CAN4CQF21IEEE8021Qch_InControlE @3060 DATA
    _ZTVN7CAN4CQF21PoolMessageDescriptorE @3061 DATA
    _ZTVN7CAN4CQF22CircularRotationBufferE @3062 DATA
    _ZTVN7CAN4CQF23CircularRotationMessageE @3063 DATA
    _ZTVN7CAN4CQF23NoGatewayTransformationE @3064 DATA
    _ZTVN7CAN4CQF24EDFGatewayTransformationE @3065 DATA
    _ZTVN7CAN4CQF24RAEGatewayTransformationE @3066 DATA
    _ZTVN7CAN4CQF24VarGatewayTransformationE @3067 DATA
    _ZTVN7CAN4CQF26EthernetGatewayApplicationE @3068 DATA
    _ZTVN7CAN4CQF26IEEE8021QchGateControlListE @3069 DATA
    _ZTVN7CAN4CQF27AggregationGatewayBufferingE @3070 DATA
    _ZTVN7CAN4CQF27IEEE8021QchBEFlowDescriptorE @3071 DATA
    _ZTVN7CAN4CQF27IEEE8021QchTTFlowDescriptorE @3072 DATA
    _ZTVN7CAN4CQF28CircularRotationMessage_BaseE @3073 DATA
    _ZTVN7CAN4CQF28TimeoutGatewayTransformationE @3074 DATA
    _ZTVN7CAN4CQF33CircularRotationMessageDescriptorE @3075 DATA
    _ZTVN7CAN4CQF33ResortAggregationGatewayBufferingE @3076 DATA
    _ZTVN7CAN4CQF4ARTFE @3077 DATA
    _ZTVN7CAN4CQF4HRTFE @3078 DATA
    _ZTVN7CAN4CQF6RxgateE @3079 DATA
    _ZTVN7CAN4CQF9ARTF_BaseE @3080 DATA
    _ZTVN8nlohmann16json_abi_v3_11_36detail10type_errorE @3081 DATA
    _ZTVN8nlohmann16json_abi_v3_11_36detail11other_errorE @3082 DATA
    _ZTVN8nlohmann16json_abi_v3_11_36detail21output_string_adapterIcNSt7__cxx1112basic_stringIcSt11char_traitsIcESaIcEEEEE @3083 DATA
    _ZTVN8nlohmann16json_abi_v3_11_36detail23output_adapter_protocolIcEE @3084 DATA
    _ZTVN8nlohmann16json_abi_v3_11_36detail9exceptionE @3085 DATA
    _ZTVSt16_Sp_counted_baseILN9__gnu_cxx12_Lock_policyE2EE @3086 DATA
    _ZTVSt23_Sp_counted_ptr_inplaceIN8nlohmann16json_abi_v3_11_36detail21output_string_adapterIcNSt7__cxx1112basic_stringIcSt11char_traitsIcESaIcEEEEESaIvELN9__gnu_cxx12_Lock_policyE2EE @3087 DATA
    _ZTv0_n1480_N7CAN4CQF12AVBInControlINS_20IEEE8021QchInControlIN9CoRE4INET13BaseInControlEEEE13handleMessageEPN7omnetpp8cMessageE @3088
    _ZTv0_n1480_N7CAN4CQF17TTApplicationBase13handleMessageEPN7omnetpp8cMessageE @3089
    _ZTv0_n1480_N7CAN4CQF20IEEE8021QchInControlIN9CoRE4INET13BaseInControlEE13handleMessageEPN7omnetpp8cMessageE @3090
    _ZTv0_n1480_N7CAN4CQF26EthernetGatewayApplication13handleMessageEPN7omnetpp8cMessageE @3091
    _ZTv0_n1480_N7CAN4CQF26IEEE8021QchGateControlList13handleMessageEPN7omnetpp8cMessageE @3092
    _ZTv0_n1480_N7CAN4CQF6Rxgate13handleMessageEPN7omnetpp8cMessageE @3093
    _ZTv0_n32_N7CAN4CQF17TTApplicationBaseD0Ev @3094
    _ZTv0_n32_N7CAN4CQF17TTApplicationBaseD1Ev @3095
    _ZTv0_n32_N7CAN4CQF26EthernetGatewayApplicationD0Ev @3096
    _ZTv0_n32_N7CAN4CQF26EthernetGatewayApplicationD1Ev @3097
    _ZTv0_n32_N7CAN4CQF26IEEE8021QchGateControlList21handleParameterChangeEPKc @3098
    _ZTv0_n32_N7CAN4CQF6Rxgate21handleParameterChangeEPKc @3099
    _ZTv0_n336_N7CAN4CQF26IEEE8021QchGateControlList10initializeEi @3100
    _ZTv0_n336_N7CAN4CQF6Rxgate10initializeEi @3101
    _ZTv0_n344_NK7CAN4CQF26IEEE8021QchGateControlList13numInitStagesEv @3102
    _ZTv0_n344_NK7CAN4CQF6Rxgate13numInitStagesEv @3103
    _ZTv0_n352_N7CAN4CQF17TTApplicationBase10initializeEv @3104
    _ZTv0_n352_N7CAN4CQF26EthernetGatewayApplication10initializeEv @3105
    _ZTv0_n368_N7CAN4CQF17TTApplicationBase21handleParameterChangeEPKc @3106
    _ZTv0_n368_N7CAN4CQF20IEEE8021QchInControlIN9CoRE4INET13BaseInControlEE21handleParameterChangeEPKc @3107
    _ZTv0_n368_N7CAN4CQF26IEEE8021QchGateControlList21handleParameterChangeEPKc @3108
    _ZTv0_n368_N7CAN4CQF6Rxgate21handleParameterChangeEPKc @3109
    _ZTv0_n40_N7CAN4CQF12AVBInControlINS_20IEEE8021QchInControlIN9CoRE4INET13BaseInControlEEEED0Ev @3110
    _ZTv0_n40_N7CAN4CQF12AVBInControlINS_20IEEE8021QchInControlIN9CoRE4INET13BaseInControlEEEED1Ev @3111
    _ZTv0_n40_N7CAN4CQF12BE_InControlD0Ev @3112
    _ZTv0_n40_N7CAN4CQF12BE_InControlD1Ev @3113
    _ZTv0_n40_N7CAN4CQF17TTApplicationBase10initializeEv @3114
    _ZTv0_n40_N7CAN4CQF17TTApplicationBaseD0Ev @3115
    _ZTv0_n40_N7CAN4CQF17TTApplicationBaseD1Ev @3116
    _ZTv0_n40_N7CAN4CQF19AVB_8021Q_InControlD0Ev @3117
    _ZTv0_n40_N7CAN4CQF19AVB_8021Q_InControlD1Ev @3118
    _ZTv0_n40_N7CAN4CQF20IEEE8021QchInControlIN9CoRE4INET13BaseInControlEED0Ev @3119
    _ZTv0_n40_N7CAN4CQF20IEEE8021QchInControlIN9CoRE4INET13BaseInControlEED1Ev @3120
    _ZTv0_n40_N7CAN4CQF21IEEE8021Qch_InControlD0Ev @3121
    _ZTv0_n40_N7CAN4CQF21IEEE8021Qch_InControlD1Ev @3122
    _ZTv0_n40_N7CAN4CQF26EthernetGatewayApplication10initializeEv @3123
    _ZTv0_n40_N7CAN4CQF26EthernetGatewayApplicationD0Ev @3124
    _ZTv0_n40_N7CAN4CQF26EthernetGatewayApplicationD1Ev @3125
    _ZTv0_n40_N7CAN4CQF26IEEE8021QchGateControlListD0Ev @3126
    _ZTv0_n40_N7CAN4CQF26IEEE8021QchGateControlListD1Ev @3127
    _ZTv0_n40_N7CAN4CQF6RxgateD0Ev @3128
    _ZTv0_n40_N7CAN4CQF6RxgateD1Ev @3129
    _ZTv0_n48_N7CAN4CQF17TTApplicationBase13handleMessageEPN7omnetpp8cMessageE @3130
    _ZTv0_n48_N7CAN4CQF26EthernetGatewayApplication13handleMessageEPN7omnetpp8cMessageE @3131
    _ZTv0_n56_N7CAN4CQF17TTApplicationBase21handleParameterChangeEPKc @3132
    _ZTv0_n64_N7CAN4CQF26EthernetGatewayApplicationD0Ev @3133
    _ZTv0_n64_N7CAN4CQF26EthernetGatewayApplicationD1Ev @3134
    _ZZN8nlohmann16json_abi_v3_11_310basic_jsonISt3mapSt6vectorNSt7__cxx1112basic_stringIcSt11char_traitsIcESaIcEEEbxydSaNS0_14adl_serializerES3_IhSaIhEEvE6createINS0_27byte_container_with_subtypeISC_EEJEEEPT_DpOT0_ENKUlPSG_E_clESM_ @3135
    _ZZN8nlohmann16json_abi_v3_11_310basic_jsonISt3mapSt6vectorNSt7__cxx1112basic_stringIcSt11char_traitsIcESaIcEEEbxydSaNS0_14adl_serializerES3_IhSaIhEEvE6createINS0_27byte_container_with_subtypeISC_EEJRKSG_EEEPT_DpOT0_ENKUlPSG_E_clESO_ @3136
    _ZZN8nlohmann16json_abi_v3_11_310basic_jsonISt3mapSt6vectorNSt7__cxx1112basic_stringIcSt11char_traitsIcESaIcEEEbxydSaNS0_14adl_serializerES3_IhSaIhEEvE6createIS2_IS9_SD_St4lessIvESaISt4pairIKS9_SD_EEEJEEEPT_DpOT0_ENKUlPSL_E_clESR_ @3137
    _ZZN8nlohmann16json_abi_v3_11_310basic_jsonISt3mapSt6vectorNSt7__cxx1112basic_stringIcSt11char_traitsIcESaIcEEEbxydSaNS0_14adl_serializerES3_IhSaIhEEvE6createIS2_IS9_SD_St4lessIvESaISt4pairIKS9_SD_EEEJRKSL_EEEPT_DpOT0_ENKUlPSL_E_clEST_ @3138
    _ZZN8nlohmann16json_abi_v3_11_310basic_jsonISt3mapSt6vectorNSt7__cxx1112basic_stringIcSt11char_traitsIcESaIcEEEbxydSaNS0_14adl_serializerES3_IhSaIhEEvE6createIS3_ISD_SaISD_EEJEEEPT_DpOT0_ENKUlPSG_E_clESM_ @3139
    _ZZN8nlohmann16json_abi_v3_11_310basic_jsonISt3mapSt6vectorNSt7__cxx1112basic_stringIcSt11char_traitsIcESaIcEEEbxydSaNS0_14adl_serializerES3_IhSaIhEEvE6createIS3_ISD_SaISD_EEJPKNS0_6detail8json_refISD_EESL_EEEPT_DpOT0_ENKUlPSG_E_clESR_ @3140
    _ZZN8nlohmann16json_abi_v3_11_310basic_jsonISt3mapSt6vectorNSt7__cxx1112basic_stringIcSt11char_traitsIcESaIcEEEbxydSaNS0_14adl_serializerES3_IhSaIhEEvE6createIS3_ISD_SaISD_EEJRKSG_EEEPT_DpOT0_ENKUlPSG_E_clESO_ @3141
    _ZZN8nlohmann16json_abi_v3_11_310basic_jsonISt3mapSt6vectorNSt7__cxx1112basic_stringIcSt11char_traitsIcESaIcEEEbxydSaNS0_14adl_serializerES3_IhSaIhEEvE6createIS9_JRA1_KcEEEPT_DpOT0_ENKUlPS9_E_clESN_ @3142
    _ZZN8nlohmann16json_abi_v3_11_310basic_jsonISt3mapSt6vectorNSt7__cxx1112basic_stringIcSt11char_traitsIcESaIcEEEbxydSaNS0_14adl_serializerES3_IhSaIhEEvE6createIS9_JRKS9_EEEPT_DpOT0_ENKUlPS9_E_clESM_ @3143
    _ZZN8nlohmann16json_abi_v3_11_310basic_jsonISt3mapSt6vectorNSt7__cxx1112basic_stringIcSt11char_traitsIcESaIcEEEbxydSaNS0_14adl_serializerES3_IhSaIhEEvEC1ESt16initializer_listINS0_6detail8json_refISD_EEEbNSF_7value_tEENKUlRKSH_E_clESL_ @3144
    _ZZN8nlohmann16json_abi_v3_11_36detail10serializerINS0_10basic_jsonISt3mapSt6vectorNSt7__cxx1112basic_stringIcSt11char_traitsIcESaIcEEEbxydSaNS0_14adl_serializerES5_IhSaIhEEvEEE10dump_floatEdE24is_ieee_single_or_double @3145 DATA
    _ZZN8nlohmann16json_abi_v3_11_36detail10serializerINS0_10basic_jsonISt3mapSt6vectorNSt7__cxx1112basic_stringIcSt11char_traitsIcESaIcEEEbxydSaNS0_14adl_serializerES5_IhSaIhEEvEEE12dump_integerIhLi0EEEvT_E12digits_to_99 @3146 DATA
    _ZZN8nlohmann16json_abi_v3_11_36detail10serializerINS0_10basic_jsonISt3mapSt6vectorNSt7__cxx1112basic_stringIcSt11char_traitsIcESaIcEEEbxydSaNS0_14adl_serializerES5_IhSaIhEEvEEE12dump_integerIxLi0EEEvT_E12digits_to_99 @3147 DATA
    _ZZN8nlohmann16json_abi_v3_11_36detail10serializerINS0_10basic_jsonISt3mapSt6vectorNSt7__cxx1112basic_stringIcSt11char_traitsIcESaIcEEEbxydSaNS0_14adl_serializerES5_IhSaIhEEvEEE12dump_integerIyLi0EEEvT_E12digits_to_99 @3148 DATA
    _ZZN8nlohmann16json_abi_v3_11_36detail10serializerINS0_10basic_jsonISt3mapSt6vectorNSt7__cxx1112basic_stringIcSt11char_traitsIcESaIcEEEbxydSaNS0_14adl_serializerES5_IhSaIhEEvEEE6decodeERhRjhE5utf8d @3149 DATA
    _ZZN8nlohmann16json_abi_v3_11_36detail9dtoa_impl36get_cached_power_for_binary_exponentEiE13kCachedPowers @3150 DATA
    _ZZN9__gnu_cxx6__stoaIlicJiEEET0_PFT_PKT1_PPS3_DpT2_EPKcS5_PyS9_EN10_Range_chk6_S_chkElSt17integral_constantIbLb1EE @3151
    _ZZN9__gnu_cxx6__stoaIlicJiEEET0_PFT_PKT1_PPS3_DpT2_EPKcS5_PyS9_EN11_Save_errnoC2Ev @3152
    _ZZN9__gnu_cxx6__stoaIlicJiEEET0_PFT_PKT1_PPS3_DpT2_EPKcS5_PyS9_EN11_Save_errnoD2Ev @3153
